

Microchip MPLAB XC8 Assembler V2.40 build 20220703182018 
                                                                                               Wed Apr 05 13:12:27 2023

Microchip MPLAB XC8 C Compiler v2.40 (Free license) build 20220703182018 Og1 
     1                           	processor	16F887
     2                           	pagewidth 120
     3                           	opt	flic
     4                           	psect	cinit,global,class=CODE,merge=1,delta=2
     5                           	psect	bssBANK0,global,class=BANK0,space=1,delta=1,noexec
     6                           	psect	cstackCOMMON,global,class=COMMON,space=1,delta=1,noexec
     7                           	psect	cstackBANK0,global,class=BANK0,space=1,delta=1,noexec
     8                           	psect	maintext,global,class=CODE,split=1,delta=2
     9                           	psect	text1,local,class=CODE,merge=1,delta=2
    10                           	psect	text2,local,class=CODE,merge=1,delta=2
    11                           	psect	intentry,global,class=CODE,delta=2
    12                           	psect	text3,local,class=CODE,merge=1,delta=2
    13                           	psect	text4,local,class=CODE,merge=1,delta=2,group=1
    14                           	psect	text5,local,class=CODE,merge=1,delta=2,group=1
    15                           	psect	idloc,global,abs,ovrld,class=IDLOC,space=5,delta=2,noexec
    16                           	psect	config,global,abs,ovrld,class=CONFIG,space=4,delta=2,noexec
    17                           	dabs	1,0x7E,2
    18     0000                     
    19                           ; Version 2.40
    20                           ; Generated 17/11/2021 GMT
    21                           ; 
    22                           ; Copyright © 2021, Microchip Technology Inc. and its subsidiaries ("Microchip")
    23                           ; All rights reserved.
    24                           ; 
    25                           ; This software is developed by Microchip Technology Inc. and its subsidiaries ("Microch
      +                          ip").
    26                           ; 
    27                           ; Redistribution and use in source and binary forms, with or without modification, are
    28                           ; permitted provided that the following conditions are met:
    29                           ; 
    30                           ;     1. Redistributions of source code must retain the above copyright notice, this lis
      +                          t of
    31                           ;        conditions and the following disclaimer.
    32                           ; 
    33                           ;     2. Redistributions in binary form must reproduce the above copyright notice, this 
      +                          list
    34                           ;        of conditions and the following disclaimer in the documentation and/or other
    35                           ;        materials provided with the distribution. Publication is not required when
    36                           ;        this file is used in an embedded application.
    37                           ; 
    38                           ;     3. Microchip's name may not be used to endorse or promote products derived from th
      +                          is
    39                           ;        software without specific prior written permission.
    40                           ; 
    41                           ; THIS SOFTWARE IS PROVIDED BY MICROCHIP "AS IS" AND ANY EXPRESS OR IMPLIED WARRANTIES,
    42                           ; INCLUDING, BUT NOT LIMITED TO, THE IMPLIED WARRANTIES OF MERCHANTABILITY AND FITNESS F
      +                          OR
    43                           ; PURPOSE ARE DISCLAIMED.  IN NO EVENT SHALL MICROCHIP BE LIABLE FOR ANY DIRECT, INDIREC
      +                          T,
    44                           ; INCIDENTAL, SPECIAL, EXEMPLARY, OR CONSEQUENTIAL DAMAGES (INCLUDING BUT NOT LIMITED TO
    45                           ; PROCUREMENT OF SUBSTITUTE GOODS OR SERVICES; LOSS OF USE, DATA OR PROFITS; OR BUSINESS
    46                           ; INTERRUPTION) HOWSOEVER CAUSED AND ON ANY THEORY OF LIABILITY, WHETHER IN CONTRACT, ST
      +                          RICT
    47                           ; LIABILITY, OR TORT (INCLUDING NEGLIGENCE OR OTHERWISE) ARISING IN ANY WAY OUT OF THE U
      +                          SE OF
    48                           ; THIS SOFTWARE, EVEN IF ADVISED OF THE POSSIBILITY OF SUCH DAMAGE.
    49                           ; 
    50                           ; 
    51                           ; Code-generator required, PIC16F887 Definitions
    52                           ; 
    53                           ; SFR Addresses
    54     0000                     	;# 
    55     0001                     	;# 
    56     0002                     	;# 
    57     0003                     	;# 
    58     0004                     	;# 
    59     0005                     	;# 
    60     0006                     	;# 
    61     0007                     	;# 
    62     0008                     	;# 
    63     0009                     	;# 
    64     000A                     	;# 
    65     000B                     	;# 
    66     000C                     	;# 
    67     000D                     	;# 
    68     000E                     	;# 
    69     000E                     	;# 
    70     000F                     	;# 
    71     0010                     	;# 
    72     0011                     	;# 
    73     0012                     	;# 
    74     0013                     	;# 
    75     0014                     	;# 
    76     0015                     	;# 
    77     0015                     	;# 
    78     0016                     	;# 
    79     0017                     	;# 
    80     0018                     	;# 
    81     0019                     	;# 
    82     001A                     	;# 
    83     001B                     	;# 
    84     001B                     	;# 
    85     001C                     	;# 
    86     001D                     	;# 
    87     001E                     	;# 
    88     001F                     	;# 
    89     0081                     	;# 
    90     0085                     	;# 
    91     0086                     	;# 
    92     0087                     	;# 
    93     0088                     	;# 
    94     0089                     	;# 
    95     008C                     	;# 
    96     008D                     	;# 
    97     008E                     	;# 
    98     008F                     	;# 
    99     0090                     	;# 
   100     0091                     	;# 
   101     0092                     	;# 
   102     0093                     	;# 
   103     0093                     	;# 
   104     0093                     	;# 
   105     0094                     	;# 
   106     0095                     	;# 
   107     0096                     	;# 
   108     0097                     	;# 
   109     0098                     	;# 
   110     0099                     	;# 
   111     009A                     	;# 
   112     009B                     	;# 
   113     009C                     	;# 
   114     009D                     	;# 
   115     009E                     	;# 
   116     009F                     	;# 
   117     0105                     	;# 
   118     0107                     	;# 
   119     0108                     	;# 
   120     0109                     	;# 
   121     010C                     	;# 
   122     010C                     	;# 
   123     010D                     	;# 
   124     010E                     	;# 
   125     010F                     	;# 
   126     0185                     	;# 
   127     0187                     	;# 
   128     0188                     	;# 
   129     0189                     	;# 
   130     018C                     	;# 
   131     018D                     	;# 
   132     0000                     	;# 
   133     0001                     	;# 
   134     0002                     	;# 
   135     0003                     	;# 
   136     0004                     	;# 
   137     0005                     	;# 
   138     0006                     	;# 
   139     0007                     	;# 
   140     0008                     	;# 
   141     0009                     	;# 
   142     000A                     	;# 
   143     000B                     	;# 
   144     000C                     	;# 
   145     000D                     	;# 
   146     000E                     	;# 
   147     000E                     	;# 
   148     000F                     	;# 
   149     0010                     	;# 
   150     0011                     	;# 
   151     0012                     	;# 
   152     0013                     	;# 
   153     0014                     	;# 
   154     0015                     	;# 
   155     0015                     	;# 
   156     0016                     	;# 
   157     0017                     	;# 
   158     0018                     	;# 
   159     0019                     	;# 
   160     001A                     	;# 
   161     001B                     	;# 
   162     001B                     	;# 
   163     001C                     	;# 
   164     001D                     	;# 
   165     001E                     	;# 
   166     001F                     	;# 
   167     0081                     	;# 
   168     0085                     	;# 
   169     0086                     	;# 
   170     0087                     	;# 
   171     0088                     	;# 
   172     0089                     	;# 
   173     008C                     	;# 
   174     008D                     	;# 
   175     008E                     	;# 
   176     008F                     	;# 
   177     0090                     	;# 
   178     0091                     	;# 
   179     0092                     	;# 
   180     0093                     	;# 
   181     0093                     	;# 
   182     0093                     	;# 
   183     0094                     	;# 
   184     0095                     	;# 
   185     0096                     	;# 
   186     0097                     	;# 
   187     0098                     	;# 
   188     0099                     	;# 
   189     009A                     	;# 
   190     009B                     	;# 
   191     009C                     	;# 
   192     009D                     	;# 
   193     009E                     	;# 
   194     009F                     	;# 
   195     0105                     	;# 
   196     0107                     	;# 
   197     0108                     	;# 
   198     0109                     	;# 
   199     010C                     	;# 
   200     010C                     	;# 
   201     010D                     	;# 
   202     010E                     	;# 
   203     010F                     	;# 
   204     0185                     	;# 
   205     0187                     	;# 
   206     0188                     	;# 
   207     0189                     	;# 
   208     018C                     	;# 
   209     018D                     	;# 
   210     0012                     _T2CONbits	set	18
   211     001D                     _CCP2CONbits	set	29
   212     0017                     _CCP1CONbits	set	23
   213     000B                     _INTCONbits	set	11
   214     0007                     _PORTC	set	7
   215     0006                     _PORTB	set	6
   216     0005                     _PORTA	set	5
   217     001B                     _CCPR2L	set	27
   218     0015                     _CCPR1L	set	21
   219     001E                     _ADRESH	set	30
   220     001F                     _ADCON0bits	set	31
   221     000C                     _PIR1bits	set	12
   222     0001                     _TMR0	set	1
   223     0007                     _PORTCbits	set	7
   224     005A                     _T0IF	set	90
   225     0092                     _PR2	set	146
   226     0087                     _TRISCbits	set	135
   227     008C                     _PIE1bits	set	140
   228     009F                     _ADCON1bits	set	159
   229     0081                     _OPTION_REGbits	set	129
   230     008F                     _OSCCONbits	set	143
   231     0086                     _TRISB	set	134
   232     0087                     _TRISC	set	135
   233     0085                     _TRISA	set	133
   234     0189                     _ANSELH	set	393
   235     0188                     _ANSEL	set	392
   236                           
   237                           	psect	cinit
   238     0011                     start_initialization:	
   239                           ; #config settings
   240                           
   241     0011                     __initialization:
   242                           
   243                           ; Clear objects allocated to BANK0
   244     0011  1283               	bcf	3,5	;RP0=0, select bank0
   245     0012  1303               	bcf	3,6	;RP1=0, select bank0
   246     0013  01B3               	clrf	__pbssBANK0& (0+127)
   247     0014  01B4               	clrf	(__pbssBANK0+1)& (0+127)
   248     0015  01B5               	clrf	(__pbssBANK0+2)& (0+127)
   249     0016  01B6               	clrf	(__pbssBANK0+3)& (0+127)
   250     0017  01B7               	clrf	(__pbssBANK0+4)& (0+127)
   251     0018  01B8               	clrf	(__pbssBANK0+5)& (0+127)
   252     0019                     end_of_initialization:	
   253                           ;End of C runtime variable initialization code
   254                           
   255     0019                     __end_of__initialization:
   256     0019  0183               	clrf	3
   257     001A  120A  118A  29A6   	ljmp	_main	;jump to C main() function
   258                           
   259                           	psect	bssBANK0
   260     0033                     __pbssBANK0:
   261     0033                     _manualPWM:
   262     0033                     	ds	2
   263     0035                     _cont0:
   264     0035                     	ds	2
   265     0037                     _y:
   266     0037                     	ds	2
   267                           
   268                           	psect	cstackCOMMON
   269     0070                     __pcstackCOMMON:
   270     0070                     ?_setup:
   271     0070                     ?_isr:	
   272                           ; 1 bytes @ 0x0
   273                           
   274     0070                     ?_main:	
   275                           ; 1 bytes @ 0x0
   276                           
   277     0070                     ?___wmul:	
   278                           ; 1 bytes @ 0x0
   279                           
   280     0070                     ___wmul@multiplier:	
   281                           ; 2 bytes @ 0x0
   282                           
   283                           
   284                           ; 2 bytes @ 0x0
   285     0070                     	ds	2
   286     0072                     ___wmul@multiplicand:
   287                           
   288                           ; 2 bytes @ 0x2
   289     0072                     	ds	2
   290     0074                     ??___wmul:
   291     0074                     ___wmul@product:	
   292                           ; 1 bytes @ 0x4
   293                           
   294                           
   295                           ; 2 bytes @ 0x4
   296     0074                     	ds	2
   297     0076                     ?___awdiv:
   298     0076                     ___awdiv@divisor:	
   299                           ; 2 bytes @ 0x6
   300                           
   301                           
   302                           ; 2 bytes @ 0x6
   303     0076                     	ds	2
   304     0078                     ___awdiv@dividend:
   305                           
   306                           ; 2 bytes @ 0x8
   307     0078                     	ds	2
   308     007A                     ??___awdiv:
   309                           
   310                           ; 1 bytes @ 0xA
   311     007A                     	ds	1
   312     007B                     ??_mapear:
   313     007B                     mapear@nuevo_valor:	
   314                           ; 1 bytes @ 0xB
   315                           
   316                           
   317                           ; 2 bytes @ 0xB
   318     007B                     	ds	2
   319                           
   320                           	psect	cstackBANK0
   321     0020                     __pcstackBANK0:
   322     0020                     ___awdiv@counter:
   323                           
   324                           ; 1 bytes @ 0x0
   325     0020                     	ds	1
   326     0021                     ___awdiv@sign:
   327                           
   328                           ; 1 bytes @ 0x1
   329     0021                     	ds	1
   330     0022                     ___awdiv@quotient:
   331                           
   332                           ; 2 bytes @ 0x2
   333     0022                     	ds	2
   334     0024                     ?_mapear:
   335     0024                     mapear@valor:	
   336                           ; 2 bytes @ 0x4
   337                           
   338                           
   339                           ; 2 bytes @ 0x4
   340     0024                     	ds	2
   341     0026                     mapear@rango_min:
   342                           
   343                           ; 2 bytes @ 0x6
   344     0026                     	ds	2
   345     0028                     mapear@rango_max:
   346                           
   347                           ; 2 bytes @ 0x8
   348     0028                     	ds	2
   349     002A                     mapear@nuevo_min:
   350                           
   351                           ; 2 bytes @ 0xA
   352     002A                     	ds	2
   353     002C                     mapear@nuevo_max:
   354                           
   355                           ; 2 bytes @ 0xC
   356     002C                     	ds	2
   357     002E                     ??_isr:
   358                           
   359                           ; 1 bytes @ 0xE
   360     002E                     	ds	4
   361     0032                     ??_setup:
   362     0032                     ??_main:	
   363                           ; 1 bytes @ 0x12
   364                           
   365                           
   366                           ; 1 bytes @ 0x12
   367     0032                     	ds	1
   368                           
   369                           	psect	maintext
   370     01A6                     __pmaintext:	
   371 ;;
   372 ;;Main: autosize = 0, tempsize = 1, incstack = 0, save=0
   373 ;;
   374 ;; *************** function _main *****************
   375 ;; Defined at:
   376 ;;		line 72 in file "prelablab7.c"
   377 ;; Parameters:    Size  Location     Type
   378 ;;		None
   379 ;; Auto vars:     Size  Location     Type
   380 ;;		None
   381 ;; Return value:  Size  Location     Type
   382 ;;                  1    wreg      void 
   383 ;; Registers used:
   384 ;;		wreg, status,2, status,0, pclath, cstack
   385 ;; Tracked objects:
   386 ;;		On entry : B00/0
   387 ;;		On exit  : 0/0
   388 ;;		Unchanged: 0/0
   389 ;; Data sizes:     COMMON   BANK0   BANK1   BANK3   BANK2
   390 ;;      Params:         0       0       0       0       0
   391 ;;      Locals:         0       0       0       0       0
   392 ;;      Temps:          0       1       0       0       0
   393 ;;      Totals:         0       1       0       0       0
   394 ;;Total ram usage:        1 bytes
   395 ;; Hardware stack levels required when called: 4
   396 ;; This function calls:
   397 ;;		_setup
   398 ;; This function is called by:
   399 ;;		Startup code after reset
   400 ;; This function uses a non-reentrant model
   401 ;;
   402                           
   403     01A6                     _main:	
   404                           ;psect for function _main
   405                           
   406     01A6                     l1076:	
   407                           ;incstack = 0
   408                           ; Regs used in _main: [wreg+status,2+status,0+pclath+cstack]
   409                           
   410                           
   411                           ;prelablab7.c: 73:     setup();
   412     01A6  120A  118A  2145  120A  118A  	fcall	_setup
   413     01AB                     l1078:
   414                           
   415                           ;prelablab7.c: 75:         if(ADCON0bits.CHS == 0b0000){
   416     01AB  1283               	bcf	3,5	;RP0=0, select bank0
   417     01AC  1303               	bcf	3,6	;RP1=0, select bank0
   418     01AD  0C1F               	rrf	31,w	;volatile
   419     01AE  00B2               	movwf	??_main
   420     01AF  0C32               	rrf	??_main,w
   421     01B0  390F               	andlw	15
   422     01B1  3A00               	xorlw	0
   423     01B2  1D03               	skipz
   424     01B3  29B5               	goto	u491
   425     01B4  29B6               	goto	u490
   426     01B5                     u491:
   427     01B5  29C5               	goto	l1084
   428     01B6                     u490:
   429     01B6                     l1080:
   430                           
   431                           ;prelablab7.c: 76:             _delay((unsigned long)((10)*(500000/4000.0)));
   432     01B6  30F9               	movlw	249
   433     01B7  1283               	bcf	3,5	;RP0=0, select bank0
   434     01B8  1303               	bcf	3,6	;RP1=0, select bank0
   435     01B9  00B2               	movwf	??_main
   436     01BA                     u537:
   437     01BA  29BB               	nop2
   438     01BB  0BB2               	decfsz	??_main,f
   439     01BC  29BA               	goto	u537
   440     01BD  29BE               	nop2
   441     01BE                     l1082:
   442                           
   443                           ;prelablab7.c: 77:             ADCON0bits.CHS = 0b0001;
   444     01BE  1283               	bcf	3,5	;RP0=0, select bank0
   445     01BF  1303               	bcf	3,6	;RP1=0, select bank0
   446     01C0  081F               	movf	31,w	;volatile
   447     01C1  39C3               	andlw	-61
   448     01C2  3804               	iorlw	4
   449     01C3  009F               	movwf	31	;volatile
   450                           
   451                           ;prelablab7.c: 78:         }else if(ADCON0bits.CHS == 0b0001){
   452     01C4  29F2               	goto	l1096
   453     01C5                     l1084:
   454     01C5  0C1F               	rrf	31,w	;volatile
   455     01C6  00B2               	movwf	??_main
   456     01C7  0C32               	rrf	??_main,w
   457     01C8  390F               	andlw	15
   458     01C9  3A01               	xorlw	1
   459     01CA  1D03               	skipz
   460     01CB  29CD               	goto	u501
   461     01CC  29CE               	goto	u500
   462     01CD                     u501:
   463     01CD  29DD               	goto	l1090
   464     01CE                     u500:
   465     01CE                     l1086:
   466                           
   467                           ;prelablab7.c: 79:             _delay((unsigned long)((10)*(500000/4000.0)));
   468     01CE  30F9               	movlw	249
   469     01CF  1283               	bcf	3,5	;RP0=0, select bank0
   470     01D0  1303               	bcf	3,6	;RP1=0, select bank0
   471     01D1  00B2               	movwf	??_main
   472     01D2                     u547:
   473     01D2  29D3               	nop2
   474     01D3  0BB2               	decfsz	??_main,f
   475     01D4  29D2               	goto	u547
   476     01D5  29D6               	nop2
   477     01D6                     l1088:
   478                           
   479                           ;prelablab7.c: 80:             ADCON0bits.CHS = 0b0010;
   480     01D6  1283               	bcf	3,5	;RP0=0, select bank0
   481     01D7  1303               	bcf	3,6	;RP1=0, select bank0
   482     01D8  081F               	movf	31,w	;volatile
   483     01D9  39C3               	andlw	-61
   484     01DA  3808               	iorlw	8
   485     01DB  009F               	movwf	31	;volatile
   486                           
   487                           ;prelablab7.c: 81:         }else if(ADCON0bits.CHS == 0b0010){
   488     01DC  29F2               	goto	l1096
   489     01DD                     l1090:
   490     01DD  0C1F               	rrf	31,w	;volatile
   491     01DE  00B2               	movwf	??_main
   492     01DF  0C32               	rrf	??_main,w
   493     01E0  390F               	andlw	15
   494     01E1  3A02               	xorlw	2
   495     01E2  1D03               	skipz
   496     01E3  29E5               	goto	u511
   497     01E4  29E6               	goto	u510
   498     01E5                     u511:
   499     01E5  29F2               	goto	l1096
   500     01E6                     u510:
   501     01E6                     l1092:
   502                           
   503                           ;prelablab7.c: 82:             _delay((unsigned long)((10)*(500000/4000.0)));
   504     01E6  30F9               	movlw	249
   505     01E7  1283               	bcf	3,5	;RP0=0, select bank0
   506     01E8  1303               	bcf	3,6	;RP1=0, select bank0
   507     01E9  00B2               	movwf	??_main
   508     01EA                     u557:
   509     01EA  29EB               	nop2
   510     01EB  0BB2               	decfsz	??_main,f
   511     01EC  29EA               	goto	u557
   512     01ED  29EE               	nop2
   513     01EE                     l1094:
   514                           
   515                           ;prelablab7.c: 83:             ADCON0bits.CHS = 0b0000;
   516     01EE  30C3               	movlw	-61
   517     01EF  1283               	bcf	3,5	;RP0=0, select bank0
   518     01F0  1303               	bcf	3,6	;RP1=0, select bank0
   519     01F1  059F               	andwf	31,f	;volatile
   520     01F2                     l1096:
   521                           
   522                           ;prelablab7.c: 86:         if(ADCON0bits.GO == 0){
   523     01F2  189F               	btfsc	31,1	;volatile
   524     01F3  29F5               	goto	u521
   525     01F4  29F6               	goto	u520
   526     01F5                     u521:
   527     01F5  29AB               	goto	l1078
   528     01F6                     u520:
   529     01F6                     l1098:
   530                           
   531                           ;prelablab7.c: 87:             _delay((unsigned long)((10)*(500000/4000.0)));
   532     01F6  30F9               	movlw	249
   533     01F7  1283               	bcf	3,5	;RP0=0, select bank0
   534     01F8  1303               	bcf	3,6	;RP1=0, select bank0
   535     01F9  00B2               	movwf	??_main
   536     01FA                     u567:
   537     01FA  29FB               	nop2
   538     01FB  0BB2               	decfsz	??_main,f
   539     01FC  29FA               	goto	u567
   540     01FD  29FE               	nop2
   541     01FE                     l1100:
   542                           
   543                           ;prelablab7.c: 88:             ADCON0bits.GO = 1;
   544     01FE  1283               	bcf	3,5	;RP0=0, select bank0
   545     01FF  1303               	bcf	3,6	;RP1=0, select bank0
   546     0200  149F               	bsf	31,1	;volatile
   547     0201  29AB               	goto	l1078
   548     0202  120A  118A  280E   	ljmp	start
   549     0205                     __end_of_main:
   550                           
   551                           	psect	text1
   552     0145                     __ptext1:	
   553 ;; *************** function _setup *****************
   554 ;; Defined at:
   555 ;;		line 99 in file "prelablab7.c"
   556 ;; Parameters:    Size  Location     Type
   557 ;;		None
   558 ;; Auto vars:     Size  Location     Type
   559 ;;		None
   560 ;; Return value:  Size  Location     Type
   561 ;;                  1    wreg      void 
   562 ;; Registers used:
   563 ;;		wreg, status,2, status,0
   564 ;; Tracked objects:
   565 ;;		On entry : 0/0
   566 ;;		On exit  : 0/0
   567 ;;		Unchanged: 0/0
   568 ;; Data sizes:     COMMON   BANK0   BANK1   BANK3   BANK2
   569 ;;      Params:         0       0       0       0       0
   570 ;;      Locals:         0       0       0       0       0
   571 ;;      Temps:          0       0       0       0       0
   572 ;;      Totals:         0       0       0       0       0
   573 ;;Total ram usage:        0 bytes
   574 ;; Hardware stack levels used: 1
   575 ;; Hardware stack levels required when called: 3
   576 ;; This function calls:
   577 ;;		Nothing
   578 ;; This function is called by:
   579 ;;		_main
   580 ;; This function uses a non-reentrant model
   581 ;;
   582                           
   583     0145                     _setup:	
   584                           ;psect for function _setup
   585                           
   586     0145                     l962:	
   587                           ;incstack = 0
   588                           ; Regs used in _setup: [wreg+status,2+status,0]
   589                           
   590                           
   591                           ;prelablab7.c: 101:     ANSEL = 0b00000111;
   592     0145  3007               	movlw	7
   593     0146  1683               	bsf	3,5	;RP0=1, select bank3
   594     0147  1703               	bsf	3,6	;RP1=1, select bank3
   595     0148  0088               	movwf	8	;volatile
   596     0149                     l964:
   597                           
   598                           ;prelablab7.c: 102:     ANSELH = 0;
   599     0149  0189               	clrf	9	;volatile
   600     014A                     l966:
   601                           
   602                           ;prelablab7.c: 104:     TRISA = 0b00000111;
   603     014A  3007               	movlw	7
   604     014B  1683               	bsf	3,5	;RP0=1, select bank1
   605     014C  1303               	bcf	3,6	;RP1=0, select bank1
   606     014D  0085               	movwf	5	;volatile
   607                           
   608                           ;prelablab7.c: 105:     TRISC = 0x00;
   609     014E  0187               	clrf	7	;volatile
   610                           
   611                           ;prelablab7.c: 106:     TRISB = 0;
   612     014F  0186               	clrf	6	;volatile
   613                           
   614                           ;prelablab7.c: 108:     PORTA = 0;
   615     0150  1283               	bcf	3,5	;RP0=0, select bank0
   616     0151  1303               	bcf	3,6	;RP1=0, select bank0
   617     0152  0185               	clrf	5	;volatile
   618                           
   619                           ;prelablab7.c: 109:     PORTB = 0;
   620     0153  0186               	clrf	6	;volatile
   621                           
   622                           ;prelablab7.c: 110:     PORTC = 0x00;
   623     0154  0187               	clrf	7	;volatile
   624     0155                     l968:
   625                           
   626                           ;prelablab7.c: 113:     OSCCONbits.IRCF2 = 0;
   627     0155  1683               	bsf	3,5	;RP0=1, select bank1
   628     0156  1303               	bcf	3,6	;RP1=0, select bank1
   629     0157  130F               	bcf	15,6	;volatile
   630     0158                     l970:
   631                           
   632                           ;prelablab7.c: 114:     OSCCONbits.IRCF1 = 1;
   633     0158  168F               	bsf	15,5	;volatile
   634     0159                     l972:
   635                           
   636                           ;prelablab7.c: 115:     OSCCONbits.IRCF0 = 1;
   637     0159  160F               	bsf	15,4	;volatile
   638     015A                     l974:
   639                           
   640                           ;prelablab7.c: 116:     OSCCONbits.SCS = 1;
   641     015A  140F               	bsf	15,0	;volatile
   642     015B                     l976:
   643                           
   644                           ;prelablab7.c: 119:     OPTION_REGbits.T0CS = 0;
   645     015B  1281               	bcf	1,5	;volatile
   646     015C                     l978:
   647                           
   648                           ;prelablab7.c: 120:     OPTION_REGbits.PSA = 0;
   649     015C  1181               	bcf	1,3	;volatile
   650     015D                     l980:
   651                           
   652                           ;prelablab7.c: 121:     OPTION_REGbits.PS = 0b001;
   653     015D  0801               	movf	1,w	;volatile
   654     015E  39F8               	andlw	-8
   655     015F  3801               	iorlw	1
   656     0160  0081               	movwf	1	;volatile
   657     0161                     l982:
   658                           
   659                           ;prelablab7.c: 122:     TMR0 = 225;
   660     0161  30E1               	movlw	225
   661     0162  1283               	bcf	3,5	;RP0=0, select bank0
   662     0163  1303               	bcf	3,6	;RP1=0, select bank0
   663     0164  0081               	movwf	1	;volatile
   664     0165                     l984:
   665                           
   666                           ;prelablab7.c: 125:     ADCON1bits.ADFM = 0;
   667     0165  1683               	bsf	3,5	;RP0=1, select bank1
   668     0166  1303               	bcf	3,6	;RP1=0, select bank1
   669     0167  139F               	bcf	31,7	;volatile
   670     0168                     l986:
   671                           
   672                           ;prelablab7.c: 126:     ADCON1bits.VCFG0 = 0;
   673     0168  121F               	bcf	31,4	;volatile
   674     0169                     l988:
   675                           
   676                           ;prelablab7.c: 127:     ADCON1bits.VCFG1 = 0;
   677     0169  129F               	bcf	31,5	;volatile
   678     016A                     l990:
   679                           
   680                           ;prelablab7.c: 129:     ADCON0bits.ADCS = 0b10;
   681     016A  1283               	bcf	3,5	;RP0=0, select bank0
   682     016B  1303               	bcf	3,6	;RP1=0, select bank0
   683     016C  081F               	movf	31,w	;volatile
   684     016D  393F               	andlw	-193
   685     016E  3880               	iorlw	128
   686     016F  009F               	movwf	31	;volatile
   687     0170                     l992:
   688                           
   689                           ;prelablab7.c: 130:     ADCON0bits.CHS = 0b0000;
   690     0170  30C3               	movlw	-61
   691     0171  059F               	andwf	31,f	;volatile
   692     0172                     l994:
   693                           
   694                           ;prelablab7.c: 131:     ADCON0bits.ADON = 1;
   695     0172  141F               	bsf	31,0	;volatile
   696     0173                     l996:
   697                           
   698                           ;prelablab7.c: 132:     _delay((unsigned long)((50)*(500000/4000000.0)));
   699     0173  2974               	nop2	;2 cycle nop
   700     0174  2975               	nop2	;2 cycle nop
   701     0175  2976               	nop2	;2 cycle nop
   702     0176                     l998:
   703                           
   704                           ;prelablab7.c: 135:     PIR1bits.ADIF = 0;
   705     0176  1283               	bcf	3,5	;RP0=0, select bank0
   706     0177  1303               	bcf	3,6	;RP1=0, select bank0
   707     0178  130C               	bcf	12,6	;volatile
   708     0179                     l1000:
   709                           
   710                           ;prelablab7.c: 136:     PIE1bits.ADIE = 1;
   711     0179  1683               	bsf	3,5	;RP0=1, select bank1
   712     017A  1303               	bcf	3,6	;RP1=0, select bank1
   713     017B  170C               	bsf	12,6	;volatile
   714     017C                     l1002:
   715                           
   716                           ;prelablab7.c: 137:     INTCONbits.T0IF = 0;
   717     017C  110B               	bcf	11,2	;volatile
   718     017D                     l1004:
   719                           
   720                           ;prelablab7.c: 138:     INTCONbits.T0IE = 1;
   721     017D  168B               	bsf	11,5	;volatile
   722     017E                     l1006:
   723                           
   724                           ;prelablab7.c: 139:     INTCONbits.PEIE = 1;
   725     017E  170B               	bsf	11,6	;volatile
   726     017F                     l1008:
   727                           
   728                           ;prelablab7.c: 140:     INTCONbits.GIE = 1;
   729     017F  178B               	bsf	11,7	;volatile
   730     0180                     l1010:
   731                           
   732                           ;prelablab7.c: 143:     TRISCbits.TRISC2 = 1;
   733     0180  1507               	bsf	7,2	;volatile
   734     0181                     l1012:
   735                           
   736                           ;prelablab7.c: 144:     TRISCbits.TRISC1 = 1;
   737     0181  1487               	bsf	7,1	;volatile
   738     0182                     l1014:
   739                           
   740                           ;prelablab7.c: 145:     PR2 = 155;
   741     0182  309B               	movlw	155
   742     0183  0092               	movwf	18	;volatile
   743     0184                     l1016:
   744                           
   745                           ;prelablab7.c: 146:     CCP1CONbits.P1M = 0;
   746     0184  303F               	movlw	-193
   747     0185  1283               	bcf	3,5	;RP0=0, select bank0
   748     0186  1303               	bcf	3,6	;RP1=0, select bank0
   749     0187  0597               	andwf	23,f	;volatile
   750     0188                     l1018:
   751                           
   752                           ;prelablab7.c: 147:     CCP1CONbits.CCP1M = 0b00001100;
   753     0188  0817               	movf	23,w	;volatile
   754     0189  39F0               	andlw	-16
   755     018A  380C               	iorlw	12
   756     018B  0097               	movwf	23	;volatile
   757     018C                     l1020:
   758                           
   759                           ;prelablab7.c: 148:     CCP2CONbits.CCP2M = 0b00001100;
   760     018C  081D               	movf	29,w	;volatile
   761     018D  39F0               	andlw	-16
   762     018E  380C               	iorlw	12
   763     018F  009D               	movwf	29	;volatile
   764     0190                     l1022:
   765                           
   766                           ;prelablab7.c: 150:     CCPR1L = 0x0f;
   767     0190  300F               	movlw	15
   768     0191  0095               	movwf	21	;volatile
   769     0192                     l1024:
   770                           
   771                           ;prelablab7.c: 151:     CCPR2L = 0x0f;
   772     0192  300F               	movlw	15
   773     0193  009B               	movwf	27	;volatile
   774     0194                     l1026:
   775                           
   776                           ;prelablab7.c: 152:     CCP1CONbits.DC1B1 = 0;
   777     0194  1297               	bcf	23,5	;volatile
   778     0195                     l1028:
   779                           
   780                           ;prelablab7.c: 153:     CCP1CONbits.DC1B0 = 0;
   781     0195  1217               	bcf	23,4	;volatile
   782     0196                     l1030:
   783                           
   784                           ;prelablab7.c: 154:     CCP2CONbits.DC2B1 = 0;
   785     0196  129D               	bcf	29,5	;volatile
   786     0197                     l1032:
   787                           
   788                           ;prelablab7.c: 155:     CCP2CONbits.DC2B0 = 0;
   789     0197  121D               	bcf	29,4	;volatile
   790     0198                     l1034:
   791                           
   792                           ;prelablab7.c: 157:     PIR1bits.TMR2IF = 0;
   793     0198  108C               	bcf	12,1	;volatile
   794     0199                     l1036:
   795                           
   796                           ;prelablab7.c: 158:     T2CONbits.T2CKPS = 0b11;
   797     0199  3003               	movlw	3
   798     019A  0492               	iorwf	18,f	;volatile
   799     019B                     l1038:
   800                           
   801                           ;prelablab7.c: 159:     T2CONbits.TMR2ON = 1;
   802     019B  1512               	bsf	18,2	;volatile
   803     019C                     l99:	
   804                           ;prelablab7.c: 161:     while(!PIR1bits.TMR2IF);
   805                           
   806     019C  1C8C               	btfss	12,1	;volatile
   807     019D  299F               	goto	u411
   808     019E  29A0               	goto	u410
   809     019F                     u411:
   810     019F  299C               	goto	l99
   811     01A0                     u410:
   812     01A0                     l101:
   813                           
   814                           ;prelablab7.c: 162:     PIR1bits.TMR2IF = 0;
   815     01A0  108C               	bcf	12,1	;volatile
   816                           
   817                           ;prelablab7.c: 164:     TRISCbits.TRISC2 = 0;
   818     01A1  1683               	bsf	3,5	;RP0=1, select bank1
   819     01A2  1303               	bcf	3,6	;RP1=0, select bank1
   820     01A3  1107               	bcf	7,2	;volatile
   821                           
   822                           ;prelablab7.c: 165:     TRISCbits.TRISC1 = 0;
   823     01A4  1087               	bcf	7,1	;volatile
   824     01A5                     l102:	
   825                           ;prelablab7.c: 167:     return;
   826                           
   827     01A5  0008               	return
   828     01A6                     __end_of_setup:
   829                           
   830                           	psect	text2
   831     001D                     __ptext2:	
   832 ;; *************** function _isr *****************
   833 ;; Defined at:
   834 ;;		line 38 in file "prelablab7.c"
   835 ;; Parameters:    Size  Location     Type
   836 ;;		None
   837 ;; Auto vars:     Size  Location     Type
   838 ;;		None
   839 ;; Return value:  Size  Location     Type
   840 ;;                  1    wreg      void 
   841 ;; Registers used:
   842 ;;		wreg, status,2, status,0, pclath, cstack
   843 ;; Tracked objects:
   844 ;;		On entry : 0/0
   845 ;;		On exit  : 0/0
   846 ;;		Unchanged: 0/0
   847 ;; Data sizes:     COMMON   BANK0   BANK1   BANK3   BANK2
   848 ;;      Params:         0       0       0       0       0
   849 ;;      Locals:         0       0       0       0       0
   850 ;;      Temps:          0       4       0       0       0
   851 ;;      Totals:         0       4       0       0       0
   852 ;;Total ram usage:        4 bytes
   853 ;; Hardware stack levels used: 1
   854 ;; Hardware stack levels required when called: 2
   855 ;; This function calls:
   856 ;;		_mapear
   857 ;; This function is called by:
   858 ;;		Interrupt level 1
   859 ;; This function uses a non-reentrant model
   860 ;;
   861                           
   862     001D                     _isr:	
   863                           ;psect for function _isr
   864                           
   865     001D                     i1l1040:
   866                           
   867                           ;prelablab7.c: 39:     if(T0IF){
   868     001D  1D0B               	btfss	11,2	;volatile
   869     001E  2820               	goto	u42_21
   870     001F  2821               	goto	u42_20
   871     0020                     u42_21:
   872     0020  2848               	goto	i1l1054
   873     0021                     u42_20:
   874     0021                     i1l1042:
   875                           
   876                           ;prelablab7.c: 40:         if(cont0 == 20){
   877     0021  3014               	movlw	20
   878     0022  0635               	xorwf	_cont0,w
   879     0023  0436               	iorwf	_cont0+1,w
   880     0024  1D03               	btfss	3,2
   881     0025  2827               	goto	u43_21
   882     0026  2828               	goto	u43_20
   883     0027                     u43_21:
   884     0027  282A               	goto	i1l1046
   885     0028                     u43_20:
   886     0028                     i1l1044:
   887                           
   888                           ;prelablab7.c: 41:             cont0 = 0;
   889     0028  01B5               	clrf	_cont0
   890     0029  01B6               	clrf	_cont0+1
   891     002A                     i1l1046:
   892                           
   893                           ;prelablab7.c: 43:         if(cont0 <= manualPWM){
   894     002A  0834               	movf	_manualPWM+1,w
   895     002B  3A80               	xorlw	128
   896     002C  00AE               	movwf	??_isr
   897     002D  0836               	movf	_cont0+1,w
   898     002E  3A80               	xorlw	128
   899     002F  022E               	subwf	??_isr,w
   900     0030  1D03               	skipz
   901     0031  2834               	goto	u44_25
   902     0032  0835               	movf	_cont0,w
   903     0033  0233               	subwf	_manualPWM,w
   904     0034                     u44_25:
   905     0034  1C03               	skipc
   906     0035  2837               	goto	u44_21
   907     0036  2838               	goto	u44_20
   908     0037                     u44_21:
   909     0037  283C               	goto	i1l71
   910     0038                     u44_20:
   911     0038                     i1l1048:
   912                           
   913                           ;prelablab7.c: 44:             PORTCbits.RC3 = 1;
   914     0038  1283               	bcf	3,5	;RP0=0, select bank0
   915     0039  1303               	bcf	3,6	;RP1=0, select bank0
   916     003A  1587               	bsf	7,3	;volatile
   917                           
   918                           ;prelablab7.c: 45:         }else{
   919     003B  283F               	goto	i1l1050
   920     003C                     i1l71:
   921                           
   922                           ;prelablab7.c: 46:             PORTCbits.RC3 = 0;
   923     003C  1283               	bcf	3,5	;RP0=0, select bank0
   924     003D  1303               	bcf	3,6	;RP1=0, select bank0
   925     003E  1187               	bcf	7,3	;volatile
   926     003F                     i1l1050:
   927                           
   928                           ;prelablab7.c: 48:         cont0++;
   929     003F  3001               	movlw	1
   930     0040  07B5               	addwf	_cont0,f
   931     0041  1803               	skipnc
   932     0042  0AB6               	incf	_cont0+1,f
   933     0043  3000               	movlw	0
   934     0044  07B6               	addwf	_cont0+1,f
   935                           
   936                           ;prelablab7.c: 49:         TMR0 = 225;
   937     0045  30E1               	movlw	225
   938     0046  0081               	movwf	1	;volatile
   939     0047                     i1l1052:
   940                           
   941                           ;prelablab7.c: 50:         T0IF = 0;
   942     0047  110B               	bcf	11,2	;volatile
   943     0048                     i1l1054:
   944                           
   945                           ;prelablab7.c: 52:     if(PIR1bits.ADIF){
   946     0048  1F0C               	btfss	12,6	;volatile
   947     0049  284B               	goto	u45_21
   948     004A  284C               	goto	u45_20
   949     004B                     u45_21:
   950     004B  28D5               	goto	i1l79
   951     004C                     u45_20:
   952     004C                     i1l1056:
   953                           
   954                           ;prelablab7.c: 53:         if(ADCON0bits.CHS == 0b0000){
   955     004C  0C1F               	rrf	31,w	;volatile
   956     004D  00AE               	movwf	??_isr
   957     004E  0C2E               	rrf	??_isr,w
   958     004F  390F               	andlw	15
   959     0050  3A00               	xorlw	0
   960     0051  1D03               	skipz
   961     0052  2854               	goto	u46_21
   962     0053  2855               	goto	u46_20
   963     0054                     u46_21:
   964     0054  2879               	goto	i1l1062
   965     0055                     u46_20:
   966     0055                     i1l1058:
   967                           
   968                           ;prelablab7.c: 54:             y = mapear(ADRESH,0 ,500, 7, 25);
   969     0055  081E               	movf	30,w	;volatile
   970     0056  00AE               	movwf	??_isr
   971     0057  01AF               	clrf	??_isr+1
   972     0058  082E               	movf	??_isr,w
   973     0059  00A4               	movwf	mapear@valor
   974     005A  082F               	movf	??_isr+1,w
   975     005B  00A5               	movwf	mapear@valor+1
   976     005C  3000               	movlw	0
   977     005D  00A6               	movwf	mapear@rango_min
   978     005E  00A7               	movwf	mapear@rango_min+1
   979     005F  30F4               	movlw	244
   980     0060  00A8               	movwf	mapear@rango_max
   981     0061  3001               	movlw	1
   982     0062  00A9               	movwf	mapear@rango_max+1
   983     0063  3007               	movlw	7
   984     0064  00AA               	movwf	mapear@nuevo_min
   985     0065  3000               	movlw	0
   986     0066  00AB               	movwf	mapear@nuevo_min+1
   987     0067  3019               	movlw	25
   988     0068  00AC               	movwf	mapear@nuevo_max
   989     0069  3000               	movlw	0
   990     006A  00AD               	movwf	mapear@nuevo_max+1
   991     006B  120A  118A  2205  120A  118A  	fcall	_mapear
   992     0070  1283               	bcf	3,5	;RP0=0, select bank0
   993     0071  1303               	bcf	3,6	;RP1=0, select bank0
   994     0072  0825               	movf	?_mapear+1,w
   995     0073  00B8               	movwf	_y+1
   996     0074  0824               	movf	?_mapear,w
   997     0075  00B7               	movwf	_y
   998     0076                     i1l1060:
   999                           
  1000                           ;prelablab7.c: 55:             CCPR1L = y;
  1001     0076  0837               	movf	_y,w
  1002     0077  0095               	movwf	21	;volatile
  1003                           
  1004                           ;prelablab7.c: 58:         }else if(ADCON0bits.CHS == 0b0001){
  1005     0078  28D4               	goto	i1l1074
  1006     0079                     i1l1062:
  1007     0079  0C1F               	rrf	31,w	;volatile
  1008     007A  00AE               	movwf	??_isr
  1009     007B  0C2E               	rrf	??_isr,w
  1010     007C  390F               	andlw	15
  1011     007D  3A01               	xorlw	1
  1012     007E  1D03               	skipz
  1013     007F  2881               	goto	u47_21
  1014     0080  2882               	goto	u47_20
  1015     0081                     u47_21:
  1016     0081  28A6               	goto	i1l1068
  1017     0082                     u47_20:
  1018     0082                     i1l1064:
  1019                           
  1020                           ;prelablab7.c: 59:             y = mapear(ADRESH, 0, 500, 7, 25);
  1021     0082  081E               	movf	30,w	;volatile
  1022     0083  00AE               	movwf	??_isr
  1023     0084  01AF               	clrf	??_isr+1
  1024     0085  082E               	movf	??_isr,w
  1025     0086  00A4               	movwf	mapear@valor
  1026     0087  082F               	movf	??_isr+1,w
  1027     0088  00A5               	movwf	mapear@valor+1
  1028     0089  3000               	movlw	0
  1029     008A  00A6               	movwf	mapear@rango_min
  1030     008B  00A7               	movwf	mapear@rango_min+1
  1031     008C  30F4               	movlw	244
  1032     008D  00A8               	movwf	mapear@rango_max
  1033     008E  3001               	movlw	1
  1034     008F  00A9               	movwf	mapear@rango_max+1
  1035     0090  3007               	movlw	7
  1036     0091  00AA               	movwf	mapear@nuevo_min
  1037     0092  3000               	movlw	0
  1038     0093  00AB               	movwf	mapear@nuevo_min+1
  1039     0094  3019               	movlw	25
  1040     0095  00AC               	movwf	mapear@nuevo_max
  1041     0096  3000               	movlw	0
  1042     0097  00AD               	movwf	mapear@nuevo_max+1
  1043     0098  120A  118A  2205  120A  118A  	fcall	_mapear
  1044     009D  1283               	bcf	3,5	;RP0=0, select bank0
  1045     009E  1303               	bcf	3,6	;RP1=0, select bank0
  1046     009F  0825               	movf	?_mapear+1,w
  1047     00A0  00B8               	movwf	_y+1
  1048     00A1  0824               	movf	?_mapear,w
  1049     00A2  00B7               	movwf	_y
  1050     00A3                     i1l1066:
  1051                           
  1052                           ;prelablab7.c: 60:             CCPR2L = y;
  1053     00A3  0837               	movf	_y,w
  1054     00A4  009B               	movwf	27	;volatile
  1055                           
  1056                           ;prelablab7.c: 63:         }else if(ADCON0bits.CHS == 0b0010){
  1057     00A5  28D4               	goto	i1l1074
  1058     00A6                     i1l1068:
  1059     00A6  0C1F               	rrf	31,w	;volatile
  1060     00A7  00AE               	movwf	??_isr
  1061     00A8  0C2E               	rrf	??_isr,w
  1062     00A9  390F               	andlw	15
  1063     00AA  3A02               	xorlw	2
  1064     00AB  1D03               	skipz
  1065     00AC  28AE               	goto	u48_21
  1066     00AD  28AF               	goto	u48_20
  1067     00AE                     u48_21:
  1068     00AE  28D4               	goto	i1l1074
  1069     00AF                     u48_20:
  1070     00AF                     i1l1070:
  1071                           
  1072                           ;prelablab7.c: 64:             y = mapear(ADRESH, 0, 500, 1 ,20);
  1073     00AF  081E               	movf	30,w	;volatile
  1074     00B0  00AE               	movwf	??_isr
  1075     00B1  01AF               	clrf	??_isr+1
  1076     00B2  082E               	movf	??_isr,w
  1077     00B3  00A4               	movwf	mapear@valor
  1078     00B4  082F               	movf	??_isr+1,w
  1079     00B5  00A5               	movwf	mapear@valor+1
  1080     00B6  3000               	movlw	0
  1081     00B7  00A6               	movwf	mapear@rango_min
  1082     00B8  00A7               	movwf	mapear@rango_min+1
  1083     00B9  30F4               	movlw	244
  1084     00BA  00A8               	movwf	mapear@rango_max
  1085     00BB  3001               	movlw	1
  1086     00BC  00A9               	movwf	mapear@rango_max+1
  1087     00BD  3001               	movlw	1
  1088     00BE  00AA               	movwf	mapear@nuevo_min
  1089     00BF  3000               	movlw	0
  1090     00C0  00AB               	movwf	mapear@nuevo_min+1
  1091     00C1  3014               	movlw	20
  1092     00C2  00AC               	movwf	mapear@nuevo_max
  1093     00C3  3000               	movlw	0
  1094     00C4  00AD               	movwf	mapear@nuevo_max+1
  1095     00C5  120A  118A  2205  120A  118A  	fcall	_mapear
  1096     00CA  1283               	bcf	3,5	;RP0=0, select bank0
  1097     00CB  1303               	bcf	3,6	;RP1=0, select bank0
  1098     00CC  0825               	movf	?_mapear+1,w
  1099     00CD  00B8               	movwf	_y+1
  1100     00CE  0824               	movf	?_mapear,w
  1101     00CF  00B7               	movwf	_y
  1102     00D0                     i1l1072:
  1103                           
  1104                           ;prelablab7.c: 65:             manualPWM = y;
  1105     00D0  0838               	movf	_y+1,w
  1106     00D1  00B4               	movwf	_manualPWM+1
  1107     00D2  0837               	movf	_y,w
  1108     00D3  00B3               	movwf	_manualPWM
  1109     00D4                     i1l1074:
  1110                           
  1111                           ;prelablab7.c: 67:         PIR1bits.ADIF = 0;
  1112     00D4  130C               	bcf	12,6	;volatile
  1113     00D5                     i1l79:
  1114     00D5  0831               	movf	??_isr+3,w
  1115     00D6  008A               	movwf	10
  1116     00D7  0E30               	swapf	??_isr+2,w
  1117     00D8  0083               	movwf	3
  1118     00D9  0EFE               	swapf	btemp,f
  1119     00DA  0E7E               	swapf	btemp,w
  1120     00DB  0009               	retfie
  1121     00DC                     __end_of_isr:
  1122                           
  1123                           	psect	intentry
  1124     0004                     __pintentry:	
  1125                           ;incstack = 0
  1126                           ; Regs used in _isr: [wreg+status,2+status,0+pclath+cstack]
  1127                           
  1128     0004                     interrupt_function:
  1129     007E                     saved_w	set	btemp
  1130     0004  00FE               	movwf	btemp
  1131     0005  0E03               	swapf	3,w
  1132     0006  1283               	bcf	3,5	;RP0=0, select bank0
  1133     0007  1303               	bcf	3,6	;RP1=0, select bank0
  1134     0008  00B0               	movwf	??_isr+2
  1135     0009  080A               	movf	10,w
  1136     000A  00B1               	movwf	??_isr+3
  1137     000B  120A  118A  281D   	ljmp	_isr
  1138                           
  1139                           	psect	text3
  1140     0205                     __ptext3:	
  1141 ;; *************** function _mapear *****************
  1142 ;; Defined at:
  1143 ;;		line 94 in file "prelablab7.c"
  1144 ;; Parameters:    Size  Location     Type
  1145 ;;  valor           2    4[BANK0 ] int 
  1146 ;;  rango_min       2    6[BANK0 ] int 
  1147 ;;  rango_max       2    8[BANK0 ] int 
  1148 ;;  nuevo_min       2   10[BANK0 ] int 
  1149 ;;  nuevo_max       2   12[BANK0 ] int 
  1150 ;; Auto vars:     Size  Location     Type
  1151 ;;  nuevo_valor     2   11[COMMON] int 
  1152 ;; Return value:  Size  Location     Type
  1153 ;;                  2    4[BANK0 ] int 
  1154 ;; Registers used:
  1155 ;;		wreg, status,2, status,0, pclath, cstack
  1156 ;; Tracked objects:
  1157 ;;		On entry : 0/0
  1158 ;;		On exit  : 0/0
  1159 ;;		Unchanged: 0/0
  1160 ;; Data sizes:     COMMON   BANK0   BANK1   BANK3   BANK2
  1161 ;;      Params:         0      10       0       0       0
  1162 ;;      Locals:         2       0       0       0       0
  1163 ;;      Temps:          0       0       0       0       0
  1164 ;;      Totals:         2      10       0       0       0
  1165 ;;Total ram usage:       12 bytes
  1166 ;; Hardware stack levels used: 1
  1167 ;; Hardware stack levels required when called: 1
  1168 ;; This function calls:
  1169 ;;		___awdiv
  1170 ;;		___wmul
  1171 ;; This function is called by:
  1172 ;;		_isr
  1173 ;; This function uses a non-reentrant model
  1174 ;;
  1175                           
  1176     0205                     _mapear:	
  1177                           ;psect for function _mapear
  1178                           
  1179     0205                     i1l956:	
  1180                           ;incstack = 0
  1181                           ; Regs used in _mapear: [wreg+status,2+status,0+pclath+cstack]
  1182                           
  1183                           
  1184                           ;prelablab7.c: 95:     int nuevo_valor = nuevo_min + (valor - rango_min)*(nuevo_max - nu
      +                          evo_min)/(rango_max - rango_min);
  1185     0205  1283               	bcf	3,5	;RP0=0, select bank0
  1186     0206  1303               	bcf	3,6	;RP1=0, select bank0
  1187     0207  0826               	movf	mapear@rango_min,w
  1188     0208  0228               	subwf	mapear@rango_max,w
  1189     0209  00F6               	movwf	___awdiv@divisor
  1190     020A  0827               	movf	mapear@rango_min+1,w
  1191     020B  1C03               	skipc
  1192     020C  0A27               	incf	mapear@rango_min+1,w
  1193     020D  0229               	subwf	mapear@rango_max+1,w
  1194     020E  00F7               	movwf	___awdiv@divisor+1
  1195     020F  0826               	movf	mapear@rango_min,w
  1196     0210  0224               	subwf	mapear@valor,w
  1197     0211  00F0               	movwf	___wmul@multiplier
  1198     0212  0827               	movf	mapear@rango_min+1,w
  1199     0213  1C03               	skipc
  1200     0214  0A27               	incf	mapear@rango_min+1,w
  1201     0215  0225               	subwf	mapear@valor+1,w
  1202     0216  00F1               	movwf	___wmul@multiplier+1
  1203     0217  082A               	movf	mapear@nuevo_min,w
  1204     0218  022C               	subwf	mapear@nuevo_max,w
  1205     0219  00F2               	movwf	___wmul@multiplicand
  1206     021A  082B               	movf	mapear@nuevo_min+1,w
  1207     021B  1C03               	skipc
  1208     021C  0A2B               	incf	mapear@nuevo_min+1,w
  1209     021D  022D               	subwf	mapear@nuevo_max+1,w
  1210     021E  00F3               	movwf	___wmul@multiplicand+1
  1211     021F  120A  118A  223C  120A  118A  	fcall	___wmul
  1212     0224  0871               	movf	?___wmul+1,w
  1213     0225  00F9               	movwf	___awdiv@dividend+1
  1214     0226  0870               	movf	?___wmul,w
  1215     0227  00F8               	movwf	___awdiv@dividend
  1216     0228  120A  118A  20DC  120A  118A  	fcall	___awdiv
  1217     022D  1283               	bcf	3,5	;RP0=0, select bank0
  1218     022E  1303               	bcf	3,6	;RP1=0, select bank0
  1219     022F  082A               	movf	mapear@nuevo_min,w
  1220     0230  0776               	addwf	?___awdiv,w
  1221     0231  00FB               	movwf	mapear@nuevo_valor
  1222     0232  082B               	movf	mapear@nuevo_min+1,w
  1223     0233  1803               	skipnc
  1224     0234  0A2B               	incf	mapear@nuevo_min+1,w
  1225     0235  0777               	addwf	?___awdiv+1,w
  1226     0236  00FC               	movwf	mapear@nuevo_valor+1
  1227     0237                     i1l958:
  1228                           
  1229                           ;prelablab7.c: 96:     return nuevo_valor;
  1230     0237  087C               	movf	mapear@nuevo_valor+1,w
  1231     0238  00A5               	movwf	?_mapear+1
  1232     0239  087B               	movf	mapear@nuevo_valor,w
  1233     023A  00A4               	movwf	?_mapear
  1234     023B                     i1l96:
  1235     023B  0008               	return
  1236     023C                     __end_of_mapear:
  1237                           
  1238                           	psect	text4
  1239     023C                     __ptext4:	
  1240 ;; *************** function ___wmul *****************
  1241 ;; Defined at:
  1242 ;;		line 15 in file "C:\Program Files\Microchip\xc8\v2.40\pic\sources\c90\common\Umul16.c"
  1243 ;; Parameters:    Size  Location     Type
  1244 ;;  multiplier      2    0[COMMON] unsigned int 
  1245 ;;  multiplicand    2    2[COMMON] unsigned int 
  1246 ;; Auto vars:     Size  Location     Type
  1247 ;;  product         2    4[COMMON] unsigned int 
  1248 ;; Return value:  Size  Location     Type
  1249 ;;                  2    0[COMMON] unsigned int 
  1250 ;; Registers used:
  1251 ;;		wreg, status,2, status,0
  1252 ;; Tracked objects:
  1253 ;;		On entry : 0/0
  1254 ;;		On exit  : 0/0
  1255 ;;		Unchanged: 0/0
  1256 ;; Data sizes:     COMMON   BANK0   BANK1   BANK3   BANK2
  1257 ;;      Params:         4       0       0       0       0
  1258 ;;      Locals:         2       0       0       0       0
  1259 ;;      Temps:          0       0       0       0       0
  1260 ;;      Totals:         6       0       0       0       0
  1261 ;;Total ram usage:        6 bytes
  1262 ;; Hardware stack levels used: 1
  1263 ;; This function calls:
  1264 ;;		Nothing
  1265 ;; This function is called by:
  1266 ;;		_mapear
  1267 ;; This function uses a non-reentrant model
  1268 ;;
  1269                           
  1270     023C                     ___wmul:	
  1271                           ;psect for function ___wmul
  1272                           
  1273     023C                     i1l898:	
  1274                           ;incstack = 0
  1275                           ; Regs used in ___wmul: [wreg+status,2+status,0]
  1276                           
  1277     023C  01F4               	clrf	___wmul@product
  1278     023D  01F5               	clrf	___wmul@product+1
  1279     023E                     i1l900:
  1280     023E  1C70               	btfss	___wmul@multiplier,0
  1281     023F  2A41               	goto	u27_21
  1282     0240  2A42               	goto	u27_20
  1283     0241                     u27_21:
  1284     0241  2A48               	goto	i1l188
  1285     0242                     u27_20:
  1286     0242                     i1l902:
  1287     0242  0872               	movf	___wmul@multiplicand,w
  1288     0243  07F4               	addwf	___wmul@product,f
  1289     0244  1803               	skipnc
  1290     0245  0AF5               	incf	___wmul@product+1,f
  1291     0246  0873               	movf	___wmul@multiplicand+1,w
  1292     0247  07F5               	addwf	___wmul@product+1,f
  1293     0248                     i1l188:
  1294     0248  3001               	movlw	1
  1295     0249                     u28_25:
  1296     0249  1003               	clrc
  1297     024A  0DF2               	rlf	___wmul@multiplicand,f
  1298     024B  0DF3               	rlf	___wmul@multiplicand+1,f
  1299     024C  3EFF               	addlw	-1
  1300     024D  1D03               	skipz
  1301     024E  2A49               	goto	u28_25
  1302     024F                     i1l904:
  1303     024F  3001               	movlw	1
  1304     0250                     u29_25:
  1305     0250  1003               	clrc
  1306     0251  0CF1               	rrf	___wmul@multiplier+1,f
  1307     0252  0CF0               	rrf	___wmul@multiplier,f
  1308     0253  3EFF               	addlw	-1
  1309     0254  1D03               	skipz
  1310     0255  2A50               	goto	u29_25
  1311     0256                     i1l906:
  1312     0256  0870               	movf	___wmul@multiplier,w
  1313     0257  0471               	iorwf	___wmul@multiplier+1,w
  1314     0258  1D03               	btfss	3,2
  1315     0259  2A5B               	goto	u30_21
  1316     025A  2A5C               	goto	u30_20
  1317     025B                     u30_21:
  1318     025B  2A3E               	goto	i1l900
  1319     025C                     u30_20:
  1320     025C                     i1l908:
  1321     025C  0875               	movf	___wmul@product+1,w
  1322     025D  00F1               	movwf	?___wmul+1
  1323     025E  0874               	movf	___wmul@product,w
  1324     025F  00F0               	movwf	?___wmul
  1325     0260                     i1l190:
  1326     0260  0008               	return
  1327     0261                     __end_of___wmul:
  1328                           
  1329                           	psect	text5
  1330     00DC                     __ptext5:	
  1331 ;; *************** function ___awdiv *****************
  1332 ;; Defined at:
  1333 ;;		line 5 in file "C:\Program Files\Microchip\xc8\v2.40\pic\sources\c90\common\awdiv.c"
  1334 ;; Parameters:    Size  Location     Type
  1335 ;;  divisor         2    6[COMMON] int 
  1336 ;;  dividend        2    8[COMMON] int 
  1337 ;; Auto vars:     Size  Location     Type
  1338 ;;  quotient        2    2[BANK0 ] int 
  1339 ;;  sign            1    1[BANK0 ] unsigned char 
  1340 ;;  counter         1    0[BANK0 ] unsigned char 
  1341 ;; Return value:  Size  Location     Type
  1342 ;;                  2    6[COMMON] int 
  1343 ;; Registers used:
  1344 ;;		wreg, status,2, status,0
  1345 ;; Tracked objects:
  1346 ;;		On entry : 0/0
  1347 ;;		On exit  : 0/0
  1348 ;;		Unchanged: 0/0
  1349 ;; Data sizes:     COMMON   BANK0   BANK1   BANK3   BANK2
  1350 ;;      Params:         4       0       0       0       0
  1351 ;;      Locals:         0       4       0       0       0
  1352 ;;      Temps:          1       0       0       0       0
  1353 ;;      Totals:         5       4       0       0       0
  1354 ;;Total ram usage:        9 bytes
  1355 ;; Hardware stack levels used: 1
  1356 ;; This function calls:
  1357 ;;		Nothing
  1358 ;; This function is called by:
  1359 ;;		_mapear
  1360 ;; This function uses a non-reentrant model
  1361 ;;
  1362                           
  1363     00DC                     ___awdiv:	
  1364                           ;psect for function ___awdiv
  1365                           
  1366     00DC                     i1l912:	
  1367                           ;incstack = 0
  1368                           ; Regs used in ___awdiv: [wreg+status,2+status,0]
  1369                           
  1370     00DC  1283               	bcf	3,5	;RP0=0, select bank0
  1371     00DD  1303               	bcf	3,6	;RP1=0, select bank0
  1372     00DE  01A1               	clrf	___awdiv@sign
  1373     00DF                     i1l914:
  1374     00DF  1FF7               	btfss	___awdiv@divisor+1,7
  1375     00E0  28E2               	goto	u31_21
  1376     00E1  28E3               	goto	u31_20
  1377     00E2                     u31_21:
  1378     00E2  28EA               	goto	i1l920
  1379     00E3                     u31_20:
  1380     00E3                     i1l916:
  1381     00E3  09F6               	comf	___awdiv@divisor,f
  1382     00E4  09F7               	comf	___awdiv@divisor+1,f
  1383     00E5  0AF6               	incf	___awdiv@divisor,f
  1384     00E6  1903               	skipnz
  1385     00E7  0AF7               	incf	___awdiv@divisor+1,f
  1386     00E8                     i1l918:
  1387     00E8  01A1               	clrf	___awdiv@sign
  1388     00E9  0AA1               	incf	___awdiv@sign,f
  1389     00EA                     i1l920:
  1390     00EA  1FF9               	btfss	___awdiv@dividend+1,7
  1391     00EB  28ED               	goto	u32_21
  1392     00EC  28EE               	goto	u32_20
  1393     00ED                     u32_21:
  1394     00ED  28F7               	goto	i1l926
  1395     00EE                     u32_20:
  1396     00EE                     i1l922:
  1397     00EE  09F8               	comf	___awdiv@dividend,f
  1398     00EF  09F9               	comf	___awdiv@dividend+1,f
  1399     00F0  0AF8               	incf	___awdiv@dividend,f
  1400     00F1  1903               	skipnz
  1401     00F2  0AF9               	incf	___awdiv@dividend+1,f
  1402     00F3                     i1l924:
  1403     00F3  3001               	movlw	1
  1404     00F4  00FA               	movwf	??___awdiv
  1405     00F5  087A               	movf	??___awdiv,w
  1406     00F6  06A1               	xorwf	___awdiv@sign,f
  1407     00F7                     i1l926:
  1408     00F7  01A2               	clrf	___awdiv@quotient
  1409     00F8  01A3               	clrf	___awdiv@quotient+1
  1410     00F9                     i1l928:
  1411     00F9  0876               	movf	___awdiv@divisor,w
  1412     00FA  0477               	iorwf	___awdiv@divisor+1,w
  1413     00FB  1903               	btfsc	3,2
  1414     00FC  28FE               	goto	u33_21
  1415     00FD  28FF               	goto	u33_20
  1416     00FE                     u33_21:
  1417     00FE  2936               	goto	i1l948
  1418     00FF                     u33_20:
  1419     00FF                     i1l930:
  1420     00FF  01A0               	clrf	___awdiv@counter
  1421     0100  0AA0               	incf	___awdiv@counter,f
  1422     0101  290D               	goto	i1l936
  1423     0102                     i1l932:
  1424     0102  3001               	movlw	1
  1425     0103                     u34_25:
  1426     0103  1003               	clrc
  1427     0104  0DF6               	rlf	___awdiv@divisor,f
  1428     0105  0DF7               	rlf	___awdiv@divisor+1,f
  1429     0106  3EFF               	addlw	-1
  1430     0107  1D03               	skipz
  1431     0108  2903               	goto	u34_25
  1432     0109                     i1l934:
  1433     0109  3001               	movlw	1
  1434     010A  00FA               	movwf	??___awdiv
  1435     010B  087A               	movf	??___awdiv,w
  1436     010C  07A0               	addwf	___awdiv@counter,f
  1437     010D                     i1l936:
  1438     010D  1FF7               	btfss	___awdiv@divisor+1,7
  1439     010E  2910               	goto	u35_21
  1440     010F  2911               	goto	u35_20
  1441     0110                     u35_21:
  1442     0110  2902               	goto	i1l932
  1443     0111                     u35_20:
  1444     0111                     i1l938:
  1445     0111  3001               	movlw	1
  1446     0112                     u36_25:
  1447     0112  1003               	clrc
  1448     0113  0DA2               	rlf	___awdiv@quotient,f
  1449     0114  0DA3               	rlf	___awdiv@quotient+1,f
  1450     0115  3EFF               	addlw	-1
  1451     0116  1D03               	skipz
  1452     0117  2912               	goto	u36_25
  1453     0118  0877               	movf	___awdiv@divisor+1,w
  1454     0119  0279               	subwf	___awdiv@dividend+1,w
  1455     011A  1D03               	skipz
  1456     011B  291E               	goto	u37_25
  1457     011C  0876               	movf	___awdiv@divisor,w
  1458     011D  0278               	subwf	___awdiv@dividend,w
  1459     011E                     u37_25:
  1460     011E  1C03               	skipc
  1461     011F  2921               	goto	u37_21
  1462     0120  2922               	goto	u37_20
  1463     0121                     u37_21:
  1464     0121  2929               	goto	i1l944
  1465     0122                     u37_20:
  1466     0122                     i1l940:
  1467     0122  0876               	movf	___awdiv@divisor,w
  1468     0123  02F8               	subwf	___awdiv@dividend,f
  1469     0124  0877               	movf	___awdiv@divisor+1,w
  1470     0125  1C03               	skipc
  1471     0126  03F9               	decf	___awdiv@dividend+1,f
  1472     0127  02F9               	subwf	___awdiv@dividend+1,f
  1473     0128                     i1l942:
  1474     0128  1422               	bsf	___awdiv@quotient,0
  1475     0129                     i1l944:
  1476     0129  3001               	movlw	1
  1477     012A                     u38_25:
  1478     012A  1003               	clrc
  1479     012B  0CF7               	rrf	___awdiv@divisor+1,f
  1480     012C  0CF6               	rrf	___awdiv@divisor,f
  1481     012D  3EFF               	addlw	-1
  1482     012E  1D03               	skipz
  1483     012F  292A               	goto	u38_25
  1484     0130                     i1l946:
  1485     0130  3001               	movlw	1
  1486     0131  02A0               	subwf	___awdiv@counter,f
  1487     0132  1D03               	btfss	3,2
  1488     0133  2935               	goto	u39_21
  1489     0134  2936               	goto	u39_20
  1490     0135                     u39_21:
  1491     0135  2911               	goto	i1l938
  1492     0136                     u39_20:
  1493     0136                     i1l948:
  1494     0136  0821               	movf	___awdiv@sign,w
  1495     0137  1903               	btfsc	3,2
  1496     0138  293A               	goto	u40_21
  1497     0139  293B               	goto	u40_20
  1498     013A                     u40_21:
  1499     013A  2940               	goto	i1l952
  1500     013B                     u40_20:
  1501     013B                     i1l950:
  1502     013B  09A2               	comf	___awdiv@quotient,f
  1503     013C  09A3               	comf	___awdiv@quotient+1,f
  1504     013D  0AA2               	incf	___awdiv@quotient,f
  1505     013E  1903               	skipnz
  1506     013F  0AA3               	incf	___awdiv@quotient+1,f
  1507     0140                     i1l952:
  1508     0140  0823               	movf	___awdiv@quotient+1,w
  1509     0141  00F7               	movwf	?___awdiv+1
  1510     0142  0822               	movf	___awdiv@quotient,w
  1511     0143  00F6               	movwf	?___awdiv
  1512     0144                     i1l341:
  1513     0144  0008               	return
  1514     0145                     __end_of___awdiv:
  1515     007E                     btemp	set	126	;btemp
  1516     007E                     wtemp0	set	126
  1517                           
  1518                           	psect	idloc
  1519                           
  1520                           ;Config register IDLOC0 @ 0x2000
  1521                           ;	unspecified, using default values
  1522     2000                     	org	8192
  1523     2000  3FFF               	dw	16383
  1524                           
  1525                           ;Config register IDLOC1 @ 0x2001
  1526                           ;	unspecified, using default values
  1527     2001                     	org	8193
  1528     2001  3FFF               	dw	16383
  1529                           
  1530                           ;Config register IDLOC2 @ 0x2002
  1531                           ;	unspecified, using default values
  1532     2002                     	org	8194
  1533     2002  3FFF               	dw	16383
  1534                           
  1535                           ;Config register IDLOC3 @ 0x2003
  1536                           ;	unspecified, using default values
  1537     2003                     	org	8195
  1538     2003  3FFF               	dw	16383
  1539                           
  1540                           	psect	config
  1541                           
  1542                           ;Config register CONFIG1 @ 0x2007
  1543                           ;	Oscillator Selection bits
  1544                           ;	FOSC = INTRC_NOCLKOUT, INTOSCIO oscillator: I/O function on RA6/OSC2/CLKOUT pin, I/O f
      +                          unction on RA7/OSC1/CLKIN
  1545                           ;	Watchdog Timer Enable bit
  1546                           ;	WDTE = OFF, WDT disabled and can be enabled by SWDTEN bit of the WDTCON register
  1547                           ;	Power-up Timer Enable bit
  1548                           ;	PWRTE = OFF, PWRT disabled
  1549                           ;	RE3/MCLR pin function select bit
  1550                           ;	MCLRE = OFF, RE3/MCLR pin function is digital input, MCLR internally tied to VDD
  1551                           ;	Code Protection bit
  1552                           ;	CP = OFF, Program memory code protection is disabled
  1553                           ;	Data Code Protection bit
  1554                           ;	CPD = OFF, Data memory code protection is disabled
  1555                           ;	Brown Out Reset Selection bits
  1556                           ;	BOREN = OFF, BOR disabled
  1557                           ;	Internal External Switchover bit
  1558                           ;	IESO = OFF, Internal/External Switchover mode is disabled
  1559                           ;	Fail-Safe Clock Monitor Enabled bit
  1560                           ;	FCMEN = OFF, Fail-Safe Clock Monitor is disabled
  1561                           ;	Low Voltage Programming Enable bit
  1562                           ;	LVP = OFF, RB3 pin has digital I/O, HV on MCLR must be used for programming
  1563                           ;	In-Circuit Debugger Mode bit
  1564                           ;	DEBUG = 0x1, unprogramme  1565     2007                     	org	8199
  1566     2007  20D4               	dw	8404
  1567                           
  1568                           ;Config register CONFIG2 @ 0x2008
  1569                           ;	Brown-out Reset Selection bit
  1570                           ;	BOR4V = BOR40V, Brown-out Reset set to 4.0V
  1571                           ;	Flash Program Memory Self Write Enable bits
  1572                           ;	WRT = OFF, Write protection off
  1573     2008                     	org	8200
  1574     2008  3FFF               	dw	16383

Data Sizes:
    Strings     0
    Constant    0
    Data        0
    BSS         6
    Persistent  0
    Stack       0

Auto Spaces:
    Space          Size  Autos    Used
    COMMON           14     13      13
    BANK0            80     19      25
    BANK1            80      0       0
    BANK3            96      0       0
    BANK2            96      0       0

Pointer List with Targets:

    None.

Critical Paths under _main in COMMON

    None.

Critical Paths under _isr in COMMON

    _isr->_mapear
    _mapear->___awdiv
    ___awdiv->___wmul

Critical Paths under _main in BANK0

    None.

Critical Paths under _isr in BANK0

    _isr->_mapear
    _mapear->___awdiv

Critical Paths under _main in BANK1

    None.

Critical Paths under _isr in BANK1

    None.

Critical Paths under _main in BANK3

    None.

Critical Paths under _isr in BANK3

    None.

Critical Paths under _main in BANK2

    None.

Critical Paths under _isr in BANK2

    None.

Call Graph Tables:

 ---------------------------------------------------------------------------------
 (Depth) Function   	        Calls       Base Space   Used Autos Params    Refs
 ---------------------------------------------------------------------------------
 (0) _main                                                 1     1      0       0
                                             18 BANK0      1     1      0
                              _setup
 ---------------------------------------------------------------------------------
 (1) _setup                                                0     0      0       0
 ---------------------------------------------------------------------------------
 Estimated maximum stack depth 1
 ---------------------------------------------------------------------------------
 (Depth) Function   	        Calls       Base Space   Used Autos Params    Refs
 ---------------------------------------------------------------------------------
 (2) _isr                                                  4     4      0    2013
                                             14 BANK0      4     4      0
                             _mapear
 ---------------------------------------------------------------------------------
 (3) _mapear                                              12     2     10    2013
                                             11 COMMON     2     2      0
                                              4 BANK0     10     0     10
                            ___awdiv
                             ___wmul
 ---------------------------------------------------------------------------------
 (4) ___wmul                                               6     2      4     244
                                              0 COMMON     6     2      4
 ---------------------------------------------------------------------------------
 (4) ___awdiv                                              9     5      4     452
                                              6 COMMON     5     1      4
                                              0 BANK0      4     4      0
                             ___wmul (ARG)
 ---------------------------------------------------------------------------------
 Estimated maximum stack depth 4
 ---------------------------------------------------------------------------------

 Call Graph Graphs:

 _main (ROOT)
   _setup

 _isr (ROOT)
   _mapear
     ___awdiv
       ___wmul (ARG)
     ___wmul

 Address spaces:
Name               Size   Autos  Total    Cost      Usage
BITCOMMON            E      0       0       0        0.0%
EEDATA             100      0       0       0        0.0%
NULL                 0      0       0       0        0.0%
CODE                 0      0       0       0        0.0%
COMMON               E      D       D       1       92.9%
BITSFR0              0      0       0       1        0.0%
SFR0                 0      0       0       1        0.0%
BITSFR1              0      0       0       2        0.0%
SFR1                 0      0       0       2        0.0%
STACK                0      0       0       2        0.0%
ABS                  0      0      26       3        0.0%
BITBANK0            50      0       0       4        0.0%
BITSFR3              0      0       0       4        0.0%
SFR3                 0      0       0       4        0.0%
BANK0               50     13      19       5       31.2%
BITSFR2              0      0       0       5        0.0%
SFR2                 0      0       0       5        0.0%
BITBANK1            50      0       0       6        0.0%
BANK1               50      0       0       7        0.0%
BITBANK3            60      0       0       8        0.0%
BANK3               60      0       0       9        0.0%
BITBANK2            60      0       0      10        0.0%
BANK2               60      0       0      11        0.0%
DATA                 0      0      26      12        0.0%


Microchip Technology PIC Macro Assembler V2.40 build 20220703182018 
Symbol Table                                                                                   Wed Apr 05 13:12:27 2023

                      _y 0037                       l99 019C             ___awdiv@sign 0021  
    ___wmul@multiplicand 0072          mapear@nuevo_max 002C          mapear@nuevo_min 002A  
                    l101 01A0                      l102 01A5                      l970 0158  
                    l962 0145                      l980 015D                      l972 0159  
                    l964 0149                      l990 016A                      l982 0161  
                    l974 015A                      l966 014A                      l992 0170  
                    l984 0165                      l976 015B                      l968 0155  
                    l994 0172                      l986 0168                      l978 015C  
                    l996 0173                      l988 0169                      l998 0176  
                    u410 01A0                      u411 019F                      u500 01CE  
                    u501 01CD                      u510 01E6                      _PR2 0092  
                    u511 01E5                      u520 01F6                      u521 01F5  
                    u537 01BA                      u490 01B6                      u547 01D2  
                    u491 01B5                      u557 01EA                      u567 01FA  
                    _isr 001D                     l1000 0179                     l1010 0180  
                   l1002 017C                     l1020 018C                     l1012 0181  
                   l1004 017D                     l1100 01FE                     l1030 0196  
                   l1022 0190                     l1014 0182                     l1006 017E  
                   l1032 0197                     l1024 0192                     l1016 0184  
                   l1008 017F                     l1034 0198                     l1026 0194  
                   l1018 0188                     l1036 0199                     l1028 0195  
                   l1038 019B                     l1080 01B6                     l1090 01DD  
                   l1082 01BE                     l1092 01E6                     l1084 01C5  
                   l1076 01A6                     l1094 01EE                     l1086 01CE  
                   l1078 01AB                     l1088 01D6                     l1096 01F2  
                   l1098 01F6                     ?_isr 0070                     _T0IF 005A  
                   i1l71 003C                     i1l79 00D5                     i1l96 023B  
                   _TMR0 0001                     _main 01A6                     btemp 007E  
                   start 000E        mapear@nuevo_valor 007B                    ??_isr 002E  
                  ?_main 0070          __end_of___awdiv 0145                    _ANSEL 0188  
        ___awdiv@divisor 0076                    i1l341 0144                    i1l190 0260  
                  i1l188 0248                    i1l900 023E                    i1l902 0242  
                  i1l920 00EA                    i1l912 00DC                    i1l904 024F  
                  i1l930 00FF                    i1l922 00EE                    i1l914 00DF  
                  i1l906 0256                    i1l940 0122                    i1l932 0102  
                  i1l924 00F3                    i1l916 00E3                    i1l908 025C  
                  i1l950 013B                    i1l942 0128                    i1l934 0109  
                  i1l926 00F7                    i1l918 00E8                    i1l952 0140  
                  i1l944 0129                    i1l936 010D                    i1l928 00F9  
                  i1l946 0130                    i1l938 0111                    i1l948 0136  
                  i1l956 0205                    i1l958 0237                    i1l898 023C  
        ___awdiv@counter 0020                    u30_20 025C                    u30_21 025B  
                  u31_20 00E3                    u31_21 00E2                    u40_20 013B  
                  u32_20 00EE                    u40_21 013A                    u32_21 00ED  
                  u33_20 00FF                    u33_21 00FE                    u42_20 0021  
                  u42_21 0020                    u34_25 0103                    u35_20 0111  
                  u27_20 0242                    u43_20 0028                    u35_21 0110  
                  u27_21 0241                    u43_21 0027                    _PORTA 0005  
                  _PORTB 0006                    _PORTC 0007                    u44_20 0038  
                  u44_21 0037                    u36_25 0112                    u28_25 0249  
                  u44_25 0034                    u37_20 0122                    u45_20 004C  
                  u37_21 0121                    u45_21 004B                    u37_25 011E  
                  u29_25 0250                    u46_20 0055                    u46_21 0054  
                  u38_25 012A                    u39_20 0136                    u47_20 0082  
                  u39_21 0135                    u47_21 0081                    u48_20 00AF  
                  u48_21 00AE                    _TRISA 0085                    _TRISB 0086  
                  _TRISC 0087                    _cont0 0035                    _setup 0145  
                  pclath 000A                    status 0003                    wtemp0 007E  
            mapear@valor 0024          __initialization 0011             __end_of_main 0205  
                 ??_main 0032                   _ADRESH 001E                   _CCPR1L 0015  
                 _CCPR2L 001B         ___awdiv@dividend 0078                   ?_setup 0070  
                 _ANSELH 0189                   i1l1040 001D                   i1l1050 003F  
                 i1l1042 0021                   i1l1060 0076                   i1l1052 0047  
                 i1l1044 0028                   i1l1070 00AF                   i1l1062 0079  
                 i1l1046 002A                   i1l1054 0048                   i1l1072 00D0  
                 i1l1064 0082                   i1l1056 004C                   i1l1048 0038  
                 i1l1066 00A3                   i1l1074 00D4                   i1l1058 0055  
                 i1l1068 00A6                   ___wmul 023C                ??___awdiv 007A  
                 _mapear 0205         ___awdiv@quotient 0022                   saved_w 007E  
__end_of__initialization 0019           __pcstackCOMMON 0070            __end_of_setup 01A6  
         _OPTION_REGbits 0081                  ??_setup 0032               __pbssBANK0 0033  
             __pmaintext 01A6                  ?___wmul 0070               __pintentry 0004  
                ?_mapear 0024                  ___awdiv 00DC                  __ptext1 0145  
                __ptext2 001D                  __ptext3 0205                  __ptext4 023C  
                __ptext5 00DC                _T2CONbits 0012     end_of_initialization 0019  
              _PORTCbits 0007                _TRISCbits 0087              _CCP1CONbits 0017  
            _CCP2CONbits 001D           __end_of___wmul 0261           __end_of_mapear 023C  
    start_initialization 0011              __end_of_isr 00DC                 ??___wmul 0074  
               ??_mapear 007B                ___latbits 0002            __pcstackBANK0 0020  
               ?___awdiv 0076                _manualPWM 0033        interrupt_function 0004  
         ___wmul@product 0074                 _PIE1bits 008C                 _PIR1bits 000C  
             _ADCON0bits 001F               _ADCON1bits 009F        ___wmul@multiplier 0070  
             _INTCONbits 000B                 intlevel1 0000               _OSCCONbits 008F  
        mapear@rango_max 0028          mapear@rango_min 0026  
