

Microchip MPLAB XC8 Assembler V2.40 build 20220703182018 
                                                                                               Thu Apr 13 00:14:33 2023

Microchip MPLAB XC8 C Compiler v2.40 (Free license) build 20220703182018 Og1 
     1                           	processor	16F887
     2                           	pagewidth 120
     3                           	opt	flic
     4                           	psect	cinit,global,class=CODE,merge=1,delta=2
     5                           	psect	bssBANK0,global,class=BANK0,space=1,delta=1,noexec
     6                           	psect	bssBANK1,global,class=BANK1,space=1,delta=1,noexec
     7                           	psect	cstackBANK3,global,class=BANK3,space=1,delta=1,noexec
     8                           	psect	cstackBANK1,global,class=BANK1,space=1,delta=1,noexec
     9                           	psect	cstackCOMMON,global,class=COMMON,space=1,delta=1,noexec
    10                           	psect	cstackBANK0,global,class=BANK0,space=1,delta=1,noexec
    11                           	psect	maintext,global,class=CODE,split=1,delta=2
    12                           	psect	text1,local,class=CODE,merge=1,delta=2
    13                           	psect	text2,local,class=CODE,merge=1,delta=2
    14                           	psect	text3,local,class=CODE,merge=1,delta=2,group=1
    15                           	psect	text4,local,class=CODE,merge=1,delta=2,group=1
    16                           	psect	text5,local,class=CODE,merge=1,delta=2,group=1
    17                           	psect	text6,local,class=CODE,merge=1,delta=2,group=1
    18                           	psect	text7,local,class=CODE,merge=1,delta=2,group=1
    19                           	psect	text8,local,class=CODE,merge=1,delta=2
    20                           	psect	intentry,global,class=CODE,delta=2
    21                           	psect	text9,local,class=CODE,merge=1,delta=2
    22                           	psect	text10,local,class=CODE,merge=1,delta=2,group=1
    23                           	psect	text11,local,class=CODE,merge=1,delta=2,group=1
    24                           	psect	text12,local,class=CODE,merge=1,delta=2,group=1
    25                           	psect	text13,local,class=CODE,merge=1,delta=2
    26                           	psect	text14,local,class=CODE,merge=1,delta=2
    27                           	psect	text15,local,class=CODE,merge=1,delta=2
    28                           	psect	text16,local,class=CODE,merge=1,delta=2
    29                           	psect	text17,local,class=CODE,merge=1,delta=2
    30                           	psect	text18,local,class=CODE,merge=1,delta=2
    31                           	psect	idloc,global,abs,ovrld,class=IDLOC,space=5,delta=2,noexec
    32                           	psect	config,global,abs,ovrld,class=CONFIG,space=4,delta=2,noexec
    33                           	dabs	1,0x7E,2
    34     0000                     
    35                           ; Version 2.40
    36                           ; Generated 17/11/2021 GMT
    37                           ; 
    38                           ; Copyright © 2021, Microchip Technology Inc. and its subsidiaries ("Microchip")
    39                           ; All rights reserved.
    40                           ; 
    41                           ; This software is developed by Microchip Technology Inc. and its subsidiaries ("Microch
      +                          ip").
    42                           ; 
    43                           ; Redistribution and use in source and binary forms, with or without modification, are
    44                           ; permitted provided that the following conditions are met:
    45                           ; 
    46                           ;     1. Redistributions of source code must retain the above copyright notice, this lis
      +                          t of
    47                           ;        conditions and the following disclaimer.
    48                           ; 
    49                           ;     2. Redistributions in binary form must reproduce the above copyright notice, this 
      +                          list
    50                           ;        of conditions and the following disclaimer in the documentation and/or other
    51                           ;        materials provided with the distribution. Publication is not required when
    52                           ;        this file is used in an embedded application.
    53                           ; 
    54                           ;     3. Microchip's name may not be used to endorse or promote products derived from th
      +                          is
    55                           ;        software without specific prior written permission.
    56                           ; 
    57                           ; THIS SOFTWARE IS PROVIDED BY MICROCHIP "AS IS" AND ANY EXPRESS OR IMPLIED WARRANTIES,
    58                           ; INCLUDING, BUT NOT LIMITED TO, THE IMPLIED WARRANTIES OF MERCHANTABILITY AND FITNESS F
      +                          OR
    59                           ; PURPOSE ARE DISCLAIMED.  IN NO EVENT SHALL MICROCHIP BE LIABLE FOR ANY DIRECT, INDIREC
      +                          T,
    60                           ; INCIDENTAL, SPECIAL, EXEMPLARY, OR CONSEQUENTIAL DAMAGES (INCLUDING BUT NOT LIMITED TO
    61                           ; PROCUREMENT OF SUBSTITUTE GOODS OR SERVICES; LOSS OF USE, DATA OR PROFITS; OR BUSINESS
    62                           ; INTERRUPTION) HOWSOEVER CAUSED AND ON ANY THEORY OF LIABILITY, WHETHER IN CONTRACT, ST
      +                          RICT
    63                           ; LIABILITY, OR TORT (INCLUDING NEGLIGENCE OR OTHERWISE) ARISING IN ANY WAY OUT OF THE U
      +                          SE OF
    64                           ; THIS SOFTWARE, EVEN IF ADVISED OF THE POSSIBILITY OF SUCH DAMAGE.
    65                           ; 
    66                           ; 
    67                           ; Code-generator required, PIC16F887 Definitions
    68                           ; 
    69                           ; SFR Addresses
    70     0000                     	;# 
    71     0001                     	;# 
    72     0002                     	;# 
    73     0003                     	;# 
    74     0004                     	;# 
    75     0005                     	;# 
    76     0006                     	;# 
    77     0007                     	;# 
    78     0008                     	;# 
    79     0009                     	;# 
    80     000A                     	;# 
    81     000B                     	;# 
    82     000C                     	;# 
    83     000D                     	;# 
    84     000E                     	;# 
    85     000E                     	;# 
    86     000F                     	;# 
    87     0010                     	;# 
    88     0011                     	;# 
    89     0012                     	;# 
    90     0013                     	;# 
    91     0014                     	;# 
    92     0015                     	;# 
    93     0015                     	;# 
    94     0016                     	;# 
    95     0017                     	;# 
    96     0018                     	;# 
    97     0019                     	;# 
    98     001A                     	;# 
    99     001B                     	;# 
   100     001B                     	;# 
   101     001C                     	;# 
   102     001D                     	;# 
   103     001E                     	;# 
   104     001F                     	;# 
   105     0081                     	;# 
   106     0085                     	;# 
   107     0086                     	;# 
   108     0087                     	;# 
   109     0088                     	;# 
   110     0089                     	;# 
   111     008C                     	;# 
   112     008D                     	;# 
   113     008E                     	;# 
   114     008F                     	;# 
   115     0090                     	;# 
   116     0091                     	;# 
   117     0092                     	;# 
   118     0093                     	;# 
   119     0093                     	;# 
   120     0093                     	;# 
   121     0094                     	;# 
   122     0095                     	;# 
   123     0096                     	;# 
   124     0097                     	;# 
   125     0098                     	;# 
   126     0099                     	;# 
   127     009A                     	;# 
   128     009B                     	;# 
   129     009C                     	;# 
   130     009D                     	;# 
   131     009E                     	;# 
   132     009F                     	;# 
   133     0105                     	;# 
   134     0107                     	;# 
   135     0108                     	;# 
   136     0109                     	;# 
   137     010C                     	;# 
   138     010C                     	;# 
   139     010D                     	;# 
   140     010E                     	;# 
   141     010F                     	;# 
   142     0185                     	;# 
   143     0187                     	;# 
   144     0188                     	;# 
   145     0189                     	;# 
   146     018C                     	;# 
   147     018D                     	;# 
   148     0000                     	;# 
   149     0001                     	;# 
   150     0002                     	;# 
   151     0003                     	;# 
   152     0004                     	;# 
   153     0005                     	;# 
   154     0006                     	;# 
   155     0007                     	;# 
   156     0008                     	;# 
   157     0009                     	;# 
   158     000A                     	;# 
   159     000B                     	;# 
   160     000C                     	;# 
   161     000D                     	;# 
   162     000E                     	;# 
   163     000E                     	;# 
   164     000F                     	;# 
   165     0010                     	;# 
   166     0011                     	;# 
   167     0012                     	;# 
   168     0013                     	;# 
   169     0014                     	;# 
   170     0015                     	;# 
   171     0015                     	;# 
   172     0016                     	;# 
   173     0017                     	;# 
   174     0018                     	;# 
   175     0019                     	;# 
   176     001A                     	;# 
   177     001B                     	;# 
   178     001B                     	;# 
   179     001C                     	;# 
   180     001D                     	;# 
   181     001E                     	;# 
   182     001F                     	;# 
   183     0081                     	;# 
   184     0085                     	;# 
   185     0086                     	;# 
   186     0087                     	;# 
   187     0088                     	;# 
   188     0089                     	;# 
   189     008C                     	;# 
   190     008D                     	;# 
   191     008E                     	;# 
   192     008F                     	;# 
   193     0090                     	;# 
   194     0091                     	;# 
   195     0092                     	;# 
   196     0093                     	;# 
   197     0093                     	;# 
   198     0093                     	;# 
   199     0094                     	;# 
   200     0095                     	;# 
   201     0096                     	;# 
   202     0097                     	;# 
   203     0098                     	;# 
   204     0099                     	;# 
   205     009A                     	;# 
   206     009B                     	;# 
   207     009C                     	;# 
   208     009D                     	;# 
   209     009E                     	;# 
   210     009F                     	;# 
   211     0105                     	;# 
   212     0107                     	;# 
   213     0108                     	;# 
   214     0109                     	;# 
   215     010C                     	;# 
   216     010C                     	;# 
   217     010D                     	;# 
   218     010E                     	;# 
   219     010F                     	;# 
   220     0185                     	;# 
   221     0187                     	;# 
   222     0188                     	;# 
   223     0189                     	;# 
   224     018C                     	;# 
   225     018D                     	;# 
   226     0000                     	;# 
   227     0001                     	;# 
   228     0002                     	;# 
   229     0003                     	;# 
   230     0004                     	;# 
   231     0005                     	;# 
   232     0006                     	;# 
   233     0007                     	;# 
   234     0008                     	;# 
   235     0009                     	;# 
   236     000A                     	;# 
   237     000B                     	;# 
   238     000C                     	;# 
   239     000D                     	;# 
   240     000E                     	;# 
   241     000E                     	;# 
   242     000F                     	;# 
   243     0010                     	;# 
   244     0011                     	;# 
   245     0012                     	;# 
   246     0013                     	;# 
   247     0014                     	;# 
   248     0015                     	;# 
   249     0015                     	;# 
   250     0016                     	;# 
   251     0017                     	;# 
   252     0018                     	;# 
   253     0019                     	;# 
   254     001A                     	;# 
   255     001B                     	;# 
   256     001B                     	;# 
   257     001C                     	;# 
   258     001D                     	;# 
   259     001E                     	;# 
   260     001F                     	;# 
   261     0081                     	;# 
   262     0085                     	;# 
   263     0086                     	;# 
   264     0087                     	;# 
   265     0088                     	;# 
   266     0089                     	;# 
   267     008C                     	;# 
   268     008D                     	;# 
   269     008E                     	;# 
   270     008F                     	;# 
   271     0090                     	;# 
   272     0091                     	;# 
   273     0092                     	;# 
   274     0093                     	;# 
   275     0093                     	;# 
   276     0093                     	;# 
   277     0094                     	;# 
   278     0095                     	;# 
   279     0096                     	;# 
   280     0097                     	;# 
   281     0098                     	;# 
   282     0099                     	;# 
   283     009A                     	;# 
   284     009B                     	;# 
   285     009C                     	;# 
   286     009D                     	;# 
   287     009E                     	;# 
   288     009F                     	;# 
   289     0105                     	;# 
   290     0107                     	;# 
   291     0108                     	;# 
   292     0109                     	;# 
   293     010C                     	;# 
   294     010C                     	;# 
   295     010D                     	;# 
   296     010E                     	;# 
   297     010F                     	;# 
   298     0185                     	;# 
   299     0187                     	;# 
   300     0188                     	;# 
   301     0189                     	;# 
   302     018C                     	;# 
   303     018D                     	;# 
   304     001B                     _CCPR2L	set	27
   305     0015                     _CCPR1L	set	21
   306     001D                     _CCP2CONbits	set	29
   307     001D                     _CCP2CON	set	29
   308     0017                     _CCP1CONbits	set	23
   309     0017                     _CCP1CON	set	23
   310     0012                     _T2CONbits	set	18
   311     000B                     _INTCONbits	set	11
   312     0007                     _PORTC	set	7
   313     0006                     _PORTB	set	6
   314     0005                     _PORTA	set	5
   315     001E                     _ADRESH	set	30
   316     001F                     _ADCON0bits	set	31
   317     000C                     _PIR1bits	set	12
   318     0001                     _TMR0	set	1
   319     0007                     _PORTCbits	set	7
   320     005A                     _T0IF	set	90
   321     0087                     _TRISCbits	set	135
   322     0092                     _PR2	set	146
   323     008C                     _PIE1bits	set	140
   324     009F                     _ADCON1bits	set	159
   325     0081                     _OPTION_REGbits	set	129
   326     008F                     _OSCCONbits	set	143
   327     0086                     _TRISB	set	134
   328     0087                     _TRISC	set	135
   329     0085                     _TRISA	set	133
   330     0189                     _ANSELH	set	393
   331     0188                     _ANSEL	set	392
   332                           
   333                           	psect	cinit
   334     0013                     start_initialization:	
   335                           ; #config settings
   336                           
   337     0013                     __initialization:
   338                           
   339                           ; Clear objects allocated to BANK0
   340     0013  1283               	bcf	3,5	;RP0=0, select bank0
   341     0014  1303               	bcf	3,6	;RP1=0, select bank0
   342     0015  01EE               	clrf	__pbssBANK0& (0+127)
   343     0016  01EF               	clrf	(__pbssBANK0+1)& (0+127)
   344                           
   345                           ; Clear objects allocated to BANK1
   346     0017  1683               	bsf	3,5	;RP0=1, select bank1
   347     0018  1303               	bcf	3,6	;RP1=0, select bank1
   348     0019  01DE               	clrf	__pbssBANK1& (0+127)
   349     001A  01DF               	clrf	(__pbssBANK1+1)& (0+127)
   350     001B  01E0               	clrf	(__pbssBANK1+2)& (0+127)
   351     001C  01E1               	clrf	(__pbssBANK1+3)& (0+127)
   352     001D                     end_of_initialization:	
   353                           ;End of C runtime variable initialization code
   354                           
   355     001D                     __end_of__initialization:
   356     001D  0183               	clrf	3
   357     001E  160A  118A  2B75   	ljmp	_main	;jump to C main() function
   358                           
   359                           	psect	bssBANK0
   360     006E                     __pbssBANK0:
   361     006E                     _cont0:
   362     006E                     	ds	2
   363                           
   364                           	psect	bssBANK1
   365     00DE                     __pbssBANK1:
   366     00DE                     _manualPWM:
   367     00DE                     	ds	2
   368     00E0                     _y:
   369     00E0                     	ds	2
   370                           
   371                           	psect	cstackBANK3
   372     0190                     __pcstackBANK3:
   373     0190                     ___fldiv@rem:
   374                           
   375                           ; 4 bytes @ 0x0
   376     0190                     	ds	4
   377     0194                     ___fldiv@sign:
   378                           
   379                           ; 1 bytes @ 0x4
   380     0194                     	ds	1
   381     0195                     ___fldiv@new_exp:
   382                           
   383                           ; 2 bytes @ 0x5
   384     0195                     	ds	2
   385     0197                     ___fldiv@grs:
   386                           
   387                           ; 4 bytes @ 0x7
   388     0197                     	ds	4
   389     019B                     ___fldiv@bexp:
   390                           
   391                           ; 1 bytes @ 0xB
   392     019B                     	ds	1
   393     019C                     ___fldiv@aexp:
   394                           
   395                           ; 1 bytes @ 0xC
   396     019C                     	ds	1
   397     019D                     ?___fladd:
   398     019D                     ___fladd@b:	
   399                           ; 4 bytes @ 0xD
   400                           
   401                           
   402                           ; 4 bytes @ 0xD
   403     019D                     	ds	4
   404     01A1                     ___fladd@a:
   405                           
   406                           ; 4 bytes @ 0x11
   407     01A1                     	ds	4
   408     01A5                     ??___fladd:
   409                           
   410                           ; 1 bytes @ 0x15
   411     01A5                     	ds	8
   412     01AD                     ___fladd@signs:
   413                           
   414                           ; 1 bytes @ 0x1D
   415     01AD                     	ds	1
   416     01AE                     ___fladd@aexp:
   417                           
   418                           ; 1 bytes @ 0x1E
   419     01AE                     	ds	1
   420     01AF                     ___fladd@bexp:
   421                           
   422                           ; 1 bytes @ 0x1F
   423     01AF                     	ds	1
   424     01B0                     ___fladd@grs:
   425                           
   426                           ; 1 bytes @ 0x20
   427     01B0                     	ds	1
   428     01B1                     ?___fltol:
   429     01B1                     ___fltol@f1:	
   430                           ; 4 bytes @ 0x21
   431                           
   432                           
   433                           ; 4 bytes @ 0x21
   434     01B1                     	ds	4
   435     01B5                     ??___fltol:
   436                           
   437                           ; 1 bytes @ 0x25
   438     01B5                     	ds	4
   439     01B9                     ___fltol@sign1:
   440                           
   441                           ; 1 bytes @ 0x29
   442     01B9                     	ds	1
   443     01BA                     ___fltol@exp1:
   444                           
   445                           ; 1 bytes @ 0x2A
   446     01BA                     	ds	1
   447     01BB                     ?_PWM_SETUP:
   448     01BB                     PWM_SETUP@periodo_ms:	
   449                           ; 1 bytes @ 0x2B
   450                           
   451                           
   452                           ; 4 bytes @ 0x2B
   453     01BB                     	ds	4
   454     01BF                     PWM_SETUP@channel:
   455                           
   456                           ; 1 bytes @ 0x2F
   457     01BF                     	ds	1
   458     01C0                     ??_main:
   459                           
   460                           ; 1 bytes @ 0x30
   461     01C0                     	ds	1
   462                           
   463                           	psect	cstackBANK1
   464     00A0                     __pcstackBANK1:
   465     00A0                     ?_PWM_DUTY:
   466     00A0                     PWM_DUTY@duty:	
   467                           ; 1 bytes @ 0x0
   468                           
   469                           
   470                           ; 4 bytes @ 0x0
   471     00A0                     	ds	4
   472     00A4                     PWM_DUTY@channel:
   473                           
   474                           ; 1 bytes @ 0x4
   475     00A4                     	ds	1
   476     00A5                     PWM_DUTY@duty_var:
   477                           
   478                           ; 2 bytes @ 0x5
   479     00A5                     	ds	2
   480     00A7                     ??_isr:
   481                           
   482                           ; 1 bytes @ 0x7
   483     00A7                     	ds	7
   484     00AE                     ?__Umul8_16:
   485     00AE                     __Umul8_16@multiplicand:	
   486                           ; 2 bytes @ 0xE
   487                           
   488                           
   489                           ; 1 bytes @ 0xE
   490     00AE                     	ds	2
   491     00B0                     ??__Umul8_16:
   492                           
   493                           ; 1 bytes @ 0x10
   494     00B0                     	ds	2
   495     00B2                     __Umul8_16@product:
   496                           
   497                           ; 2 bytes @ 0x12
   498     00B2                     	ds	2
   499     00B4                     __Umul8_16@word_mpld:
   500                           
   501                           ; 2 bytes @ 0x14
   502     00B4                     	ds	2
   503     00B6                     __Umul8_16@multiplier:
   504                           
   505                           ; 1 bytes @ 0x16
   506     00B6                     	ds	1
   507     00B7                     ?___flmul:
   508     00B7                     ___flmul@b:	
   509                           ; 4 bytes @ 0x17
   510                           
   511                           
   512                           ; 4 bytes @ 0x17
   513     00B7                     	ds	4
   514     00BB                     ___flmul@a:
   515                           
   516                           ; 4 bytes @ 0x1B
   517     00BB                     	ds	4
   518     00BF                     ??___flmul:
   519                           
   520                           ; 1 bytes @ 0x1F
   521     00BF                     	ds	5
   522     00C4                     ___flmul@sign:
   523                           
   524                           ; 1 bytes @ 0x24
   525     00C4                     	ds	1
   526     00C5                     ___flmul@grs:
   527                           
   528                           ; 4 bytes @ 0x25
   529     00C5                     	ds	4
   530     00C9                     ___flmul@aexp:
   531                           
   532                           ; 1 bytes @ 0x29
   533     00C9                     	ds	1
   534     00CA                     ___flmul@bexp:
   535                           
   536                           ; 1 bytes @ 0x2A
   537     00CA                     	ds	1
   538     00CB                     ___flmul@prod:
   539                           
   540                           ; 4 bytes @ 0x2B
   541     00CB                     	ds	4
   542     00CF                     ___flmul@temp:
   543                           
   544                           ; 2 bytes @ 0x2F
   545     00CF                     	ds	2
   546     00D1                     ?___fldiv:
   547     00D1                     ___fldiv@a:	
   548                           ; 4 bytes @ 0x31
   549                           
   550                           
   551                           ; 4 bytes @ 0x31
   552     00D1                     	ds	4
   553     00D5                     ___fldiv@b:
   554                           
   555                           ; 4 bytes @ 0x35
   556     00D5                     	ds	4
   557     00D9                     ??___fldiv:
   558                           
   559                           ; 1 bytes @ 0x39
   560     00D9                     	ds	5
   561     00DE                     ??_setup:
   562     00DE                     ??_PWM_SETUP:	
   563                           ; 1 bytes @ 0x3E
   564                           
   565                           
   566                           	psect	cstackCOMMON
   567     0070                     __pcstackCOMMON:	
   568                           ; 1 bytes @ 0x3E
   569                           
   570     0070                     ?_setup:
   571     0070                     ?_isr:	
   572                           ; 1 bytes @ 0x0
   573                           
   574     0070                     ?_main:	
   575                           ; 1 bytes @ 0x0
   576                           
   577     0070                     ?___wmul:	
   578                           ; 1 bytes @ 0x0
   579                           
   580     0070                     ?i1__Umul8_16:	
   581                           ; 2 bytes @ 0x0
   582                           
   583     0070                     ?___xxtofl:	
   584                           ; 2 bytes @ 0x0
   585                           
   586     0070                     i1__Umul8_16@multiplicand:	
   587                           ; 4 bytes @ 0x0
   588                           
   589     0070                     ___wmul@multiplier:	
   590                           ; 1 bytes @ 0x0
   591                           
   592     0070                     ___xxtofl@val:	
   593                           ; 2 bytes @ 0x0
   594                           
   595                           
   596                           ; 4 bytes @ 0x0
   597     0070                     	ds	2
   598     0072                     ??i1__Umul8_16:
   599     0072                     ___wmul@multiplicand:	
   600                           ; 1 bytes @ 0x2
   601                           
   602                           
   603                           ; 2 bytes @ 0x2
   604     0072                     	ds	2
   605     0074                     ??___wmul:
   606     0074                     ??___xxtofl:	
   607                           ; 1 bytes @ 0x4
   608                           
   609     0074                     ___wmul@product:	
   610                           ; 1 bytes @ 0x4
   611                           
   612     0074                     i1__Umul8_16@product:	
   613                           ; 2 bytes @ 0x4
   614                           
   615                           
   616                           ; 2 bytes @ 0x4
   617     0074                     	ds	2
   618     0076                     ?___awdiv:
   619     0076                     ___awdiv@divisor:	
   620                           ; 2 bytes @ 0x6
   621                           
   622     0076                     i1__Umul8_16@word_mpld:	
   623                           ; 2 bytes @ 0x6
   624                           
   625                           
   626                           ; 2 bytes @ 0x6
   627     0076                     	ds	2
   628     0078                     ___xxtofl@sign:
   629     0078                     i1__Umul8_16@multiplier:	
   630                           ; 1 bytes @ 0x8
   631                           
   632     0078                     ___awdiv@dividend:	
   633                           ; 1 bytes @ 0x8
   634                           
   635                           
   636                           ; 2 bytes @ 0x8
   637     0078                     	ds	1
   638     0079                     ??i1___flmul:
   639     0079                     ___xxtofl@exp:	
   640                           ; 1 bytes @ 0x9
   641                           
   642                           
   643                           ; 1 bytes @ 0x9
   644     0079                     	ds	1
   645     007A                     ??___awdiv:
   646     007A                     ___xxtofl@arg:	
   647                           ; 1 bytes @ 0xA
   648                           
   649                           
   650                           ; 4 bytes @ 0xA
   651     007A                     	ds	1
   652     007B                     ??_mapear:
   653     007B                     mapear@nuevo_valor:	
   654                           ; 1 bytes @ 0xB
   655                           
   656                           
   657                           ; 2 bytes @ 0xB
   658     007B                     	ds	3
   659                           
   660                           	psect	cstackBANK0
   661     0020                     __pcstackBANK0:
   662     0020                     ?i1___flmul:
   663     0020                     ___awdiv@counter:	
   664                           ; 4 bytes @ 0x0
   665                           
   666     0020                     i1___flmul@b:	
   667                           ; 1 bytes @ 0x0
   668                           
   669                           
   670                           ; 4 bytes @ 0x0
   671     0020                     	ds	1
   672     0021                     ___awdiv@sign:
   673                           
   674                           ; 1 bytes @ 0x1
   675     0021                     	ds	1
   676     0022                     ___awdiv@quotient:
   677                           
   678                           ; 2 bytes @ 0x2
   679     0022                     	ds	2
   680     0024                     ?_mapear:
   681     0024                     mapear@valor:	
   682                           ; 2 bytes @ 0x4
   683                           
   684     0024                     i1___flmul@a:	
   685                           ; 2 bytes @ 0x4
   686                           
   687                           
   688                           ; 4 bytes @ 0x4
   689     0024                     	ds	2
   690     0026                     mapear@rango_min:
   691                           
   692                           ; 2 bytes @ 0x6
   693     0026                     	ds	2
   694     0028                     i1___flmul@sign:
   695     0028                     mapear@rango_max:	
   696                           ; 1 bytes @ 0x8
   697                           
   698                           
   699                           ; 2 bytes @ 0x8
   700     0028                     	ds	1
   701     0029                     i1___flmul@grs:
   702                           
   703                           ; 4 bytes @ 0x9
   704     0029                     	ds	1
   705     002A                     mapear@nuevo_min:
   706                           
   707                           ; 2 bytes @ 0xA
   708     002A                     	ds	2
   709     002C                     mapear@nuevo_max:
   710                           
   711                           ; 2 bytes @ 0xC
   712     002C                     	ds	1
   713     002D                     i1___flmul@aexp:
   714                           
   715                           ; 1 bytes @ 0xD
   716     002D                     	ds	1
   717     002E                     i1___flmul@bexp:
   718                           
   719                           ; 1 bytes @ 0xE
   720     002E                     	ds	1
   721     002F                     i1___flmul@prod:
   722                           
   723                           ; 4 bytes @ 0xF
   724     002F                     	ds	4
   725     0033                     i1___flmul@temp:
   726                           
   727                           ; 2 bytes @ 0x13
   728     0033                     	ds	2
   729     0035                     ?i1___fldiv:
   730     0035                     i1___fldiv@a:	
   731                           ; 4 bytes @ 0x15
   732                           
   733                           
   734                           ; 4 bytes @ 0x15
   735     0035                     	ds	4
   736     0039                     i1___fldiv@b:
   737                           
   738                           ; 4 bytes @ 0x19
   739     0039                     	ds	4
   740     003D                     ??i1___fldiv:
   741                           
   742                           ; 1 bytes @ 0x1D
   743     003D                     	ds	5
   744     0042                     i1___fldiv@rem:
   745                           
   746                           ; 4 bytes @ 0x22
   747     0042                     	ds	4
   748     0046                     i1___fldiv@sign:
   749                           
   750                           ; 1 bytes @ 0x26
   751     0046                     	ds	1
   752     0047                     i1___fldiv@new_exp:
   753                           
   754                           ; 2 bytes @ 0x27
   755     0047                     	ds	2
   756     0049                     i1___fldiv@grs:
   757                           
   758                           ; 4 bytes @ 0x29
   759     0049                     	ds	4
   760     004D                     i1___fldiv@bexp:
   761                           
   762                           ; 1 bytes @ 0x2D
   763     004D                     	ds	1
   764     004E                     i1___fldiv@aexp:
   765                           
   766                           ; 1 bytes @ 0x2E
   767     004E                     	ds	1
   768     004F                     ?i1___fladd:
   769     004F                     i1___fladd@b:	
   770                           ; 4 bytes @ 0x2F
   771                           
   772                           
   773                           ; 4 bytes @ 0x2F
   774     004F                     	ds	4
   775     0053                     i1___fladd@a:
   776                           
   777                           ; 4 bytes @ 0x33
   778     0053                     	ds	4
   779     0057                     ??i1___fladd:
   780                           
   781                           ; 1 bytes @ 0x37
   782     0057                     	ds	8
   783     005F                     i1___fladd@signs:
   784                           
   785                           ; 1 bytes @ 0x3F
   786     005F                     	ds	1
   787     0060                     i1___fladd@aexp:
   788                           
   789                           ; 1 bytes @ 0x40
   790     0060                     	ds	1
   791     0061                     i1___fladd@bexp:
   792                           
   793                           ; 1 bytes @ 0x41
   794     0061                     	ds	1
   795     0062                     i1___fladd@grs:
   796                           
   797                           ; 1 bytes @ 0x42
   798     0062                     	ds	1
   799     0063                     ?i1___fltol:
   800     0063                     i1___fltol@f1:	
   801                           ; 4 bytes @ 0x43
   802                           
   803                           
   804                           ; 4 bytes @ 0x43
   805     0063                     	ds	4
   806     0067                     ??i1___fltol:
   807                           
   808                           ; 1 bytes @ 0x47
   809     0067                     	ds	4
   810     006B                     i1___fltol@sign1:
   811                           
   812                           ; 1 bytes @ 0x4B
   813     006B                     	ds	1
   814     006C                     i1___fltol@exp1:
   815                           
   816                           ; 1 bytes @ 0x4C
   817     006C                     	ds	1
   818     006D                     ??_PWM_DUTY:
   819                           
   820                           ; 1 bytes @ 0x4D
   821     006D                     	ds	1
   822                           
   823                           	psect	maintext
   824     1375                     __pmaintext:	
   825 ;;
   826 ;;Main: autosize = 0, tempsize = 1, incstack = 0, save=0
   827 ;;
   828 ;; *************** function _main *****************
   829 ;; Defined at:
   830 ;;		line 77 in file "prelablab7.c"
   831 ;; Parameters:    Size  Location     Type
   832 ;;		None
   833 ;; Auto vars:     Size  Location     Type
   834 ;;		None
   835 ;; Return value:  Size  Location     Type
   836 ;;                  1    wreg      void 
   837 ;; Registers used:
   838 ;;		wreg, status,2, status,0, btemp+1, pclath, cstack
   839 ;; Tracked objects:
   840 ;;		On entry : B00/0
   841 ;;		On exit  : 0/0
   842 ;;		Unchanged: 0/0
   843 ;; Data sizes:     COMMON   BANK0   BANK1   BANK3   BANK2
   844 ;;      Params:         0       0       0       0       0
   845 ;;      Locals:         0       0       0       0       0
   846 ;;      Temps:          0       0       0       1       0
   847 ;;      Totals:         0       0       0       1       0
   848 ;;Total ram usage:        1 bytes
   849 ;; Hardware stack levels required when called: 8
   850 ;; This function calls:
   851 ;;		_setup
   852 ;; This function is called by:
   853 ;;		Startup code after reset
   854 ;; This function uses a non-reentrant model
   855 ;;
   856                           
   857     1375                     _main:	
   858                           ;psect for function _main
   859                           
   860     1375                     l3664:	
   861                           ;incstack = 0
   862                           ; Regs used in _main: [wreg+status,2+status,0+btemp+1+pclath+cstack]
   863                           
   864                           
   865                           ;prelablab7.c: 78:     setup();
   866     1375  120A  118A  279F  160A  118A  	fcall	_setup
   867     137A                     l3666:
   868                           
   869                           ;prelablab7.c: 80:         if(ADCON0bits.CHS == 0b0000){
   870     137A  1283               	bcf	3,5	;RP0=0, select bank0
   871     137B  1303               	bcf	3,6	;RP1=0, select bank0
   872     137C  0C1F               	rrf	31,w	;volatile
   873     137D  1683               	bsf	3,5	;RP0=1, select bank3
   874     137E  1703               	bsf	3,6	;RP1=1, select bank3
   875     137F  00C0               	movwf	??_main^(0+384)
   876     1380  0C40               	rrf	??_main^(0+384),w
   877     1381  390F               	andlw	15
   878     1382  3A00               	xorlw	0
   879     1383  1D03               	skipz
   880     1384  2B86               	goto	u6391
   881     1385  2B87               	goto	u6390
   882     1386                     u6391:
   883     1386  2B96               	goto	l3672
   884     1387                     u6390:
   885     1387                     l3668:
   886                           
   887                           ;prelablab7.c: 81:             _delay((unsigned long)((10)*(500000/4000.0)));
   888     1387  30F9               	movlw	249
   889     1388  1683               	bsf	3,5	;RP0=1, select bank3
   890     1389  1703               	bsf	3,6	;RP1=1, select bank3
   891     138A  00C0               	movwf	??_main^(0+384)
   892     138B                     u6437:
   893     138B  2B8C               	nop2
   894     138C  0BC0               	decfsz	??_main^(0+384),f
   895     138D  2B8B               	goto	u6437
   896     138E  2B8F               	nop2
   897     138F                     l3670:
   898                           
   899                           ;prelablab7.c: 82:             ADCON0bits.CHS = 0b0001;
   900     138F  1283               	bcf	3,5	;RP0=0, select bank0
   901     1390  1303               	bcf	3,6	;RP1=0, select bank0
   902     1391  081F               	movf	31,w	;volatile
   903     1392  39C3               	andlw	-61
   904     1393  3804               	iorlw	4
   905     1394  009F               	movwf	31	;volatile
   906                           
   907                           ;prelablab7.c: 83:         }else if(ADCON0bits.CHS == 0b0001){
   908     1395  2BCB               	goto	l3684
   909     1396                     l3672:
   910     1396  1283               	bcf	3,5	;RP0=0, select bank0
   911     1397  1303               	bcf	3,6	;RP1=0, select bank0
   912     1398  0C1F               	rrf	31,w	;volatile
   913     1399  1683               	bsf	3,5	;RP0=1, select bank3
   914     139A  1703               	bsf	3,6	;RP1=1, select bank3
   915     139B  00C0               	movwf	??_main^(0+384)
   916     139C  0C40               	rrf	??_main^(0+384),w
   917     139D  390F               	andlw	15
   918     139E  3A01               	xorlw	1
   919     139F  1D03               	skipz
   920     13A0  2BA2               	goto	u6401
   921     13A1  2BA3               	goto	u6400
   922     13A2                     u6401:
   923     13A2  2BB2               	goto	l3678
   924     13A3                     u6400:
   925     13A3                     l3674:
   926                           
   927                           ;prelablab7.c: 84:             _delay((unsigned long)((10)*(500000/4000.0)));
   928     13A3  30F9               	movlw	249
   929     13A4  1683               	bsf	3,5	;RP0=1, select bank3
   930     13A5  1703               	bsf	3,6	;RP1=1, select bank3
   931     13A6  00C0               	movwf	??_main^(0+384)
   932     13A7                     u6447:
   933     13A7  2BA8               	nop2
   934     13A8  0BC0               	decfsz	??_main^(0+384),f
   935     13A9  2BA7               	goto	u6447
   936     13AA  2BAB               	nop2
   937     13AB                     l3676:
   938                           
   939                           ;prelablab7.c: 85:             ADCON0bits.CHS = 0b0010;
   940     13AB  1283               	bcf	3,5	;RP0=0, select bank0
   941     13AC  1303               	bcf	3,6	;RP1=0, select bank0
   942     13AD  081F               	movf	31,w	;volatile
   943     13AE  39C3               	andlw	-61
   944     13AF  3808               	iorlw	8
   945     13B0  009F               	movwf	31	;volatile
   946                           
   947                           ;prelablab7.c: 86:         }else if(ADCON0bits.CHS == 0b0010){
   948     13B1  2BCB               	goto	l3684
   949     13B2                     l3678:
   950     13B2  1283               	bcf	3,5	;RP0=0, select bank0
   951     13B3  1303               	bcf	3,6	;RP1=0, select bank0
   952     13B4  0C1F               	rrf	31,w	;volatile
   953     13B5  1683               	bsf	3,5	;RP0=1, select bank3
   954     13B6  1703               	bsf	3,6	;RP1=1, select bank3
   955     13B7  00C0               	movwf	??_main^(0+384)
   956     13B8  0C40               	rrf	??_main^(0+384),w
   957     13B9  390F               	andlw	15
   958     13BA  3A02               	xorlw	2
   959     13BB  1D03               	skipz
   960     13BC  2BBE               	goto	u6411
   961     13BD  2BBF               	goto	u6410
   962     13BE                     u6411:
   963     13BE  2BCB               	goto	l3684
   964     13BF                     u6410:
   965     13BF                     l3680:
   966                           
   967                           ;prelablab7.c: 87:             _delay((unsigned long)((10)*(500000/4000.0)));
   968     13BF  30F9               	movlw	249
   969     13C0  1683               	bsf	3,5	;RP0=1, select bank3
   970     13C1  1703               	bsf	3,6	;RP1=1, select bank3
   971     13C2  00C0               	movwf	??_main^(0+384)
   972     13C3                     u6457:
   973     13C3  2BC4               	nop2
   974     13C4  0BC0               	decfsz	??_main^(0+384),f
   975     13C5  2BC3               	goto	u6457
   976     13C6  2BC7               	nop2
   977     13C7                     l3682:
   978                           
   979                           ;prelablab7.c: 88:             ADCON0bits.CHS = 0b0000;
   980     13C7  30C3               	movlw	-61
   981     13C8  1283               	bcf	3,5	;RP0=0, select bank0
   982     13C9  1303               	bcf	3,6	;RP1=0, select bank0
   983     13CA  059F               	andwf	31,f	;volatile
   984     13CB                     l3684:
   985                           
   986                           ;prelablab7.c: 91:         if(ADCON0bits.GO == 0){
   987     13CB  1283               	bcf	3,5	;RP0=0, select bank0
   988     13CC  1303               	bcf	3,6	;RP1=0, select bank0
   989     13CD  189F               	btfsc	31,1	;volatile
   990     13CE  2BD0               	goto	u6421
   991     13CF  2BD1               	goto	u6420
   992     13D0                     u6421:
   993     13D0  2B7A               	goto	l3666
   994     13D1                     u6420:
   995     13D1                     l3686:
   996                           
   997                           ;prelablab7.c: 92:             _delay((unsigned long)((10)*(500000/4000.0)));
   998     13D1  30F9               	movlw	249
   999     13D2  1683               	bsf	3,5	;RP0=1, select bank3
  1000     13D3  1703               	bsf	3,6	;RP1=1, select bank3
  1001     13D4  00C0               	movwf	??_main^(0+384)
  1002     13D5                     u6467:
  1003     13D5  2BD6               	nop2
  1004     13D6  0BC0               	decfsz	??_main^(0+384),f
  1005     13D7  2BD5               	goto	u6467
  1006     13D8  2BD9               	nop2
  1007     13D9                     l3688:
  1008                           
  1009                           ;prelablab7.c: 93:             ADCON0bits.GO = 1;
  1010     13D9  1283               	bcf	3,5	;RP0=0, select bank0
  1011     13DA  1303               	bcf	3,6	;RP1=0, select bank0
  1012     13DB  149F               	bsf	31,1	;volatile
  1013     13DC  2B7A               	goto	l3666
  1014     13DD  120A  118A  2810   	ljmp	start
  1015     13E0                     __end_of_main:
  1016                           
  1017                           	psect	text1
  1018     079F                     __ptext1:	
  1019 ;; *************** function _setup *****************
  1020 ;; Defined at:
  1021 ;;		line 104 in file "prelablab7.c"
  1022 ;; Parameters:    Size  Location     Type
  1023 ;;		None
  1024 ;; Auto vars:     Size  Location     Type
  1025 ;;		None
  1026 ;; Return value:  Size  Location     Type
  1027 ;;                  1    wreg      void 
  1028 ;; Registers used:
  1029 ;;		wreg, status,2, status,0, btemp+1, pclath, cstack
  1030 ;; Tracked objects:
  1031 ;;		On entry : 0/0
  1032 ;;		On exit  : 0/0
  1033 ;;		Unchanged: 0/0
  1034 ;; Data sizes:     COMMON   BANK0   BANK1   BANK3   BANK2
  1035 ;;      Params:         0       0       0       0       0
  1036 ;;      Locals:         0       0       0       0       0
  1037 ;;      Temps:          0       0       0       0       0
  1038 ;;      Totals:         0       0       0       0       0
  1039 ;;Total ram usage:        0 bytes
  1040 ;; Hardware stack levels used: 1
  1041 ;; Hardware stack levels required when called: 7
  1042 ;; This function calls:
  1043 ;;		_PWM_SETUP
  1044 ;; This function is called by:
  1045 ;;		_main
  1046 ;; This function uses a non-reentrant model
  1047 ;;
  1048                           
  1049     079F                     _setup:	
  1050                           ;psect for function _setup
  1051                           
  1052     079F                     l3610:	
  1053                           ;incstack = 0
  1054                           ; Regs used in _setup: [wreg+status,2+status,0+btemp+1+pclath+cstack]
  1055                           
  1056                           
  1057                           ;prelablab7.c: 106:     ANSEL = 0b00000111;
  1058     079F  3007               	movlw	7
  1059     07A0  1683               	bsf	3,5	;RP0=1, select bank3
  1060     07A1  1703               	bsf	3,6	;RP1=1, select bank3
  1061     07A2  0088               	movwf	8	;volatile
  1062     07A3                     l3612:
  1063                           
  1064                           ;prelablab7.c: 107:     ANSELH = 0;
  1065     07A3  0189               	clrf	9	;volatile
  1066     07A4                     l3614:
  1067                           
  1068                           ;prelablab7.c: 109:     TRISA = 0b00000111;
  1069     07A4  3007               	movlw	7
  1070     07A5  1683               	bsf	3,5	;RP0=1, select bank1
  1071     07A6  1303               	bcf	3,6	;RP1=0, select bank1
  1072     07A7  0085               	movwf	5	;volatile
  1073                           
  1074                           ;prelablab7.c: 110:     TRISC = 0x00;
  1075     07A8  0187               	clrf	7	;volatile
  1076                           
  1077                           ;prelablab7.c: 111:     TRISB = 0;
  1078     07A9  0186               	clrf	6	;volatile
  1079                           
  1080                           ;prelablab7.c: 113:     PORTA = 0;
  1081     07AA  1283               	bcf	3,5	;RP0=0, select bank0
  1082     07AB  1303               	bcf	3,6	;RP1=0, select bank0
  1083     07AC  0185               	clrf	5	;volatile
  1084                           
  1085                           ;prelablab7.c: 114:     PORTB = 0;
  1086     07AD  0186               	clrf	6	;volatile
  1087                           
  1088                           ;prelablab7.c: 115:     PORTC = 0x00;
  1089     07AE  0187               	clrf	7	;volatile
  1090     07AF                     l3616:
  1091                           
  1092                           ;prelablab7.c: 118:     OSCCONbits.IRCF2 = 0;
  1093     07AF  1683               	bsf	3,5	;RP0=1, select bank1
  1094     07B0  1303               	bcf	3,6	;RP1=0, select bank1
  1095     07B1  130F               	bcf	15,6	;volatile
  1096     07B2                     l3618:
  1097                           
  1098                           ;prelablab7.c: 119:     OSCCONbits.IRCF1 = 1;
  1099     07B2  168F               	bsf	15,5	;volatile
  1100     07B3                     l3620:
  1101                           
  1102                           ;prelablab7.c: 120:     OSCCONbits.IRCF0 = 1;
  1103     07B3  160F               	bsf	15,4	;volatile
  1104     07B4                     l3622:
  1105                           
  1106                           ;prelablab7.c: 121:     OSCCONbits.SCS = 1;
  1107     07B4  140F               	bsf	15,0	;volatile
  1108     07B5                     l3624:
  1109                           
  1110                           ;prelablab7.c: 124:     OPTION_REGbits.T0CS = 0;
  1111     07B5  1281               	bcf	1,5	;volatile
  1112     07B6                     l3626:
  1113                           
  1114                           ;prelablab7.c: 125:     OPTION_REGbits.PSA = 0;
  1115     07B6  1181               	bcf	1,3	;volatile
  1116     07B7                     l3628:
  1117                           
  1118                           ;prelablab7.c: 126:     OPTION_REGbits.PS = 0b001;
  1119     07B7  0801               	movf	1,w	;volatile
  1120     07B8  39F8               	andlw	-8
  1121     07B9  3801               	iorlw	1
  1122     07BA  0081               	movwf	1	;volatile
  1123     07BB                     l3630:
  1124                           
  1125                           ;prelablab7.c: 127:     TMR0 = 225;
  1126     07BB  30E1               	movlw	225
  1127     07BC  1283               	bcf	3,5	;RP0=0, select bank0
  1128     07BD  1303               	bcf	3,6	;RP1=0, select bank0
  1129     07BE  0081               	movwf	1	;volatile
  1130     07BF                     l3632:
  1131                           
  1132                           ;prelablab7.c: 130:     ADCON1bits.ADFM = 0;
  1133     07BF  1683               	bsf	3,5	;RP0=1, select bank1
  1134     07C0  1303               	bcf	3,6	;RP1=0, select bank1
  1135     07C1  139F               	bcf	31,7	;volatile
  1136     07C2                     l3634:
  1137                           
  1138                           ;prelablab7.c: 131:     ADCON1bits.VCFG0 = 0;
  1139     07C2  121F               	bcf	31,4	;volatile
  1140     07C3                     l3636:
  1141                           
  1142                           ;prelablab7.c: 132:     ADCON1bits.VCFG1 = 0;
  1143     07C3  129F               	bcf	31,5	;volatile
  1144     07C4                     l3638:
  1145                           
  1146                           ;prelablab7.c: 134:     ADCON0bits.ADCS = 0b10;
  1147     07C4  1283               	bcf	3,5	;RP0=0, select bank0
  1148     07C5  1303               	bcf	3,6	;RP1=0, select bank0
  1149     07C6  081F               	movf	31,w	;volatile
  1150     07C7  393F               	andlw	-193
  1151     07C8  3880               	iorlw	128
  1152     07C9  009F               	movwf	31	;volatile
  1153     07CA                     l3640:
  1154                           
  1155                           ;prelablab7.c: 135:     ADCON0bits.CHS = 0b0000;
  1156     07CA  30C3               	movlw	-61
  1157     07CB  059F               	andwf	31,f	;volatile
  1158     07CC                     l3642:
  1159                           
  1160                           ;prelablab7.c: 136:     ADCON0bits.ADON = 1;
  1161     07CC  141F               	bsf	31,0	;volatile
  1162     07CD                     l3644:
  1163                           
  1164                           ;prelablab7.c: 137:     _delay((unsigned long)((50)*(500000/4000000.0)));
  1165     07CD  2FCE               	nop2	;2 cycle nop
  1166     07CE  2FCF               	nop2	;2 cycle nop
  1167     07CF  2FD0               	nop2	;2 cycle nop
  1168     07D0                     l3646:
  1169                           
  1170                           ;prelablab7.c: 140:     PIR1bits.ADIF = 0;
  1171     07D0  1283               	bcf	3,5	;RP0=0, select bank0
  1172     07D1  1303               	bcf	3,6	;RP1=0, select bank0
  1173     07D2  130C               	bcf	12,6	;volatile
  1174     07D3                     l3648:
  1175                           
  1176                           ;prelablab7.c: 141:     PIE1bits.ADIE = 1;
  1177     07D3  1683               	bsf	3,5	;RP0=1, select bank1
  1178     07D4  1303               	bcf	3,6	;RP1=0, select bank1
  1179     07D5  170C               	bsf	12,6	;volatile
  1180     07D6                     l3650:
  1181                           
  1182                           ;prelablab7.c: 142:     INTCONbits.T0IF = 0;
  1183     07D6  110B               	bcf	11,2	;volatile
  1184     07D7                     l3652:
  1185                           
  1186                           ;prelablab7.c: 143:     INTCONbits.T0IE = 1;
  1187     07D7  168B               	bsf	11,5	;volatile
  1188     07D8                     l3654:
  1189                           
  1190                           ;prelablab7.c: 144:     INTCONbits.PEIE = 1;
  1191     07D8  170B               	bsf	11,6	;volatile
  1192     07D9                     l3656:
  1193                           
  1194                           ;prelablab7.c: 145:     INTCONbits.GIE = 1;
  1195     07D9  178B               	bsf	11,7	;volatile
  1196     07DA                     l3658:
  1197                           
  1198                           ;prelablab7.c: 148:     PWM_SETUP(1, 0.02);
  1199     07DA  303C               	movlw	60
  1200     07DB  1683               	bsf	3,5	;RP0=1, select bank3
  1201     07DC  1703               	bsf	3,6	;RP1=1, select bank3
  1202     07DD  00BE               	movwf	(PWM_SETUP@periodo_ms+3)^(0+384)
  1203     07DE  30A3               	movlw	163
  1204     07DF  00BD               	movwf	(PWM_SETUP@periodo_ms+2)^(0+384)
  1205     07E0  30D7               	movlw	215
  1206     07E1  00BC               	movwf	(PWM_SETUP@periodo_ms+1)^(0+384)
  1207     07E2  300A               	movlw	10
  1208     07E3  00BB               	movwf	PWM_SETUP@periodo_ms^(0+384)
  1209     07E4  3001               	movlw	1
  1210     07E5  160A  118A  257C  120A  118A  	fcall	_PWM_SETUP
  1211     07EA                     l3660:
  1212                           
  1213                           ;prelablab7.c: 149:     PWM_SETUP(2, 0.02);
  1214     07EA  303C               	movlw	60
  1215     07EB  1683               	bsf	3,5	;RP0=1, select bank3
  1216     07EC  1703               	bsf	3,6	;RP1=1, select bank3
  1217     07ED  00BE               	movwf	(PWM_SETUP@periodo_ms+3)^(0+384)
  1218     07EE  30A3               	movlw	163
  1219     07EF  00BD               	movwf	(PWM_SETUP@periodo_ms+2)^(0+384)
  1220     07F0  30D7               	movlw	215
  1221     07F1  00BC               	movwf	(PWM_SETUP@periodo_ms+1)^(0+384)
  1222     07F2  300A               	movlw	10
  1223     07F3  00BB               	movwf	PWM_SETUP@periodo_ms^(0+384)
  1224     07F4  3002               	movlw	2
  1225     07F5  160A  118A  257C  120A  118A  	fcall	_PWM_SETUP
  1226     07FA                     l89:
  1227     07FA  0008               	return
  1228     07FB                     __end_of_setup:
  1229                           
  1230                           	psect	text2
  1231     157C                     __ptext2:	
  1232 ;; *************** function _PWM_SETUP *****************
  1233 ;; Defined at:
  1234 ;;		line 13 in file "configPWM.c"
  1235 ;; Parameters:    Size  Location     Type
  1236 ;;  channel         1    wreg     unsigned char 
  1237 ;;  periodo_ms      4   43[BANK3 ] float 
  1238 ;; Auto vars:     Size  Location     Type
  1239 ;;  channel         1   47[BANK3 ] unsigned char 
  1240 ;; Return value:  Size  Location     Type
  1241 ;;                  1    wreg      void 
  1242 ;; Registers used:
  1243 ;;		wreg, status,2, status,0, btemp+1, pclath, cstack
  1244 ;; Tracked objects:
  1245 ;;		On entry : 0/0
  1246 ;;		On exit  : 0/0
  1247 ;;		Unchanged: 0/0
  1248 ;; Data sizes:     COMMON   BANK0   BANK1   BANK3   BANK2
  1249 ;;      Params:         0       0       0       4       0
  1250 ;;      Locals:         0       0       0       1       0
  1251 ;;      Temps:          0       0       0       0       0
  1252 ;;      Totals:         0       0       0       5       0
  1253 ;;Total ram usage:        5 bytes
  1254 ;; Hardware stack levels used: 1
  1255 ;; Hardware stack levels required when called: 6
  1256 ;; This function calls:
  1257 ;;		___fladd
  1258 ;;		___fldiv
  1259 ;;		___flmul
  1260 ;;		___fltol
  1261 ;; This function is called by:
  1262 ;;		_setup
  1263 ;; This function uses a non-reentrant model
  1264 ;;
  1265                           
  1266     157C                     _PWM_SETUP:	
  1267                           ;psect for function _PWM_SETUP
  1268                           
  1269                           
  1270                           ;incstack = 0
  1271                           ; Regs used in _PWM_SETUP: [wreg+status,2+status,0+btemp+1+pclath+cstack]
  1272                           ;PWM_SETUP@channel stored from wreg
  1273     157C  1683               	bsf	3,5	;RP0=1, select bank3
  1274     157D  1703               	bsf	3,6	;RP1=1, select bank3
  1275     157E  00BF               	movwf	PWM_SETUP@channel^(0+384)
  1276     157F                     l3570:
  1277                           
  1278                           ;configPWM.c: 14:     PR2 = (unsigned char)((500000*periodo_ms)/(4*16)-1);
  1279     157F  083E               	movf	(PWM_SETUP@periodo_ms+3)^(0+384),w
  1280     1580  1683               	bsf	3,5	;RP0=1, select bank1
  1281     1581  1303               	bcf	3,6	;RP1=0, select bank1
  1282     1582  00BE               	movwf	(___flmul@a+3)^(0+128)
  1283     1583  1683               	bsf	3,5	;RP0=1, select bank3
  1284     1584  1703               	bsf	3,6	;RP1=1, select bank3
  1285     1585  083D               	movf	(PWM_SETUP@periodo_ms+2)^(0+384),w
  1286     1586  1683               	bsf	3,5	;RP0=1, select bank1
  1287     1587  1303               	bcf	3,6	;RP1=0, select bank1
  1288     1588  00BD               	movwf	(___flmul@a+2)^(0+128)
  1289     1589  1683               	bsf	3,5	;RP0=1, select bank3
  1290     158A  1703               	bsf	3,6	;RP1=1, select bank3
  1291     158B  083C               	movf	(PWM_SETUP@periodo_ms+1)^(0+384),w
  1292     158C  1683               	bsf	3,5	;RP0=1, select bank1
  1293     158D  1303               	bcf	3,6	;RP1=0, select bank1
  1294     158E  00BC               	movwf	(___flmul@a+1)^(0+128)
  1295     158F  1683               	bsf	3,5	;RP0=1, select bank3
  1296     1590  1703               	bsf	3,6	;RP1=1, select bank3
  1297     1591  083B               	movf	PWM_SETUP@periodo_ms^(0+384),w
  1298     1592  1683               	bsf	3,5	;RP0=1, select bank1
  1299     1593  1303               	bcf	3,6	;RP1=0, select bank1
  1300     1594  00BB               	movwf	___flmul@a^(0+128)
  1301     1595  3048               	movlw	72
  1302     1596  00BA               	movwf	(___flmul@b+3)^(0+128)
  1303     1597  30F4               	movlw	244
  1304     1598  00B9               	movwf	(___flmul@b+2)^(0+128)
  1305     1599  3024               	movlw	36
  1306     159A  00B8               	movwf	(___flmul@b+1)^(0+128)
  1307     159B  3000               	movlw	0
  1308     159C  00B7               	movwf	___flmul@b^(0+128)
  1309     159D  120A  118A  2021  160A  118A  	fcall	___flmul
  1310     15A2  1683               	bsf	3,5	;RP0=1, select bank1
  1311     15A3  1303               	bcf	3,6	;RP1=0, select bank1
  1312     15A4  083A               	movf	(?___flmul+3)^(0+128),w
  1313     15A5  00D8               	movwf	(___fldiv@b+3)^(0+128)
  1314     15A6  0839               	movf	(?___flmul+2)^(0+128),w
  1315     15A7  00D7               	movwf	(___fldiv@b+2)^(0+128)
  1316     15A8  0838               	movf	(?___flmul+1)^(0+128),w
  1317     15A9  00D6               	movwf	(___fldiv@b+1)^(0+128)
  1318     15AA  0837               	movf	?___flmul^(0+128),w
  1319     15AB  00D5               	movwf	___fldiv@b^(0+128)
  1320     15AC  3042               	movlw	66
  1321     15AD  00D4               	movwf	(___fldiv@a+3)^(0+128)
  1322     15AE  3080               	movlw	128
  1323     15AF  00D3               	movwf	(___fldiv@a+2)^(0+128)
  1324     15B0  3000               	movlw	0
  1325     15B1  00D2               	movwf	(___fldiv@a+1)^(0+128)
  1326     15B2  3000               	movlw	0
  1327     15B3  00D1               	movwf	___fldiv@a^(0+128)
  1328     15B4  120A  158A  256E  160A  118A  	fcall	___fldiv
  1329     15B9  1683               	bsf	3,5	;RP0=1, select bank1
  1330     15BA  1303               	bcf	3,6	;RP1=0, select bank1
  1331     15BB  0854               	movf	(?___fldiv+3)^(0+128),w
  1332     15BC  1683               	bsf	3,5	;RP0=1, select bank3
  1333     15BD  1703               	bsf	3,6	;RP1=1, select bank3
  1334     15BE  00A4               	movwf	(___fladd@a+3)^(0+384)
  1335     15BF  1683               	bsf	3,5	;RP0=1, select bank1
  1336     15C0  1303               	bcf	3,6	;RP1=0, select bank1
  1337     15C1  0853               	movf	(?___fldiv+2)^(0+128),w
  1338     15C2  1683               	bsf	3,5	;RP0=1, select bank3
  1339     15C3  1703               	bsf	3,6	;RP1=1, select bank3
  1340     15C4  00A3               	movwf	(___fladd@a+2)^(0+384)
  1341     15C5  1683               	bsf	3,5	;RP0=1, select bank1
  1342     15C6  1303               	bcf	3,6	;RP1=0, select bank1
  1343     15C7  0852               	movf	(?___fldiv+1)^(0+128),w
  1344     15C8  1683               	bsf	3,5	;RP0=1, select bank3
  1345     15C9  1703               	bsf	3,6	;RP1=1, select bank3
  1346     15CA  00A2               	movwf	(___fladd@a+1)^(0+384)
  1347     15CB  1683               	bsf	3,5	;RP0=1, select bank1
  1348     15CC  1303               	bcf	3,6	;RP1=0, select bank1
  1349     15CD  0851               	movf	?___fldiv^(0+128),w
  1350     15CE  1683               	bsf	3,5	;RP0=1, select bank3
  1351     15CF  1703               	bsf	3,6	;RP1=1, select bank3
  1352     15D0  00A1               	movwf	___fladd@a^(0+384)
  1353     15D1  30BF               	movlw	191
  1354     15D2  00A0               	movwf	(___fladd@b+3)^(0+384)
  1355     15D3  3080               	movlw	128
  1356     15D4  009F               	movwf	(___fladd@b+2)^(0+384)
  1357     15D5  3000               	movlw	0
  1358     15D6  009E               	movwf	(___fladd@b+1)^(0+384)
  1359     15D7  3000               	movlw	0
  1360     15D8  009D               	movwf	___fladd@b^(0+384)
  1361     15D9  120A  158A  2316  160A  118A  	fcall	___fladd
  1362     15DE  1683               	bsf	3,5	;RP0=1, select bank3
  1363     15DF  1703               	bsf	3,6	;RP1=1, select bank3
  1364     15E0  0820               	movf	(?___fladd+3)^(0+384),w
  1365     15E1  00B4               	movwf	(___fltol@f1+3)^(0+384)
  1366     15E2  081F               	movf	(?___fladd+2)^(0+384),w
  1367     15E3  00B3               	movwf	(___fltol@f1+2)^(0+384)
  1368     15E4  081E               	movf	(?___fladd+1)^(0+384),w
  1369     15E5  00B2               	movwf	(___fltol@f1+1)^(0+384)
  1370     15E6  081D               	movf	?___fladd^(0+384),w
  1371     15E7  00B1               	movwf	___fltol@f1^(0+384)
  1372     15E8  160A  118A  2458  160A  118A  	fcall	___fltol
  1373     15ED  1683               	bsf	3,5	;RP0=1, select bank3
  1374     15EE  1703               	bsf	3,6	;RP1=1, select bank3
  1375     15EF  0831               	movf	?___fltol^(0+384),w
  1376     15F0  1683               	bsf	3,5	;RP0=1, select bank1
  1377     15F1  1303               	bcf	3,6	;RP1=0, select bank1
  1378     15F2  0092               	movwf	18	;volatile
  1379     15F3                     l3572:
  1380                           
  1381                           ;configPWM.c: 15:     PIR1bits.TMR2IF = 0;
  1382     15F3  1283               	bcf	3,5	;RP0=0, select bank0
  1383     15F4  1303               	bcf	3,6	;RP1=0, select bank0
  1384     15F5  108C               	bcf	12,1	;volatile
  1385     15F6                     l3574:
  1386                           
  1387                           ;configPWM.c: 16:     T2CONbits.T2CKPS = 0b11;
  1388     15F6  3003               	movlw	3
  1389     15F7  0492               	iorwf	18,f	;volatile
  1390     15F8                     l3576:
  1391                           
  1392                           ;configPWM.c: 17:     T2CONbits.TMR2ON = 1;
  1393     15F8  1512               	bsf	18,2	;volatile
  1394     15F9                     l112:	
  1395                           ;configPWM.c: 18:     while(!PIR1bits.TMR2IF);
  1396                           
  1397     15F9  1C8C               	btfss	12,1	;volatile
  1398     15FA  2DFC               	goto	u6361
  1399     15FB  2DFD               	goto	u6360
  1400     15FC                     u6361:
  1401     15FC  2DF9               	goto	l112
  1402     15FD                     u6360:
  1403     15FD                     l114:
  1404                           
  1405                           ;configPWM.c: 20:     PIR1bits.TMR2IF = 0;
  1406     15FD  108C               	bcf	12,1	;volatile
  1407     15FE                     l3578:
  1408                           
  1409                           ;configPWM.c: 22:     if(channel == 1){
  1410     15FE  1683               	bsf	3,5	;RP0=1, select bank3
  1411     15FF  1703               	bsf	3,6	;RP1=1, select bank3
  1412     1600  033F               	decf	PWM_SETUP@channel^(0+384),w
  1413     1601  1D03               	btfss	3,2
  1414     1602  2E04               	goto	u6371
  1415     1603  2E05               	goto	u6370
  1416     1604                     u6371:
  1417     1604  2E17               	goto	l3594
  1418     1605                     u6370:
  1419     1605                     l3580:
  1420                           
  1421                           ;configPWM.c: 23:         TRISCbits.TRISC1 = 1;
  1422     1605  1683               	bsf	3,5	;RP0=1, select bank1
  1423     1606  1303               	bcf	3,6	;RP1=0, select bank1
  1424     1607  1487               	bsf	7,1	;volatile
  1425     1608                     l3582:
  1426                           
  1427                           ;configPWM.c: 24:         CCP1CON = 0;
  1428     1608  1283               	bcf	3,5	;RP0=0, select bank0
  1429     1609  1303               	bcf	3,6	;RP1=0, select bank0
  1430     160A  0197               	clrf	23	;volatile
  1431     160B                     l3584:
  1432                           
  1433                           ;configPWM.c: 25:         CCP1CONbits.P1M = 0;
  1434     160B  303F               	movlw	-193
  1435     160C  0597               	andwf	23,f	;volatile
  1436     160D                     l3586:
  1437                           
  1438                           ;configPWM.c: 26:         CCP1CONbits.CCP1M = 0b1100;
  1439     160D  0817               	movf	23,w	;volatile
  1440     160E  39F0               	andlw	-16
  1441     160F  380C               	iorlw	12
  1442     1610  0097               	movwf	23	;volatile
  1443     1611                     l3588:
  1444                           
  1445                           ;configPWM.c: 27:         CCP1CONbits.DC1B1 = 0;
  1446     1611  1297               	bcf	23,5	;volatile
  1447     1612                     l3590:
  1448                           
  1449                           ;configPWM.c: 28:         CCP1CONbits.DC1B0 = 0;
  1450     1612  1217               	bcf	23,4	;volatile
  1451     1613                     l3592:
  1452                           
  1453                           ;configPWM.c: 29:         TRISCbits.TRISC1 = 0;
  1454     1613  1683               	bsf	3,5	;RP0=1, select bank1
  1455     1614  1303               	bcf	3,6	;RP1=0, select bank1
  1456     1615  1087               	bcf	7,1	;volatile
  1457                           
  1458                           ;configPWM.c: 30:     } else if(channel == 2){
  1459     1616  2E2C               	goto	l118
  1460     1617                     l3594:
  1461     1617  3002               	movlw	2
  1462     1618  063F               	xorwf	PWM_SETUP@channel^(0+384),w
  1463     1619  1D03               	btfss	3,2
  1464     161A  2E1C               	goto	u6381
  1465     161B  2E1D               	goto	u6380
  1466     161C                     u6381:
  1467     161C  2E2C               	goto	l118
  1468     161D                     u6380:
  1469     161D                     l3596:
  1470                           
  1471                           ;configPWM.c: 31:         TRISCbits.TRISC2 = 1;
  1472     161D  1683               	bsf	3,5	;RP0=1, select bank1
  1473     161E  1303               	bcf	3,6	;RP1=0, select bank1
  1474     161F  1507               	bsf	7,2	;volatile
  1475     1620                     l3598:
  1476                           
  1477                           ;configPWM.c: 32:         CCP2CON = 0;
  1478     1620  1283               	bcf	3,5	;RP0=0, select bank0
  1479     1621  1303               	bcf	3,6	;RP1=0, select bank0
  1480     1622  019D               	clrf	29	;volatile
  1481     1623                     l3600:
  1482                           
  1483                           ;configPWM.c: 33:         CCP2CONbits.CCP2M = 0b1100;
  1484     1623  081D               	movf	29,w	;volatile
  1485     1624  39F0               	andlw	-16
  1486     1625  380C               	iorlw	12
  1487     1626  009D               	movwf	29	;volatile
  1488     1627                     l3602:
  1489                           
  1490                           ;configPWM.c: 34:         CCP2CONbits.DC2B1 = 0;
  1491     1627  129D               	bcf	29,5	;volatile
  1492     1628                     l3604:
  1493                           
  1494                           ;configPWM.c: 35:         CCP2CONbits.DC2B0 = 0;
  1495     1628  121D               	bcf	29,4	;volatile
  1496     1629                     l3606:
  1497                           
  1498                           ;configPWM.c: 36:         TRISCbits.TRISC2 = 0;
  1499     1629  1683               	bsf	3,5	;RP0=1, select bank1
  1500     162A  1303               	bcf	3,6	;RP1=0, select bank1
  1501     162B  1107               	bcf	7,2	;volatile
  1502     162C                     l118:
  1503     162C  0008               	return
  1504     162D                     __end_of_PWM_SETUP:
  1505                           
  1506                           	psect	text3
  1507     1458                     __ptext3:	
  1508 ;; *************** function ___fltol *****************
  1509 ;; Defined at:
  1510 ;;		line 43 in file "C:\Program Files\Microchip\xc8\v2.40\pic\sources\c90\common\fltol.c"
  1511 ;; Parameters:    Size  Location     Type
  1512 ;;  f1              4   33[BANK3 ] void 
  1513 ;; Auto vars:     Size  Location     Type
  1514 ;;  exp1            1   42[BANK3 ] unsigned char 
  1515 ;;  sign1           1   41[BANK3 ] unsigned char 
  1516 ;; Return value:  Size  Location     Type
  1517 ;;                  4   33[BANK3 ] long 
  1518 ;; Registers used:
  1519 ;;		wreg, status,2, status,0
  1520 ;; Tracked objects:
  1521 ;;		On entry : 0/0
  1522 ;;		On exit  : 0/0
  1523 ;;		Unchanged: 0/0
  1524 ;; Data sizes:     COMMON   BANK0   BANK1   BANK3   BANK2
  1525 ;;      Params:         0       0       0       4       0
  1526 ;;      Locals:         0       0       0       2       0
  1527 ;;      Temps:          0       0       0       4       0
  1528 ;;      Totals:         0       0       0      10       0
  1529 ;;Total ram usage:       10 bytes
  1530 ;; Hardware stack levels used: 1
  1531 ;; Hardware stack levels required when called: 4
  1532 ;; This function calls:
  1533 ;;		Nothing
  1534 ;; This function is called by:
  1535 ;;		_PWM_SETUP
  1536 ;; This function uses a non-reentrant model
  1537 ;;
  1538                           
  1539     1458                     ___fltol:	
  1540                           ;psect for function ___fltol
  1541                           
  1542     1458                     l2060:	
  1543                           ;incstack = 0
  1544                           ; Regs used in ___fltol: [wreg+status,2+status,0]
  1545                           
  1546     1458  1003               	clrc
  1547     1459  1683               	bsf	3,5	;RP0=1, select bank3
  1548     145A  1703               	bsf	3,6	;RP1=1, select bank3
  1549     145B  0D33               	rlf	(___fltol@f1+2)^(0+384),w
  1550     145C  0D34               	rlf	(___fltol@f1+3)^(0+384),w
  1551     145D  00BA               	movwf	___fltol@exp1^(0+384)
  1552     145E  083A               	movf	___fltol@exp1^(0+384),w
  1553     145F  1D03               	btfss	3,2
  1554     1460  2C62               	goto	u2981
  1555     1461  2C63               	goto	u2980
  1556     1462                     u2981:
  1557     1462  2C6C               	goto	l2066
  1558     1463                     u2980:
  1559     1463                     l2062:
  1560     1463  3000               	movlw	0
  1561     1464  00B4               	movwf	(?___fltol+3)^(0+384)
  1562     1465  3000               	movlw	0
  1563     1466  00B3               	movwf	(?___fltol+2)^(0+384)
  1564     1467  3000               	movlw	0
  1565     1468  00B2               	movwf	(?___fltol+1)^(0+384)
  1566     1469  3000               	movlw	0
  1567     146A  00B1               	movwf	?___fltol^(0+384)
  1568     146B  2CCF               	goto	l396
  1569     146C                     l2066:
  1570     146C  0831               	movf	___fltol@f1^(0+384),w
  1571     146D  00B5               	movwf	??___fltol^(0+384)
  1572     146E  0832               	movf	(___fltol@f1+1)^(0+384),w
  1573     146F  00B6               	movwf	(??___fltol^(0+384)+1)
  1574     1470  0833               	movf	(___fltol@f1+2)^(0+384),w
  1575     1471  00B7               	movwf	(??___fltol^(0+384)+2)
  1576     1472  0834               	movf	(___fltol@f1+3)^(0+384),w
  1577     1473  00B8               	movwf	(??___fltol^(0+384)+3)
  1578     1474  301F               	movlw	31
  1579     1475                     u2995:
  1580     1475  1003               	clrc
  1581     1476  0CB8               	rrf	(??___fltol^(0+384)+3),f
  1582     1477  0CB7               	rrf	(??___fltol^(0+384)+2),f
  1583     1478  0CB6               	rrf	(??___fltol^(0+384)+1),f
  1584     1479  0CB5               	rrf	??___fltol^(0+384),f
  1585     147A                     u2990:
  1586     147A  3EFF               	addlw	-1
  1587     147B  1D03               	skipz
  1588     147C  2C75               	goto	u2995
  1589     147D  0835               	movf	??___fltol^(0+384),w
  1590     147E  00B9               	movwf	___fltol@sign1^(0+384)
  1591     147F                     l2068:
  1592     147F  17B3               	bsf	(___fltol@f1^(0+384)+2),7
  1593     1480                     l2070:
  1594     1480  30FF               	movlw	255
  1595     1481  05B1               	andwf	___fltol@f1^(0+384),f
  1596     1482  30FF               	movlw	255
  1597     1483  05B2               	andwf	(___fltol@f1+1)^(0+384),f
  1598     1484  30FF               	movlw	255
  1599     1485  05B3               	andwf	(___fltol@f1+2)^(0+384),f
  1600     1486  3000               	movlw	0
  1601     1487  05B4               	andwf	(___fltol@f1+3)^(0+384),f
  1602     1488                     l2072:
  1603     1488  3096               	movlw	150
  1604     1489  02BA               	subwf	___fltol@exp1^(0+384),f
  1605     148A                     l2074:
  1606     148A  1FBA               	btfss	___fltol@exp1^(0+384),7
  1607     148B  2C8D               	goto	u3001
  1608     148C  2C8E               	goto	u3000
  1609     148D                     u3001:
  1610     148D  2CA8               	goto	l2084
  1611     148E                     u3000:
  1612     148E                     l2076:
  1613     148E  083A               	movf	___fltol@exp1^(0+384),w
  1614     148F  3A80               	xorlw	128
  1615     1490  3E97               	addlw	151
  1616     1491  1803               	skipnc
  1617     1492  2C94               	goto	u3011
  1618     1493  2C95               	goto	u3010
  1619     1494                     u3011:
  1620     1494  2C96               	goto	l2082
  1621     1495                     u3010:
  1622     1495  2C63               	goto	l2062
  1623     1496                     l2082:
  1624     1496  3001               	movlw	1
  1625     1497                     u3025:
  1626     1497  1003               	clrc
  1627     1498  0CB4               	rrf	(___fltol@f1+3)^(0+384),f
  1628     1499  0CB3               	rrf	(___fltol@f1+2)^(0+384),f
  1629     149A  0CB2               	rrf	(___fltol@f1+1)^(0+384),f
  1630     149B  0CB1               	rrf	___fltol@f1^(0+384),f
  1631     149C  3EFF               	addlw	-1
  1632     149D  1D03               	skipz
  1633     149E  2C97               	goto	u3025
  1634     149F  3001               	movlw	1
  1635     14A0  00B5               	movwf	??___fltol^(0+384)
  1636     14A1  0835               	movf	??___fltol^(0+384),w
  1637     14A2  07BA               	addwf	___fltol@exp1^(0+384),f
  1638     14A3  1D03               	btfss	3,2
  1639     14A4  2CA6               	goto	u3031
  1640     14A5  2CA7               	goto	u3030
  1641     14A6                     u3031:
  1642     14A6  2C96               	goto	l2082
  1643     14A7                     u3030:
  1644     14A7  2CBF               	goto	l2092
  1645     14A8                     l2084:
  1646     14A8  3020               	movlw	32
  1647     14A9  023A               	subwf	___fltol@exp1^(0+384),w
  1648     14AA  1C03               	skipc
  1649     14AB  2CAD               	goto	u3041
  1650     14AC  2CAE               	goto	u3040
  1651     14AD                     u3041:
  1652     14AD  2CBA               	goto	l403
  1653     14AE                     u3040:
  1654     14AE  2C63               	goto	l2062
  1655     14AF                     l2090:
  1656     14AF  3001               	movlw	1
  1657     14B0  00B5               	movwf	??___fltol^(0+384)
  1658     14B1                     u3055:
  1659     14B1  1003               	clrc
  1660     14B2  0DB1               	rlf	___fltol@f1^(0+384),f
  1661     14B3  0DB2               	rlf	(___fltol@f1+1)^(0+384),f
  1662     14B4  0DB3               	rlf	(___fltol@f1+2)^(0+384),f
  1663     14B5  0DB4               	rlf	(___fltol@f1+3)^(0+384),f
  1664     14B6  0BB5               	decfsz	??___fltol^(0+384),f
  1665     14B7  2CB1               	goto	u3055
  1666     14B8  3001               	movlw	1
  1667     14B9  02BA               	subwf	___fltol@exp1^(0+384),f
  1668     14BA                     l403:
  1669     14BA  083A               	movf	___fltol@exp1^(0+384),w
  1670     14BB  1D03               	btfss	3,2
  1671     14BC  2CBE               	goto	u3061
  1672     14BD  2CBF               	goto	u3060
  1673     14BE                     u3061:
  1674     14BE  2CAF               	goto	l2090
  1675     14BF                     u3060:
  1676     14BF                     l2092:
  1677     14BF  0839               	movf	___fltol@sign1^(0+384),w
  1678     14C0  1903               	btfsc	3,2
  1679     14C1  2CC3               	goto	u3071
  1680     14C2  2CC4               	goto	u3070
  1681     14C3                     u3071:
  1682     14C3  2CCF               	goto	l406
  1683     14C4                     u3070:
  1684     14C4                     l2094:
  1685     14C4  09B1               	comf	___fltol@f1^(0+384),f
  1686     14C5  09B2               	comf	(___fltol@f1+1)^(0+384),f
  1687     14C6  09B3               	comf	(___fltol@f1+2)^(0+384),f
  1688     14C7  09B4               	comf	(___fltol@f1+3)^(0+384),f
  1689     14C8  0AB1               	incf	___fltol@f1^(0+384),f
  1690     14C9  1903               	skipnz
  1691     14CA  0AB2               	incf	(___fltol@f1+1)^(0+384),f
  1692     14CB  1903               	skipnz
  1693     14CC  0AB3               	incf	(___fltol@f1+2)^(0+384),f
  1694     14CD  1903               	skipnz
  1695     14CE  0AB4               	incf	(___fltol@f1+3)^(0+384),f
  1696     14CF                     l406:
  1697     14CF                     l396:
  1698     14CF  0008               	return
  1699     14D0                     __end_of___fltol:
  1700                           
  1701                           	psect	text4
  1702     0021                     __ptext4:	
  1703 ;; *************** function ___flmul *****************
  1704 ;; Defined at:
  1705 ;;		line 8 in file "C:\Program Files\Microchip\xc8\v2.40\pic\sources\c90\common\sprcmul.c"
  1706 ;; Parameters:    Size  Location     Type
  1707 ;;  b               4   23[BANK1 ] long 
  1708 ;;  a               4   27[BANK1 ] long 
  1709 ;; Auto vars:     Size  Location     Type
  1710 ;;  prod            4   43[BANK1 ] struct .
  1711 ;;  grs             4   37[BANK1 ] unsigned long 
  1712 ;;  temp            2   47[BANK1 ] struct .
  1713 ;;  bexp            1   42[BANK1 ] unsigned char 
  1714 ;;  aexp            1   41[BANK1 ] unsigned char 
  1715 ;;  sign            1   36[BANK1 ] unsigned char 
  1716 ;; Return value:  Size  Location     Type
  1717 ;;                  4   23[BANK1 ] unsigned char 
  1718 ;; Registers used:
  1719 ;;		wreg, status,2, status,0, btemp+1, pclath, cstack
  1720 ;; Tracked objects:
  1721 ;;		On entry : 0/0
  1722 ;;		On exit  : 0/0
  1723 ;;		Unchanged: 0/0
  1724 ;; Data sizes:     COMMON   BANK0   BANK1   BANK3   BANK2
  1725 ;;      Params:         0       0       8       0       0
  1726 ;;      Locals:         0       0      13       0       0
  1727 ;;      Temps:          0       0       5       0       0
  1728 ;;      Totals:         0       0      26       0       0
  1729 ;;Total ram usage:       26 bytes
  1730 ;; Hardware stack levels used: 1
  1731 ;; Hardware stack levels required when called: 5
  1732 ;; This function calls:
  1733 ;;		__Umul8_16
  1734 ;; This function is called by:
  1735 ;;		_PWM_SETUP
  1736 ;; This function uses a non-reentrant model
  1737 ;;
  1738                           
  1739     0021                     ___flmul:	
  1740                           ;psect for function ___flmul
  1741                           
  1742     0021                     l2432:	
  1743                           ;incstack = 0
  1744                           ; Regs used in ___flmul: [wreg+status,2+status,0+btemp+1+pclath+cstack]
  1745                           
  1746     0021  1683               	bsf	3,5	;RP0=1, select bank1
  1747     0022  1303               	bcf	3,6	;RP1=0, select bank1
  1748     0023  083A               	movf	(___flmul@b^(0+128)+3),w
  1749     0024  3980               	andlw	128
  1750     0025  00C4               	movwf	___flmul@sign^(0+128)
  1751     0026                     l2434:
  1752     0026  083A               	movf	(___flmul@b^(0+128)+3),w
  1753     0027  00BF               	movwf	??___flmul^(0+128)
  1754     0028  073F               	addwf	??___flmul^(0+128),w
  1755     0029  00CA               	movwf	___flmul@bexp^(0+128)
  1756     002A                     l2436:
  1757     002A  1FB9               	btfss	(___flmul@b^(0+128)+2),7
  1758     002B  282D               	goto	u3841
  1759     002C  282E               	goto	u3840
  1760     002D                     u3841:
  1761     002D  282F               	goto	l2440
  1762     002E                     u3840:
  1763     002E                     l2438:
  1764     002E  144A               	bsf	___flmul@bexp^(0+128),0
  1765     002F                     l2440:
  1766     002F  084A               	movf	___flmul@bexp^(0+128),w
  1767     0030  1903               	btfsc	3,2
  1768     0031  2833               	goto	u3851
  1769     0032  2834               	goto	u3850
  1770     0033                     u3851:
  1771     0033  2843               	goto	l2448
  1772     0034                     u3850:
  1773     0034                     l2442:
  1774     0034  0A4A               	incf	___flmul@bexp^(0+128),w
  1775     0035  1D03               	btfss	3,2
  1776     0036  2838               	goto	u3861
  1777     0037  2839               	goto	u3860
  1778     0038                     u3861:
  1779     0038  2841               	goto	l2446
  1780     0039                     u3860:
  1781     0039                     l2444:
  1782     0039  3000               	movlw	0
  1783     003A  00BA               	movwf	(___flmul@b+3)^(0+128)
  1784     003B  3000               	movlw	0
  1785     003C  00B9               	movwf	(___flmul@b+2)^(0+128)
  1786     003D  3000               	movlw	0
  1787     003E  00B8               	movwf	(___flmul@b+1)^(0+128)
  1788     003F  3000               	movlw	0
  1789     0040  00B7               	movwf	___flmul@b^(0+128)
  1790     0041                     l2446:
  1791     0041  17B9               	bsf	(___flmul@b^(0+128)+2),7
  1792     0042  284B               	goto	l2450
  1793     0043                     l2448:
  1794     0043  3000               	movlw	0
  1795     0044  00BA               	movwf	(___flmul@b+3)^(0+128)
  1796     0045  3000               	movlw	0
  1797     0046  00B9               	movwf	(___flmul@b+2)^(0+128)
  1798     0047  3000               	movlw	0
  1799     0048  00B8               	movwf	(___flmul@b+1)^(0+128)
  1800     0049  3000               	movlw	0
  1801     004A  00B7               	movwf	___flmul@b^(0+128)
  1802     004B                     l2450:
  1803     004B  083E               	movf	(___flmul@a^(0+128)+3),w
  1804     004C  3980               	andlw	128
  1805     004D  00BF               	movwf	??___flmul^(0+128)
  1806     004E  083F               	movf	??___flmul^(0+128),w
  1807     004F  06C4               	xorwf	___flmul@sign^(0+128),f
  1808     0050                     l2452:
  1809     0050  083E               	movf	(___flmul@a^(0+128)+3),w
  1810     0051  00BF               	movwf	??___flmul^(0+128)
  1811     0052  073F               	addwf	??___flmul^(0+128),w
  1812     0053  00C9               	movwf	___flmul@aexp^(0+128)
  1813     0054                     l2454:
  1814     0054  1FBD               	btfss	(___flmul@a^(0+128)+2),7
  1815     0055  2857               	goto	u3871
  1816     0056  2858               	goto	u3870
  1817     0057                     u3871:
  1818     0057  2859               	goto	l2458
  1819     0058                     u3870:
  1820     0058                     l2456:
  1821     0058  1449               	bsf	___flmul@aexp^(0+128),0
  1822     0059                     l2458:
  1823     0059  0849               	movf	___flmul@aexp^(0+128),w
  1824     005A  1903               	btfsc	3,2
  1825     005B  285D               	goto	u3881
  1826     005C  285E               	goto	u3880
  1827     005D                     u3881:
  1828     005D  286D               	goto	l2466
  1829     005E                     u3880:
  1830     005E                     l2460:
  1831     005E  0A49               	incf	___flmul@aexp^(0+128),w
  1832     005F  1D03               	btfss	3,2
  1833     0060  2862               	goto	u3891
  1834     0061  2863               	goto	u3890
  1835     0062                     u3891:
  1836     0062  286B               	goto	l2464
  1837     0063                     u3890:
  1838     0063                     l2462:
  1839     0063  3000               	movlw	0
  1840     0064  00BE               	movwf	(___flmul@a+3)^(0+128)
  1841     0065  3000               	movlw	0
  1842     0066  00BD               	movwf	(___flmul@a+2)^(0+128)
  1843     0067  3000               	movlw	0
  1844     0068  00BC               	movwf	(___flmul@a+1)^(0+128)
  1845     0069  3000               	movlw	0
  1846     006A  00BB               	movwf	___flmul@a^(0+128)
  1847     006B                     l2464:
  1848     006B  17BD               	bsf	(___flmul@a^(0+128)+2),7
  1849     006C  2875               	goto	l2468
  1850     006D                     l2466:
  1851     006D  3000               	movlw	0
  1852     006E  00BE               	movwf	(___flmul@a+3)^(0+128)
  1853     006F  3000               	movlw	0
  1854     0070  00BD               	movwf	(___flmul@a+2)^(0+128)
  1855     0071  3000               	movlw	0
  1856     0072  00BC               	movwf	(___flmul@a+1)^(0+128)
  1857     0073  3000               	movlw	0
  1858     0074  00BB               	movwf	___flmul@a^(0+128)
  1859     0075                     l2468:
  1860     0075  0849               	movf	___flmul@aexp^(0+128),w
  1861     0076  1903               	btfsc	3,2
  1862     0077  2879               	goto	u3901
  1863     0078  287A               	goto	u3900
  1864     0079                     u3901:
  1865     0079  287F               	goto	l2472
  1866     007A                     u3900:
  1867     007A                     l2470:
  1868     007A  084A               	movf	___flmul@bexp^(0+128),w
  1869     007B  1D03               	btfss	3,2
  1870     007C  287E               	goto	u3911
  1871     007D  287F               	goto	u3910
  1872     007E                     u3911:
  1873     007E  2888               	goto	l2476
  1874     007F                     u3910:
  1875     007F                     l2472:
  1876     007F  3000               	movlw	0
  1877     0080  00BA               	movwf	(?___flmul+3)^(0+128)
  1878     0081  3000               	movlw	0
  1879     0082  00B9               	movwf	(?___flmul+2)^(0+128)
  1880     0083  3000               	movlw	0
  1881     0084  00B8               	movwf	(?___flmul+1)^(0+128)
  1882     0085  3000               	movlw	0
  1883     0086  00B7               	movwf	?___flmul^(0+128)
  1884     0087  2B65               	goto	l599
  1885     0088                     l2476:
  1886     0088  0837               	movf	___flmul@b^(0+128),w
  1887     0089  00AE               	movwf	__Umul8_16@multiplicand^(0+128)
  1888     008A  083D               	movf	(___flmul@a^(0+128)+2),w
  1889     008B  160A  118A  22AC  120A  118A  	fcall	__Umul8_16
  1890     0090  1683               	bsf	3,5	;RP0=1, select bank1
  1891     0091  1303               	bcf	3,6	;RP1=0, select bank1
  1892     0092  082F               	movf	(?__Umul8_16+1)^(0+128),w
  1893     0093  00D0               	movwf	(___flmul@temp+1)^(0+128)
  1894     0094  082E               	movf	?__Umul8_16^(0+128),w
  1895     0095  00CF               	movwf	___flmul@temp^(0+128)
  1896     0096                     l2478:
  1897     0096  084F               	movf	___flmul@temp^(0+128),w
  1898     0097  00BF               	movwf	??___flmul^(0+128)
  1899     0098  01C0               	clrf	(??___flmul^(0+128)+1)
  1900     0099  01C1               	clrf	(??___flmul^(0+128)+2)
  1901     009A  01C2               	clrf	(??___flmul^(0+128)+3)
  1902     009B  0842               	movf	(??___flmul+3)^(0+128),w
  1903     009C  00C8               	movwf	(___flmul@grs+3)^(0+128)
  1904     009D  0841               	movf	(??___flmul+2)^(0+128),w
  1905     009E  00C7               	movwf	(___flmul@grs+2)^(0+128)
  1906     009F  0840               	movf	(??___flmul+1)^(0+128),w
  1907     00A0  00C6               	movwf	(___flmul@grs+1)^(0+128)
  1908     00A1  083F               	movf	??___flmul^(0+128),w
  1909     00A2  00C5               	movwf	___flmul@grs^(0+128)
  1910     00A3                     l2480:
  1911     00A3  0850               	movf	(___flmul@temp^(0+128)+1),w
  1912     00A4  00BF               	movwf	??___flmul^(0+128)
  1913     00A5  01C0               	clrf	(??___flmul^(0+128)+1)
  1914     00A6  01C1               	clrf	(??___flmul^(0+128)+2)
  1915     00A7  01C2               	clrf	(??___flmul^(0+128)+3)
  1916     00A8  0842               	movf	(??___flmul+3)^(0+128),w
  1917     00A9  00CE               	movwf	(___flmul@prod+3)^(0+128)
  1918     00AA  0841               	movf	(??___flmul+2)^(0+128),w
  1919     00AB  00CD               	movwf	(___flmul@prod+2)^(0+128)
  1920     00AC  0840               	movf	(??___flmul+1)^(0+128),w
  1921     00AD  00CC               	movwf	(___flmul@prod+1)^(0+128)
  1922     00AE  083F               	movf	??___flmul^(0+128),w
  1923     00AF  00CB               	movwf	___flmul@prod^(0+128)
  1924     00B0  0838               	movf	(___flmul@b^(0+128)+1),w
  1925     00B1  00AE               	movwf	__Umul8_16@multiplicand^(0+128)
  1926     00B2  083C               	movf	(___flmul@a^(0+128)+1),w
  1927     00B3  160A  118A  22AC  120A  118A  	fcall	__Umul8_16
  1928     00B8  1683               	bsf	3,5	;RP0=1, select bank1
  1929     00B9  1303               	bcf	3,6	;RP1=0, select bank1
  1930     00BA  082F               	movf	(?__Umul8_16+1)^(0+128),w
  1931     00BB  00D0               	movwf	(___flmul@temp+1)^(0+128)
  1932     00BC  082E               	movf	?__Umul8_16^(0+128),w
  1933     00BD  00CF               	movwf	___flmul@temp^(0+128)
  1934     00BE                     l2482:
  1935     00BE  084F               	movf	___flmul@temp^(0+128),w
  1936     00BF  00BF               	movwf	??___flmul^(0+128)
  1937     00C0  01C0               	clrf	(??___flmul^(0+128)+1)
  1938     00C1  01C1               	clrf	(??___flmul^(0+128)+2)
  1939     00C2  01C2               	clrf	(??___flmul^(0+128)+3)
  1940     00C3  083F               	movf	??___flmul^(0+128),w
  1941     00C4  07C5               	addwf	___flmul@grs^(0+128),f
  1942     00C5  0840               	movf	(??___flmul+1)^(0+128),w
  1943     00C6  1103               	clrz
  1944     00C7  1803               	skipnc
  1945     00C8  3E01               	addlw	1
  1946     00C9  1903               	skipnz
  1947     00CA  28CC               	goto	u3921
  1948     00CB  07C6               	addwf	(___flmul@grs+1)^(0+128),f
  1949     00CC                     u3921:
  1950     00CC  0841               	movf	(??___flmul+2)^(0+128),w
  1951     00CD  1103               	clrz
  1952     00CE  1803               	skipnc
  1953     00CF  3E01               	addlw	1
  1954     00D0  1903               	skipnz
  1955     00D1  28D3               	goto	u3922
  1956     00D2  07C7               	addwf	(___flmul@grs+2)^(0+128),f
  1957     00D3                     u3922:
  1958     00D3  0842               	movf	(??___flmul+3)^(0+128),w
  1959     00D4  1103               	clrz
  1960     00D5  1803               	skipnc
  1961     00D6  3E01               	addlw	1
  1962     00D7  1903               	skipnz
  1963     00D8  28DA               	goto	u3923
  1964     00D9  07C8               	addwf	(___flmul@grs+3)^(0+128),f
  1965     00DA                     u3923:
  1966     00DA                     l2484:
  1967     00DA  0850               	movf	(___flmul@temp^(0+128)+1),w
  1968     00DB  00BF               	movwf	??___flmul^(0+128)
  1969     00DC  01C0               	clrf	(??___flmul^(0+128)+1)
  1970     00DD  01C1               	clrf	(??___flmul^(0+128)+2)
  1971     00DE  01C2               	clrf	(??___flmul^(0+128)+3)
  1972     00DF  083F               	movf	??___flmul^(0+128),w
  1973     00E0  07CB               	addwf	___flmul@prod^(0+128),f
  1974     00E1  0840               	movf	(??___flmul+1)^(0+128),w
  1975     00E2  1103               	clrz
  1976     00E3  1803               	skipnc
  1977     00E4  3E01               	addlw	1
  1978     00E5  1903               	skipnz
  1979     00E6  28E8               	goto	u3931
  1980     00E7  07CC               	addwf	(___flmul@prod+1)^(0+128),f
  1981     00E8                     u3931:
  1982     00E8  0841               	movf	(??___flmul+2)^(0+128),w
  1983     00E9  1103               	clrz
  1984     00EA  1803               	skipnc
  1985     00EB  3E01               	addlw	1
  1986     00EC  1903               	skipnz
  1987     00ED  28EF               	goto	u3932
  1988     00EE  07CD               	addwf	(___flmul@prod+2)^(0+128),f
  1989     00EF                     u3932:
  1990     00EF  0842               	movf	(??___flmul+3)^(0+128),w
  1991     00F0  1103               	clrz
  1992     00F1  1803               	skipnc
  1993     00F2  3E01               	addlw	1
  1994     00F3  1903               	skipnz
  1995     00F4  28F6               	goto	u3933
  1996     00F5  07CE               	addwf	(___flmul@prod+3)^(0+128),f
  1997     00F6                     u3933:
  1998     00F6  0839               	movf	(___flmul@b^(0+128)+2),w
  1999     00F7  00AE               	movwf	__Umul8_16@multiplicand^(0+128)
  2000     00F8  083B               	movf	___flmul@a^(0+128),w
  2001     00F9  160A  118A  22AC  120A  118A  	fcall	__Umul8_16
  2002     00FE  1683               	bsf	3,5	;RP0=1, select bank1
  2003     00FF  1303               	bcf	3,6	;RP1=0, select bank1
  2004     0100  082F               	movf	(?__Umul8_16+1)^(0+128),w
  2005     0101  00D0               	movwf	(___flmul@temp+1)^(0+128)
  2006     0102  082E               	movf	?__Umul8_16^(0+128),w
  2007     0103  00CF               	movwf	___flmul@temp^(0+128)
  2008     0104                     l2486:
  2009     0104  084F               	movf	___flmul@temp^(0+128),w
  2010     0105  00BF               	movwf	??___flmul^(0+128)
  2011     0106  01C0               	clrf	(??___flmul^(0+128)+1)
  2012     0107  01C1               	clrf	(??___flmul^(0+128)+2)
  2013     0108  01C2               	clrf	(??___flmul^(0+128)+3)
  2014     0109  083F               	movf	??___flmul^(0+128),w
  2015     010A  07C5               	addwf	___flmul@grs^(0+128),f
  2016     010B  0840               	movf	(??___flmul+1)^(0+128),w
  2017     010C  1103               	clrz
  2018     010D  1803               	skipnc
  2019     010E  3E01               	addlw	1
  2020     010F  1903               	skipnz
  2021     0110  2912               	goto	u3941
  2022     0111  07C6               	addwf	(___flmul@grs+1)^(0+128),f
  2023     0112                     u3941:
  2024     0112  0841               	movf	(??___flmul+2)^(0+128),w
  2025     0113  1103               	clrz
  2026     0114  1803               	skipnc
  2027     0115  3E01               	addlw	1
  2028     0116  1903               	skipnz
  2029     0117  2919               	goto	u3942
  2030     0118  07C7               	addwf	(___flmul@grs+2)^(0+128),f
  2031     0119                     u3942:
  2032     0119  0842               	movf	(??___flmul+3)^(0+128),w
  2033     011A  1103               	clrz
  2034     011B  1803               	skipnc
  2035     011C  3E01               	addlw	1
  2036     011D  1903               	skipnz
  2037     011E  2920               	goto	u3943
  2038     011F  07C8               	addwf	(___flmul@grs+3)^(0+128),f
  2039     0120                     u3943:
  2040     0120                     l2488:
  2041     0120  0850               	movf	(___flmul@temp^(0+128)+1),w
  2042     0121  00BF               	movwf	??___flmul^(0+128)
  2043     0122  01C0               	clrf	(??___flmul^(0+128)+1)
  2044     0123  01C1               	clrf	(??___flmul^(0+128)+2)
  2045     0124  01C2               	clrf	(??___flmul^(0+128)+3)
  2046     0125  083F               	movf	??___flmul^(0+128),w
  2047     0126  07CB               	addwf	___flmul@prod^(0+128),f
  2048     0127  0840               	movf	(??___flmul+1)^(0+128),w
  2049     0128  1103               	clrz
  2050     0129  1803               	skipnc
  2051     012A  3E01               	addlw	1
  2052     012B  1903               	skipnz
  2053     012C  292E               	goto	u3951
  2054     012D  07CC               	addwf	(___flmul@prod+1)^(0+128),f
  2055     012E                     u3951:
  2056     012E  0841               	movf	(??___flmul+2)^(0+128),w
  2057     012F  1103               	clrz
  2058     0130  1803               	skipnc
  2059     0131  3E01               	addlw	1
  2060     0132  1903               	skipnz
  2061     0133  2935               	goto	u3952
  2062     0134  07CD               	addwf	(___flmul@prod+2)^(0+128),f
  2063     0135                     u3952:
  2064     0135  0842               	movf	(??___flmul+3)^(0+128),w
  2065     0136  1103               	clrz
  2066     0137  1803               	skipnc
  2067     0138  3E01               	addlw	1
  2068     0139  1903               	skipnz
  2069     013A  293C               	goto	u3953
  2070     013B  07CE               	addwf	(___flmul@prod+3)^(0+128),f
  2071     013C                     u3953:
  2072     013C                     l2490:
  2073     013C  3008               	movlw	8
  2074     013D  00BF               	movwf	??___flmul^(0+128)
  2075     013E                     u3965:
  2076     013E  1003               	clrc
  2077     013F  0DC5               	rlf	___flmul@grs^(0+128),f
  2078     0140  0DC6               	rlf	(___flmul@grs+1)^(0+128),f
  2079     0141  0DC7               	rlf	(___flmul@grs+2)^(0+128),f
  2080     0142  0DC8               	rlf	(___flmul@grs+3)^(0+128),f
  2081     0143  0BBF               	decfsz	??___flmul^(0+128),f
  2082     0144  293E               	goto	u3965
  2083     0145                     l2492:
  2084     0145  0838               	movf	(___flmul@b^(0+128)+1),w
  2085     0146  00AE               	movwf	__Umul8_16@multiplicand^(0+128)
  2086     0147  083B               	movf	___flmul@a^(0+128),w
  2087     0148  160A  118A  22AC  120A  118A  	fcall	__Umul8_16
  2088     014D  1683               	bsf	3,5	;RP0=1, select bank1
  2089     014E  1303               	bcf	3,6	;RP1=0, select bank1
  2090     014F  082F               	movf	(?__Umul8_16+1)^(0+128),w
  2091     0150  00D0               	movwf	(___flmul@temp+1)^(0+128)
  2092     0151  082E               	movf	?__Umul8_16^(0+128),w
  2093     0152  00CF               	movwf	___flmul@temp^(0+128)
  2094     0153                     l2494:
  2095     0153  084F               	movf	___flmul@temp^(0+128),w
  2096     0154  00BF               	movwf	??___flmul^(0+128)
  2097     0155  0850               	movf	(___flmul@temp+1)^(0+128),w
  2098     0156  00C0               	movwf	(??___flmul^(0+128)+1)
  2099     0157  01C1               	clrf	(??___flmul^(0+128)+2)
  2100     0158  01C2               	clrf	(??___flmul^(0+128)+3)
  2101     0159  083F               	movf	??___flmul^(0+128),w
  2102     015A  07C5               	addwf	___flmul@grs^(0+128),f
  2103     015B  0840               	movf	(??___flmul+1)^(0+128),w
  2104     015C  1103               	clrz
  2105     015D  1803               	skipnc
  2106     015E  3E01               	addlw	1
  2107     015F  1903               	skipnz
  2108     0160  2962               	goto	u3971
  2109     0161  07C6               	addwf	(___flmul@grs+1)^(0+128),f
  2110     0162                     u3971:
  2111     0162  0841               	movf	(??___flmul+2)^(0+128),w
  2112     0163  1103               	clrz
  2113     0164  1803               	skipnc
  2114     0165  3E01               	addlw	1
  2115     0166  1903               	skipnz
  2116     0167  2969               	goto	u3972
  2117     0168  07C7               	addwf	(___flmul@grs+2)^(0+128),f
  2118     0169                     u3972:
  2119     0169  0842               	movf	(??___flmul+3)^(0+128),w
  2120     016A  1103               	clrz
  2121     016B  1803               	skipnc
  2122     016C  3E01               	addlw	1
  2123     016D  1903               	skipnz
  2124     016E  2970               	goto	u3973
  2125     016F  07C8               	addwf	(___flmul@grs+3)^(0+128),f
  2126     0170                     u3973:
  2127     0170                     l2496:
  2128     0170  0837               	movf	___flmul@b^(0+128),w
  2129     0171  00AE               	movwf	__Umul8_16@multiplicand^(0+128)
  2130     0172  083C               	movf	(___flmul@a^(0+128)+1),w
  2131     0173  160A  118A  22AC  120A  118A  	fcall	__Umul8_16
  2132     0178  1683               	bsf	3,5	;RP0=1, select bank1
  2133     0179  1303               	bcf	3,6	;RP1=0, select bank1
  2134     017A  082F               	movf	(?__Umul8_16+1)^(0+128),w
  2135     017B  00D0               	movwf	(___flmul@temp+1)^(0+128)
  2136     017C  082E               	movf	?__Umul8_16^(0+128),w
  2137     017D  00CF               	movwf	___flmul@temp^(0+128)
  2138     017E                     l2498:
  2139     017E  084F               	movf	___flmul@temp^(0+128),w
  2140     017F  00BF               	movwf	??___flmul^(0+128)
  2141     0180  0850               	movf	(___flmul@temp+1)^(0+128),w
  2142     0181  00C0               	movwf	(??___flmul^(0+128)+1)
  2143     0182  01C1               	clrf	(??___flmul^(0+128)+2)
  2144     0183  01C2               	clrf	(??___flmul^(0+128)+3)
  2145     0184  083F               	movf	??___flmul^(0+128),w
  2146     0185  07C5               	addwf	___flmul@grs^(0+128),f
  2147     0186  0840               	movf	(??___flmul+1)^(0+128),w
  2148     0187  1103               	clrz
  2149     0188  1803               	skipnc
  2150     0189  3E01               	addlw	1
  2151     018A  1903               	skipnz
  2152     018B  298D               	goto	u3981
  2153     018C  07C6               	addwf	(___flmul@grs+1)^(0+128),f
  2154     018D                     u3981:
  2155     018D  0841               	movf	(??___flmul+2)^(0+128),w
  2156     018E  1103               	clrz
  2157     018F  1803               	skipnc
  2158     0190  3E01               	addlw	1
  2159     0191  1903               	skipnz
  2160     0192  2994               	goto	u3982
  2161     0193  07C7               	addwf	(___flmul@grs+2)^(0+128),f
  2162     0194                     u3982:
  2163     0194  0842               	movf	(??___flmul+3)^(0+128),w
  2164     0195  1103               	clrz
  2165     0196  1803               	skipnc
  2166     0197  3E01               	addlw	1
  2167     0198  1903               	skipnz
  2168     0199  299B               	goto	u3983
  2169     019A  07C8               	addwf	(___flmul@grs+3)^(0+128),f
  2170     019B                     u3983:
  2171     019B                     l2500:
  2172     019B  3008               	movlw	8
  2173     019C  00BF               	movwf	??___flmul^(0+128)
  2174     019D                     u3995:
  2175     019D  1003               	clrc
  2176     019E  0DC5               	rlf	___flmul@grs^(0+128),f
  2177     019F  0DC6               	rlf	(___flmul@grs+1)^(0+128),f
  2178     01A0  0DC7               	rlf	(___flmul@grs+2)^(0+128),f
  2179     01A1  0DC8               	rlf	(___flmul@grs+3)^(0+128),f
  2180     01A2  0BBF               	decfsz	??___flmul^(0+128),f
  2181     01A3  299D               	goto	u3995
  2182     01A4  0837               	movf	___flmul@b^(0+128),w
  2183     01A5  00AE               	movwf	__Umul8_16@multiplicand^(0+128)
  2184     01A6  083B               	movf	___flmul@a^(0+128),w
  2185     01A7  160A  118A  22AC  120A  118A  	fcall	__Umul8_16
  2186     01AC  1683               	bsf	3,5	;RP0=1, select bank1
  2187     01AD  1303               	bcf	3,6	;RP1=0, select bank1
  2188     01AE  082F               	movf	(?__Umul8_16+1)^(0+128),w
  2189     01AF  00D0               	movwf	(___flmul@temp+1)^(0+128)
  2190     01B0  082E               	movf	?__Umul8_16^(0+128),w
  2191     01B1  00CF               	movwf	___flmul@temp^(0+128)
  2192     01B2                     l2502:
  2193     01B2  084F               	movf	___flmul@temp^(0+128),w
  2194     01B3  00BF               	movwf	??___flmul^(0+128)
  2195     01B4  0850               	movf	(___flmul@temp+1)^(0+128),w
  2196     01B5  00C0               	movwf	(??___flmul^(0+128)+1)
  2197     01B6  01C1               	clrf	(??___flmul^(0+128)+2)
  2198     01B7  01C2               	clrf	(??___flmul^(0+128)+3)
  2199     01B8  083F               	movf	??___flmul^(0+128),w
  2200     01B9  07C5               	addwf	___flmul@grs^(0+128),f
  2201     01BA  0840               	movf	(??___flmul+1)^(0+128),w
  2202     01BB  1103               	clrz
  2203     01BC  1803               	skipnc
  2204     01BD  3E01               	addlw	1
  2205     01BE  1903               	skipnz
  2206     01BF  29C1               	goto	u4001
  2207     01C0  07C6               	addwf	(___flmul@grs+1)^(0+128),f
  2208     01C1                     u4001:
  2209     01C1  0841               	movf	(??___flmul+2)^(0+128),w
  2210     01C2  1103               	clrz
  2211     01C3  1803               	skipnc
  2212     01C4  3E01               	addlw	1
  2213     01C5  1903               	skipnz
  2214     01C6  29C8               	goto	u4002
  2215     01C7  07C7               	addwf	(___flmul@grs+2)^(0+128),f
  2216     01C8                     u4002:
  2217     01C8  0842               	movf	(??___flmul+3)^(0+128),w
  2218     01C9  1103               	clrz
  2219     01CA  1803               	skipnc
  2220     01CB  3E01               	addlw	1
  2221     01CC  1903               	skipnz
  2222     01CD  29CF               	goto	u4003
  2223     01CE  07C8               	addwf	(___flmul@grs+3)^(0+128),f
  2224     01CF                     u4003:
  2225     01CF                     l2504:
  2226     01CF  0838               	movf	(___flmul@b^(0+128)+1),w
  2227     01D0  00AE               	movwf	__Umul8_16@multiplicand^(0+128)
  2228     01D1  083D               	movf	(___flmul@a^(0+128)+2),w
  2229     01D2  160A  118A  22AC  120A  118A  	fcall	__Umul8_16
  2230     01D7  1683               	bsf	3,5	;RP0=1, select bank1
  2231     01D8  1303               	bcf	3,6	;RP1=0, select bank1
  2232     01D9  082F               	movf	(?__Umul8_16+1)^(0+128),w
  2233     01DA  00D0               	movwf	(___flmul@temp+1)^(0+128)
  2234     01DB  082E               	movf	?__Umul8_16^(0+128),w
  2235     01DC  00CF               	movwf	___flmul@temp^(0+128)
  2236     01DD  084F               	movf	___flmul@temp^(0+128),w
  2237     01DE  00BF               	movwf	??___flmul^(0+128)
  2238     01DF  0850               	movf	(___flmul@temp+1)^(0+128),w
  2239     01E0  00C0               	movwf	(??___flmul^(0+128)+1)
  2240     01E1  01C1               	clrf	(??___flmul^(0+128)+2)
  2241     01E2  01C2               	clrf	(??___flmul^(0+128)+3)
  2242     01E3  083F               	movf	??___flmul^(0+128),w
  2243     01E4  07CB               	addwf	___flmul@prod^(0+128),f
  2244     01E5  0840               	movf	(??___flmul+1)^(0+128),w
  2245     01E6  1103               	clrz
  2246     01E7  1803               	skipnc
  2247     01E8  3E01               	addlw	1
  2248     01E9  1903               	skipnz
  2249     01EA  29EC               	goto	u4011
  2250     01EB  07CC               	addwf	(___flmul@prod+1)^(0+128),f
  2251     01EC                     u4011:
  2252     01EC  0841               	movf	(??___flmul+2)^(0+128),w
  2253     01ED  1103               	clrz
  2254     01EE  1803               	skipnc
  2255     01EF  3E01               	addlw	1
  2256     01F0  1903               	skipnz
  2257     01F1  29F3               	goto	u4012
  2258     01F2  07CD               	addwf	(___flmul@prod+2)^(0+128),f
  2259     01F3                     u4012:
  2260     01F3  0842               	movf	(??___flmul+3)^(0+128),w
  2261     01F4  1103               	clrz
  2262     01F5  1803               	skipnc
  2263     01F6  3E01               	addlw	1
  2264     01F7  1903               	skipnz
  2265     01F8  29FA               	goto	u4013
  2266     01F9  07CE               	addwf	(___flmul@prod+3)^(0+128),f
  2267     01FA                     u4013:
  2268     01FA                     l2506:
  2269     01FA  0839               	movf	(___flmul@b^(0+128)+2),w
  2270     01FB  00AE               	movwf	__Umul8_16@multiplicand^(0+128)
  2271     01FC  083C               	movf	(___flmul@a^(0+128)+1),w
  2272     01FD  160A  118A  22AC  120A  118A  	fcall	__Umul8_16
  2273     0202  1683               	bsf	3,5	;RP0=1, select bank1
  2274     0203  1303               	bcf	3,6	;RP1=0, select bank1
  2275     0204  082F               	movf	(?__Umul8_16+1)^(0+128),w
  2276     0205  00D0               	movwf	(___flmul@temp+1)^(0+128)
  2277     0206  082E               	movf	?__Umul8_16^(0+128),w
  2278     0207  00CF               	movwf	___flmul@temp^(0+128)
  2279     0208                     l2508:
  2280     0208  084F               	movf	___flmul@temp^(0+128),w
  2281     0209  00BF               	movwf	??___flmul^(0+128)
  2282     020A  0850               	movf	(___flmul@temp+1)^(0+128),w
  2283     020B  00C0               	movwf	(??___flmul^(0+128)+1)
  2284     020C  01C1               	clrf	(??___flmul^(0+128)+2)
  2285     020D  01C2               	clrf	(??___flmul^(0+128)+3)
  2286     020E  083F               	movf	??___flmul^(0+128),w
  2287     020F  07CB               	addwf	___flmul@prod^(0+128),f
  2288     0210  0840               	movf	(??___flmul+1)^(0+128),w
  2289     0211  1103               	clrz
  2290     0212  1803               	skipnc
  2291     0213  3E01               	addlw	1
  2292     0214  1903               	skipnz
  2293     0215  2A17               	goto	u4021
  2294     0216  07CC               	addwf	(___flmul@prod+1)^(0+128),f
  2295     0217                     u4021:
  2296     0217  0841               	movf	(??___flmul+2)^(0+128),w
  2297     0218  1103               	clrz
  2298     0219  1803               	skipnc
  2299     021A  3E01               	addlw	1
  2300     021B  1903               	skipnz
  2301     021C  2A1E               	goto	u4022
  2302     021D  07CD               	addwf	(___flmul@prod+2)^(0+128),f
  2303     021E                     u4022:
  2304     021E  0842               	movf	(??___flmul+3)^(0+128),w
  2305     021F  1103               	clrz
  2306     0220  1803               	skipnc
  2307     0221  3E01               	addlw	1
  2308     0222  1903               	skipnz
  2309     0223  2A25               	goto	u4023
  2310     0224  07CE               	addwf	(___flmul@prod+3)^(0+128),f
  2311     0225                     u4023:
  2312     0225  0839               	movf	(___flmul@b^(0+128)+2),w
  2313     0226  00AE               	movwf	__Umul8_16@multiplicand^(0+128)
  2314     0227  083D               	movf	(___flmul@a^(0+128)+2),w
  2315     0228  160A  118A  22AC  120A  118A  	fcall	__Umul8_16
  2316     022D  1683               	bsf	3,5	;RP0=1, select bank1
  2317     022E  1303               	bcf	3,6	;RP1=0, select bank1
  2318     022F  082F               	movf	(?__Umul8_16+1)^(0+128),w
  2319     0230  00D0               	movwf	(___flmul@temp+1)^(0+128)
  2320     0231  082E               	movf	?__Umul8_16^(0+128),w
  2321     0232  00CF               	movwf	___flmul@temp^(0+128)
  2322     0233                     l2510:
  2323     0233  084F               	movf	___flmul@temp^(0+128),w
  2324     0234  00BF               	movwf	??___flmul^(0+128)
  2325     0235  0850               	movf	(___flmul@temp+1)^(0+128),w
  2326     0236  00C0               	movwf	(??___flmul^(0+128)+1)
  2327     0237  01C1               	clrf	(??___flmul^(0+128)+2)
  2328     0238  01C2               	clrf	(??___flmul^(0+128)+3)
  2329     0239  3008               	movlw	8
  2330     023A                     u4035:
  2331     023A  1003               	clrc
  2332     023B  0DBF               	rlf	??___flmul^(0+128),f
  2333     023C  0DC0               	rlf	(??___flmul^(0+128)+1),f
  2334     023D  0DC1               	rlf	(??___flmul^(0+128)+2),f
  2335     023E  0DC2               	rlf	(??___flmul^(0+128)+3),f
  2336     023F                     u4030:
  2337     023F  3EFF               	addlw	-1
  2338     0240  1D03               	skipz
  2339     0241  2A3A               	goto	u4035
  2340     0242  083F               	movf	??___flmul^(0+128),w
  2341     0243  07CB               	addwf	___flmul@prod^(0+128),f
  2342     0244  0840               	movf	(??___flmul+1)^(0+128),w
  2343     0245  1103               	clrz
  2344     0246  1803               	skipnc
  2345     0247  3E01               	addlw	1
  2346     0248  1903               	skipnz
  2347     0249  2A4B               	goto	u4041
  2348     024A  07CC               	addwf	(___flmul@prod+1)^(0+128),f
  2349     024B                     u4041:
  2350     024B  0841               	movf	(??___flmul+2)^(0+128),w
  2351     024C  1103               	clrz
  2352     024D  1803               	skipnc
  2353     024E  3E01               	addlw	1
  2354     024F  1903               	skipnz
  2355     0250  2A52               	goto	u4042
  2356     0251  07CD               	addwf	(___flmul@prod+2)^(0+128),f
  2357     0252                     u4042:
  2358     0252  0842               	movf	(??___flmul+3)^(0+128),w
  2359     0253  1103               	clrz
  2360     0254  1803               	skipnc
  2361     0255  3E01               	addlw	1
  2362     0256  1903               	skipnz
  2363     0257  2A59               	goto	u4043
  2364     0258  07CE               	addwf	(___flmul@prod+3)^(0+128),f
  2365     0259                     u4043:
  2366     0259                     l2512:
  2367     0259  0845               	movf	___flmul@grs^(0+128),w
  2368     025A  00BF               	movwf	??___flmul^(0+128)
  2369     025B  0846               	movf	(___flmul@grs+1)^(0+128),w
  2370     025C  00C0               	movwf	(??___flmul^(0+128)+1)
  2371     025D  0847               	movf	(___flmul@grs+2)^(0+128),w
  2372     025E  00C1               	movwf	(??___flmul^(0+128)+2)
  2373     025F  0848               	movf	(___flmul@grs+3)^(0+128),w
  2374     0260  00C2               	movwf	(??___flmul^(0+128)+3)
  2375     0261  3018               	movlw	24
  2376     0262                     u4055:
  2377     0262  1003               	clrc
  2378     0263  0CC2               	rrf	(??___flmul^(0+128)+3),f
  2379     0264  0CC1               	rrf	(??___flmul^(0+128)+2),f
  2380     0265  0CC0               	rrf	(??___flmul^(0+128)+1),f
  2381     0266  0CBF               	rrf	??___flmul^(0+128),f
  2382     0267                     u4050:
  2383     0267  3EFF               	addlw	-1
  2384     0268  1D03               	skipz
  2385     0269  2A62               	goto	u4055
  2386     026A  083F               	movf	??___flmul^(0+128),w
  2387     026B  07CB               	addwf	___flmul@prod^(0+128),f
  2388     026C  0840               	movf	(??___flmul+1)^(0+128),w
  2389     026D  1103               	clrz
  2390     026E  1803               	skipnc
  2391     026F  3E01               	addlw	1
  2392     0270  1903               	skipnz
  2393     0271  2A73               	goto	u4061
  2394     0272  07CC               	addwf	(___flmul@prod+1)^(0+128),f
  2395     0273                     u4061:
  2396     0273  0841               	movf	(??___flmul+2)^(0+128),w
  2397     0274  1103               	clrz
  2398     0275  1803               	skipnc
  2399     0276  3E01               	addlw	1
  2400     0277  1903               	skipnz
  2401     0278  2A7A               	goto	u4062
  2402     0279  07CD               	addwf	(___flmul@prod+2)^(0+128),f
  2403     027A                     u4062:
  2404     027A  0842               	movf	(??___flmul+3)^(0+128),w
  2405     027B  1103               	clrz
  2406     027C  1803               	skipnc
  2407     027D  3E01               	addlw	1
  2408     027E  1903               	skipnz
  2409     027F  2A81               	goto	u4063
  2410     0280  07CE               	addwf	(___flmul@prod+3)^(0+128),f
  2411     0281                     u4063:
  2412     0281                     l2514:
  2413     0281  3008               	movlw	8
  2414     0282  00BF               	movwf	??___flmul^(0+128)
  2415     0283                     u4075:
  2416     0283  1003               	clrc
  2417     0284  0DC5               	rlf	___flmul@grs^(0+128),f
  2418     0285  0DC6               	rlf	(___flmul@grs+1)^(0+128),f
  2419     0286  0DC7               	rlf	(___flmul@grs+2)^(0+128),f
  2420     0287  0DC8               	rlf	(___flmul@grs+3)^(0+128),f
  2421     0288  0BBF               	decfsz	??___flmul^(0+128),f
  2422     0289  2A83               	goto	u4075
  2423     028A                     l2516:
  2424     028A  084A               	movf	___flmul@bexp^(0+128),w
  2425     028B  0749               	addwf	___flmul@aexp^(0+128),w
  2426     028C  00BF               	movwf	??___flmul^(0+128)
  2427     028D  01C0               	clrf	(??___flmul^(0+128)+1)
  2428     028E  0DC0               	rlf	(??___flmul+1)^(0+128),f
  2429     028F  083F               	movf	??___flmul^(0+128),w
  2430     0290  3E82               	addlw	130
  2431     0291  00CF               	movwf	___flmul@temp^(0+128)
  2432     0292  0840               	movf	(??___flmul+1)^(0+128),w
  2433     0293  1803               	skipnc
  2434     0294  3E01               	addlw	1
  2435     0295  3EFF               	addlw	255
  2436     0296  00D0               	movwf	(___flmul@temp+1)^(0+128)
  2437     0297  2AB5               	goto	l2528
  2438     0298                     l2518:
  2439     0298  3001               	movlw	1
  2440     0299  00BF               	movwf	??___flmul^(0+128)
  2441     029A                     u4085:
  2442     029A  1003               	clrc
  2443     029B  0DCB               	rlf	___flmul@prod^(0+128),f
  2444     029C  0DCC               	rlf	(___flmul@prod+1)^(0+128),f
  2445     029D  0DCD               	rlf	(___flmul@prod+2)^(0+128),f
  2446     029E  0DCE               	rlf	(___flmul@prod+3)^(0+128),f
  2447     029F  0BBF               	decfsz	??___flmul^(0+128),f
  2448     02A0  2A9A               	goto	u4085
  2449     02A1                     l2520:
  2450     02A1  1FC8               	btfss	(___flmul@grs+3)^(0+128),7
  2451     02A2  2AA4               	goto	u4091
  2452     02A3  2AA5               	goto	u4090
  2453     02A4                     u4091:
  2454     02A4  2AA6               	goto	l2524
  2455     02A5                     u4090:
  2456     02A5                     l2522:
  2457     02A5  144B               	bsf	___flmul@prod^(0+128),0
  2458     02A6                     l2524:
  2459     02A6  3001               	movlw	1
  2460     02A7  00BF               	movwf	??___flmul^(0+128)
  2461     02A8                     u4105:
  2462     02A8  1003               	clrc
  2463     02A9  0DC5               	rlf	___flmul@grs^(0+128),f
  2464     02AA  0DC6               	rlf	(___flmul@grs+1)^(0+128),f
  2465     02AB  0DC7               	rlf	(___flmul@grs+2)^(0+128),f
  2466     02AC  0DC8               	rlf	(___flmul@grs+3)^(0+128),f
  2467     02AD  0BBF               	decfsz	??___flmul^(0+128),f
  2468     02AE  2AA8               	goto	u4105
  2469     02AF                     l2526:
  2470     02AF  30FF               	movlw	255
  2471     02B0  07CF               	addwf	___flmul@temp^(0+128),f
  2472     02B1  1803               	skipnc
  2473     02B2  0AD0               	incf	(___flmul@temp+1)^(0+128),f
  2474     02B3  30FF               	movlw	255
  2475     02B4  07D0               	addwf	(___flmul@temp+1)^(0+128),f
  2476     02B5                     l2528:
  2477     02B5  1FCD               	btfss	(___flmul@prod+2)^(0+128),7
  2478     02B6  2AB8               	goto	u4111
  2479     02B7  2AB9               	goto	u4110
  2480     02B8                     u4111:
  2481     02B8  2A98               	goto	l2518
  2482     02B9                     u4110:
  2483     02B9                     l2530:
  2484     02B9  01C9               	clrf	___flmul@aexp^(0+128)
  2485     02BA                     l2532:
  2486     02BA  1FC8               	btfss	(___flmul@grs+3)^(0+128),7
  2487     02BB  2ABD               	goto	u4121
  2488     02BC  2ABE               	goto	u4120
  2489     02BD                     u4121:
  2490     02BD  2ADA               	goto	l2540
  2491     02BE                     u4120:
  2492     02BE                     l2534:
  2493     02BE  30FF               	movlw	255
  2494     02BF  0545               	andwf	___flmul@grs^(0+128),w
  2495     02C0  00BF               	movwf	??___flmul^(0+128)
  2496     02C1  30FF               	movlw	255
  2497     02C2  0546               	andwf	(___flmul@grs+1)^(0+128),w
  2498     02C3  00C0               	movwf	(??___flmul^(0+128)+1)
  2499     02C4  30FF               	movlw	255
  2500     02C5  0547               	andwf	(___flmul@grs+2)^(0+128),w
  2501     02C6  00C1               	movwf	(??___flmul^(0+128)+2)
  2502     02C7  307F               	movlw	127
  2503     02C8  0548               	andwf	(___flmul@grs+3)^(0+128),w
  2504     02C9  00C2               	movwf	(??___flmul^(0+128)+3)
  2505     02CA  0842               	movf	(??___flmul+3)^(0+128),w
  2506     02CB  0441               	iorwf	(??___flmul+2)^(0+128),w
  2507     02CC  0440               	iorwf	(??___flmul+1)^(0+128),w
  2508     02CD  043F               	iorwf	??___flmul^(0+128),w
  2509     02CE  1903               	skipnz
  2510     02CF  2AD1               	goto	u4131
  2511     02D0  2AD2               	goto	u4130
  2512     02D1                     u4131:
  2513     02D1  2AD5               	goto	l605
  2514     02D2                     u4130:
  2515     02D2                     l2536:
  2516     02D2  01C9               	clrf	___flmul@aexp^(0+128)
  2517     02D3  0AC9               	incf	___flmul@aexp^(0+128),f
  2518     02D4  2ADA               	goto	l2540
  2519     02D5                     l605:
  2520     02D5  1C4B               	btfss	___flmul@prod^(0+128),0
  2521     02D6  2AD8               	goto	u4141
  2522     02D7  2AD9               	goto	u4140
  2523     02D8                     u4141:
  2524     02D8  2ADA               	goto	l2540
  2525     02D9                     u4140:
  2526     02D9  2AD2               	goto	l2536
  2527     02DA                     l2540:
  2528     02DA  0849               	movf	___flmul@aexp^(0+128),w
  2529     02DB  1903               	btfsc	3,2
  2530     02DC  2ADE               	goto	u4151
  2531     02DD  2ADF               	goto	u4150
  2532     02DE                     u4151:
  2533     02DE  2B10               	goto	l2550
  2534     02DF                     u4150:
  2535     02DF                     l2542:
  2536     02DF  3001               	movlw	1
  2537     02E0  07CB               	addwf	___flmul@prod^(0+128),f
  2538     02E1  3000               	movlw	0
  2539     02E2  1803               	skipnc
  2540     02E3  3001               	movlw	1
  2541     02E4  07CC               	addwf	(___flmul@prod+1)^(0+128),f
  2542     02E5  3000               	movlw	0
  2543     02E6  1803               	skipnc
  2544     02E7  3001               	movlw	1
  2545     02E8  07CD               	addwf	(___flmul@prod+2)^(0+128),f
  2546     02E9  3000               	movlw	0
  2547     02EA  1803               	skipnc
  2548     02EB  3001               	movlw	1
  2549     02EC  07CE               	addwf	(___flmul@prod+3)^(0+128),f
  2550     02ED                     l2544:
  2551     02ED  1C4E               	btfss	(___flmul@prod+3)^(0+128),0
  2552     02EE  2AF0               	goto	u4161
  2553     02EF  2AF1               	goto	u4160
  2554     02F0                     u4161:
  2555     02F0  2B10               	goto	l2550
  2556     02F1                     u4160:
  2557     02F1                     l2546:
  2558     02F1  084B               	movf	___flmul@prod^(0+128),w
  2559     02F2  00BF               	movwf	??___flmul^(0+128)
  2560     02F3  084C               	movf	(___flmul@prod+1)^(0+128),w
  2561     02F4  00C0               	movwf	(??___flmul^(0+128)+1)
  2562     02F5  084D               	movf	(___flmul@prod+2)^(0+128),w
  2563     02F6  00C1               	movwf	(??___flmul^(0+128)+2)
  2564     02F7  084E               	movf	(___flmul@prod+3)^(0+128),w
  2565     02F8  00C2               	movwf	(??___flmul^(0+128)+3)
  2566     02F9  3001               	movlw	1
  2567     02FA  00C3               	movwf	(??___flmul+4)^(0+128)
  2568     02FB                     u4175:
  2569     02FB  0D42               	rlf	(??___flmul^(0+128)+3),w
  2570     02FC  0CC2               	rrf	(??___flmul^(0+128)+3),f
  2571     02FD  0CC1               	rrf	(??___flmul^(0+128)+2),f
  2572     02FE  0CC0               	rrf	(??___flmul^(0+128)+1),f
  2573     02FF  0CBF               	rrf	??___flmul^(0+128),f
  2574     0300                     u4170:
  2575     0300  0BC3               	decfsz	(??___flmul+4)^(0+128),f
  2576     0301  2AFB               	goto	u4175
  2577     0302  0842               	movf	(??___flmul+3)^(0+128),w
  2578     0303  00CE               	movwf	(___flmul@prod+3)^(0+128)
  2579     0304  0841               	movf	(??___flmul+2)^(0+128),w
  2580     0305  00CD               	movwf	(___flmul@prod+2)^(0+128)
  2581     0306  0840               	movf	(??___flmul+1)^(0+128),w
  2582     0307  00CC               	movwf	(___flmul@prod+1)^(0+128)
  2583     0308  083F               	movf	??___flmul^(0+128),w
  2584     0309  00CB               	movwf	___flmul@prod^(0+128)
  2585     030A                     l2548:
  2586     030A  3001               	movlw	1
  2587     030B  07CF               	addwf	___flmul@temp^(0+128),f
  2588     030C  1803               	skipnc
  2589     030D  0AD0               	incf	(___flmul@temp+1)^(0+128),f
  2590     030E  3000               	movlw	0
  2591     030F  07D0               	addwf	(___flmul@temp+1)^(0+128),f
  2592     0310                     l2550:
  2593     0310  0850               	movf	(___flmul@temp+1)^(0+128),w
  2594     0311  3A80               	xorlw	128
  2595     0312  00FF               	movwf	btemp+1
  2596     0313  3080               	movlw	128
  2597     0314  027F               	subwf	btemp+1,w
  2598     0315  1D03               	skipz
  2599     0316  2B19               	goto	u4185
  2600     0317  30FF               	movlw	255
  2601     0318  024F               	subwf	___flmul@temp^(0+128),w
  2602     0319                     u4185:
  2603     0319  1C03               	skipc
  2604     031A  2B1C               	goto	u4181
  2605     031B  2B1D               	goto	u4180
  2606     031C                     u4181:
  2607     031C  2B28               	goto	l2554
  2608     031D                     u4180:
  2609     031D                     l2552:
  2610     031D  307F               	movlw	127
  2611     031E  1683               	bsf	3,5	;RP0=1, select bank1
  2612     031F  1303               	bcf	3,6	;RP1=0, select bank1
  2613     0320  00CE               	movwf	(___flmul@prod+3)^(0+128)
  2614     0321  3080               	movlw	128
  2615     0322  00CD               	movwf	(___flmul@prod+2)^(0+128)
  2616     0323  3000               	movlw	0
  2617     0324  00CC               	movwf	(___flmul@prod+1)^(0+128)
  2618     0325  3000               	movlw	0
  2619     0326  00CB               	movwf	___flmul@prod^(0+128)
  2620     0327  2B59               	goto	l611
  2621     0328                     l2554:
  2622     0328  1683               	bsf	3,5	;RP0=1, select bank1
  2623     0329  1303               	bcf	3,6	;RP1=0, select bank1
  2624     032A  0850               	movf	(___flmul@temp+1)^(0+128),w
  2625     032B  3A80               	xorlw	128
  2626     032C  00FF               	movwf	btemp+1
  2627     032D  3080               	movlw	128
  2628     032E  027F               	subwf	btemp+1,w
  2629     032F  1D03               	skipz
  2630     0330  2B33               	goto	u4195
  2631     0331  3001               	movlw	1
  2632     0332  024F               	subwf	___flmul@temp^(0+128),w
  2633     0333                     u4195:
  2634     0333  1803               	skipnc
  2635     0334  2B36               	goto	u4191
  2636     0335  2B37               	goto	u4190
  2637     0336                     u4191:
  2638     0336  2B43               	goto	l2560
  2639     0337                     u4190:
  2640     0337                     l2556:
  2641     0337  3000               	movlw	0
  2642     0338  1683               	bsf	3,5	;RP0=1, select bank1
  2643     0339  1303               	bcf	3,6	;RP1=0, select bank1
  2644     033A  00CE               	movwf	(___flmul@prod+3)^(0+128)
  2645     033B  3000               	movlw	0
  2646     033C  00CD               	movwf	(___flmul@prod+2)^(0+128)
  2647     033D  3000               	movlw	0
  2648     033E  00CC               	movwf	(___flmul@prod+1)^(0+128)
  2649     033F  3000               	movlw	0
  2650     0340  00CB               	movwf	___flmul@prod^(0+128)
  2651     0341                     l2558:
  2652     0341  01C4               	clrf	___flmul@sign^(0+128)
  2653     0342  2B59               	goto	l611
  2654     0343                     l2560:
  2655     0343  1683               	bsf	3,5	;RP0=1, select bank1
  2656     0344  1303               	bcf	3,6	;RP1=0, select bank1
  2657     0345  084F               	movf	___flmul@temp^(0+128),w
  2658     0346  00CA               	movwf	___flmul@bexp^(0+128)
  2659     0347  30FF               	movlw	255
  2660     0348  05CB               	andwf	___flmul@prod^(0+128),f
  2661     0349  30FF               	movlw	255
  2662     034A  05CC               	andwf	(___flmul@prod+1)^(0+128),f
  2663     034B  307F               	movlw	127
  2664     034C  05CD               	andwf	(___flmul@prod+2)^(0+128),f
  2665     034D  3000               	movlw	0
  2666     034E  05CE               	andwf	(___flmul@prod+3)^(0+128),f
  2667     034F                     l2562:
  2668     034F  1C4A               	btfss	___flmul@bexp^(0+128),0
  2669     0350  2B52               	goto	u4201
  2670     0351  2B53               	goto	u4200
  2671     0352                     u4201:
  2672     0352  2B54               	goto	l2566
  2673     0353                     u4200:
  2674     0353                     l2564:
  2675     0353  17CD               	bsf	(___flmul@prod^(0+128)+2),7
  2676     0354                     l2566:
  2677     0354  084A               	movf	___flmul@bexp^(0+128),w
  2678     0355  00BF               	movwf	??___flmul^(0+128)
  2679     0356  1003               	clrc
  2680     0357  0C3F               	rrf	??___flmul^(0+128),w
  2681     0358  00CE               	movwf	(___flmul@prod^(0+128)+3)
  2682     0359                     l611:
  2683     0359  0844               	movf	___flmul@sign^(0+128),w
  2684     035A  00BF               	movwf	??___flmul^(0+128)
  2685     035B  083F               	movf	??___flmul^(0+128),w
  2686     035C  04CE               	iorwf	(___flmul@prod^(0+128)+3),f
  2687     035D                     l2568:
  2688     035D  084E               	movf	(___flmul@prod+3)^(0+128),w
  2689     035E  00BA               	movwf	(?___flmul+3)^(0+128)
  2690     035F  084D               	movf	(___flmul@prod+2)^(0+128),w
  2691     0360  00B9               	movwf	(?___flmul+2)^(0+128)
  2692     0361  084C               	movf	(___flmul@prod+1)^(0+128),w
  2693     0362  00B8               	movwf	(?___flmul+1)^(0+128)
  2694     0363  084B               	movf	___flmul@prod^(0+128),w
  2695     0364  00B7               	movwf	?___flmul^(0+128)
  2696     0365                     l599:
  2697     0365  0008               	return
  2698     0366                     __end_of___flmul:
  2699                           
  2700                           	psect	text5
  2701     12AC                     __ptext5:	
  2702 ;; *************** function __Umul8_16 *****************
  2703 ;; Defined at:
  2704 ;;		line 4 in file "C:\Program Files\Microchip\xc8\v2.40\pic\sources\c90\common\Umul8_16.c"
  2705 ;; Parameters:    Size  Location     Type
  2706 ;;  multiplier      1    wreg     unsigned char 
  2707 ;;  multiplicand    1   14[BANK1 ] unsigned char 
  2708 ;; Auto vars:     Size  Location     Type
  2709 ;;  multiplier      1   22[BANK1 ] unsigned char 
  2710 ;;  word_mpld       2   20[BANK1 ] unsigned int 
  2711 ;;  product         2   18[BANK1 ] unsigned int 
  2712 ;; Return value:  Size  Location     Type
  2713 ;;                  2   14[BANK1 ] unsigned int 
  2714 ;; Registers used:
  2715 ;;		wreg, status,2, status,0
  2716 ;; Tracked objects:
  2717 ;;		On entry : 0/0
  2718 ;;		On exit  : 0/0
  2719 ;;		Unchanged: 0/0
  2720 ;; Data sizes:     COMMON   BANK0   BANK1   BANK3   BANK2
  2721 ;;      Params:         0       0       2       0       0
  2722 ;;      Locals:         0       0       5       0       0
  2723 ;;      Temps:          0       0       2       0       0
  2724 ;;      Totals:         0       0       9       0       0
  2725 ;;Total ram usage:        9 bytes
  2726 ;; Hardware stack levels used: 1
  2727 ;; Hardware stack levels required when called: 4
  2728 ;; This function calls:
  2729 ;;		Nothing
  2730 ;; This function is called by:
  2731 ;;		___flmul
  2732 ;; This function uses a non-reentrant model
  2733 ;;
  2734                           
  2735     12AC                     __Umul8_16:	
  2736                           ;psect for function __Umul8_16
  2737                           
  2738                           
  2739                           ;incstack = 0
  2740                           ; Regs used in __Umul8_16: [wreg+status,2+status,0]
  2741                           ;__Umul8_16@multiplier stored from wreg
  2742     12AC  1683               	bsf	3,5	;RP0=1, select bank1
  2743     12AD  1303               	bcf	3,6	;RP1=0, select bank1
  2744     12AE  00B6               	movwf	__Umul8_16@multiplier^(0+128)
  2745     12AF                     l2046:
  2746     12AF  01B2               	clrf	__Umul8_16@product^(0+128)
  2747     12B0  01B3               	clrf	(__Umul8_16@product+1)^(0+128)
  2748     12B1                     l2048:
  2749     12B1  082E               	movf	__Umul8_16@multiplicand^(0+128),w
  2750     12B2  00B0               	movwf	??__Umul8_16^(0+128)
  2751     12B3  01B1               	clrf	(??__Umul8_16^(0+128)+1)
  2752     12B4  0830               	movf	??__Umul8_16^(0+128),w
  2753     12B5  00B4               	movwf	__Umul8_16@word_mpld^(0+128)
  2754     12B6  0831               	movf	(??__Umul8_16+1)^(0+128),w
  2755     12B7  00B5               	movwf	(__Umul8_16@word_mpld+1)^(0+128)
  2756     12B8                     l2050:
  2757     12B8  1C36               	btfss	__Umul8_16@multiplier^(0+128),0
  2758     12B9  2ABB               	goto	u2951
  2759     12BA  2ABC               	goto	u2950
  2760     12BB                     u2951:
  2761     12BB  2AC2               	goto	l618
  2762     12BC                     u2950:
  2763     12BC                     l2052:
  2764     12BC  0834               	movf	__Umul8_16@word_mpld^(0+128),w
  2765     12BD  07B2               	addwf	__Umul8_16@product^(0+128),f
  2766     12BE  1803               	skipnc
  2767     12BF  0AB3               	incf	(__Umul8_16@product+1)^(0+128),f
  2768     12C0  0835               	movf	(__Umul8_16@word_mpld+1)^(0+128),w
  2769     12C1  07B3               	addwf	(__Umul8_16@product+1)^(0+128),f
  2770     12C2                     l618:
  2771     12C2  3001               	movlw	1
  2772     12C3                     u2965:
  2773     12C3  1003               	clrc
  2774     12C4  0DB4               	rlf	__Umul8_16@word_mpld^(0+128),f
  2775     12C5  0DB5               	rlf	(__Umul8_16@word_mpld+1)^(0+128),f
  2776     12C6  3EFF               	addlw	-1
  2777     12C7  1D03               	skipz
  2778     12C8  2AC3               	goto	u2965
  2779     12C9  1003               	clrc
  2780     12CA  0CB6               	rrf	__Umul8_16@multiplier^(0+128),f
  2781     12CB                     l2054:
  2782     12CB  0836               	movf	__Umul8_16@multiplier^(0+128),w
  2783     12CC  1D03               	btfss	3,2
  2784     12CD  2ACF               	goto	u2971
  2785     12CE  2AD0               	goto	u2970
  2786     12CF                     u2971:
  2787     12CF  2AB8               	goto	l2050
  2788     12D0                     u2970:
  2789     12D0                     l2056:
  2790     12D0  0833               	movf	(__Umul8_16@product+1)^(0+128),w
  2791     12D1  00AF               	movwf	(?__Umul8_16+1)^(0+128)
  2792     12D2  0832               	movf	__Umul8_16@product^(0+128),w
  2793     12D3  00AE               	movwf	?__Umul8_16^(0+128)
  2794     12D4                     l620:
  2795     12D4  0008               	return
  2796     12D5                     __end_of__Umul8_16:
  2797                           
  2798                           	psect	text6
  2799     0D6E                     __ptext6:	
  2800 ;; *************** function ___fldiv *****************
  2801 ;; Defined at:
  2802 ;;		line 8 in file "C:\Program Files\Microchip\xc8\v2.40\pic\sources\c90\common\sprcdiv.c"
  2803 ;; Parameters:    Size  Location     Type
  2804 ;;  a               4   49[BANK1 ] unsigned int 
  2805 ;;  b               4   53[BANK1 ] unsigned int 
  2806 ;; Auto vars:     Size  Location     Type
  2807 ;;  grs             4    7[BANK3 ] unsigned long 
  2808 ;;  rem             4    0[BANK3 ] unsigned long 
  2809 ;;  new_exp         2    5[BANK3 ] int 
  2810 ;;  aexp            1   12[BANK3 ] unsigned char 
  2811 ;;  bexp            1   11[BANK3 ] unsigned char 
  2812 ;;  sign            1    4[BANK3 ] unsigned char 
  2813 ;; Return value:  Size  Location     Type
  2814 ;;                  4   49[BANK1 ] unsigned char 
  2815 ;; Registers used:
  2816 ;;		wreg, status,2, status,0, btemp+1
  2817 ;; Tracked objects:
  2818 ;;		On entry : 0/0
  2819 ;;		On exit  : 0/0
  2820 ;;		Unchanged: 0/0
  2821 ;; Data sizes:     COMMON   BANK0   BANK1   BANK3   BANK2
  2822 ;;      Params:         0       0       8       0       0
  2823 ;;      Locals:         0       0       0      13       0
  2824 ;;      Temps:          0       0       5       0       0
  2825 ;;      Totals:         0       0      13      13       0
  2826 ;;Total ram usage:       26 bytes
  2827 ;; Hardware stack levels used: 1
  2828 ;; Hardware stack levels required when called: 4
  2829 ;; This function calls:
  2830 ;;		Nothing
  2831 ;; This function is called by:
  2832 ;;		_PWM_SETUP
  2833 ;; This function uses a non-reentrant model
  2834 ;;
  2835                           
  2836     0D6E                     ___fldiv:	
  2837                           ;psect for function ___fldiv
  2838                           
  2839     0D6E                     l2290:	
  2840                           ;incstack = 0
  2841                           ; Regs used in ___fldiv: [wreg+status,2+status,0+btemp+1]
  2842                           
  2843     0D6E  1683               	bsf	3,5	;RP0=1, select bank1
  2844     0D6F  1303               	bcf	3,6	;RP1=0, select bank1
  2845     0D70  0858               	movf	(___fldiv@b^(0+128)+3),w
  2846     0D71  3980               	andlw	128
  2847     0D72  1683               	bsf	3,5	;RP0=1, select bank3
  2848     0D73  1703               	bsf	3,6	;RP1=1, select bank3
  2849     0D74  0094               	movwf	___fldiv@sign^(0+384)
  2850     0D75                     l2292:
  2851     0D75  1683               	bsf	3,5	;RP0=1, select bank1
  2852     0D76  1303               	bcf	3,6	;RP1=0, select bank1
  2853     0D77  0858               	movf	(___fldiv@b^(0+128)+3),w
  2854     0D78  00D9               	movwf	??___fldiv^(0+128)
  2855     0D79  0759               	addwf	??___fldiv^(0+128),w
  2856     0D7A  1683               	bsf	3,5	;RP0=1, select bank3
  2857     0D7B  1703               	bsf	3,6	;RP1=1, select bank3
  2858     0D7C  009B               	movwf	___fldiv@bexp^(0+384)
  2859     0D7D                     l2294:
  2860     0D7D  1683               	bsf	3,5	;RP0=1, select bank1
  2861     0D7E  1303               	bcf	3,6	;RP1=0, select bank1
  2862     0D7F  1FD7               	btfss	(___fldiv@b^(0+128)+2),7
  2863     0D80  2D82               	goto	u3541
  2864     0D81  2D83               	goto	u3540
  2865     0D82                     u3541:
  2866     0D82  2D86               	goto	l2298
  2867     0D83                     u3540:
  2868     0D83                     l2296:
  2869     0D83  1683               	bsf	3,5	;RP0=1, select bank3
  2870     0D84  1703               	bsf	3,6	;RP1=1, select bank3
  2871     0D85  141B               	bsf	___fldiv@bexp^(0+384),0
  2872     0D86                     l2298:
  2873     0D86  1683               	bsf	3,5	;RP0=1, select bank3
  2874     0D87  1703               	bsf	3,6	;RP1=1, select bank3
  2875     0D88  081B               	movf	___fldiv@bexp^(0+384),w
  2876     0D89  1903               	btfsc	3,2
  2877     0D8A  2D8C               	goto	u3551
  2878     0D8B  2D8D               	goto	u3550
  2879     0D8C                     u3551:
  2880     0D8C  2DA0               	goto	l2308
  2881     0D8D                     u3550:
  2882     0D8D                     l2300:
  2883     0D8D  0A1B               	incf	___fldiv@bexp^(0+384),w
  2884     0D8E  1D03               	btfss	3,2
  2885     0D8F  2D91               	goto	u3561
  2886     0D90  2D92               	goto	u3560
  2887     0D91                     u3561:
  2888     0D91  2D9C               	goto	l2304
  2889     0D92                     u3560:
  2890     0D92                     l2302:
  2891     0D92  3000               	movlw	0
  2892     0D93  1683               	bsf	3,5	;RP0=1, select bank1
  2893     0D94  1303               	bcf	3,6	;RP1=0, select bank1
  2894     0D95  00D8               	movwf	(___fldiv@b+3)^(0+128)
  2895     0D96  3000               	movlw	0
  2896     0D97  00D7               	movwf	(___fldiv@b+2)^(0+128)
  2897     0D98  3000               	movlw	0
  2898     0D99  00D6               	movwf	(___fldiv@b+1)^(0+128)
  2899     0D9A  3000               	movlw	0
  2900     0D9B  00D5               	movwf	___fldiv@b^(0+128)
  2901     0D9C                     l2304:
  2902     0D9C  1303               	bcf	3,6	;RP1=0, select bank1
  2903     0D9D  17D7               	bsf	(___fldiv@b^(0+128)+2),7
  2904     0D9E                     l2306:
  2905     0D9E  01D8               	clrf	(___fldiv@b^(0+128)+3)
  2906     0D9F  2DAA               	goto	l2310
  2907     0DA0                     l2308:
  2908     0DA0  3000               	movlw	0
  2909     0DA1  1683               	bsf	3,5	;RP0=1, select bank1
  2910     0DA2  1303               	bcf	3,6	;RP1=0, select bank1
  2911     0DA3  00D8               	movwf	(___fldiv@b+3)^(0+128)
  2912     0DA4  3000               	movlw	0
  2913     0DA5  00D7               	movwf	(___fldiv@b+2)^(0+128)
  2914     0DA6  3000               	movlw	0
  2915     0DA7  00D6               	movwf	(___fldiv@b+1)^(0+128)
  2916     0DA8  3000               	movlw	0
  2917     0DA9  00D5               	movwf	___fldiv@b^(0+128)
  2918     0DAA                     l2310:
  2919     0DAA  0854               	movf	(___fldiv@a^(0+128)+3),w
  2920     0DAB  3980               	andlw	128
  2921     0DAC  00D9               	movwf	??___fldiv^(0+128)
  2922     0DAD  0859               	movf	??___fldiv^(0+128),w
  2923     0DAE  1683               	bsf	3,5	;RP0=1, select bank3
  2924     0DAF  1703               	bsf	3,6	;RP1=1, select bank3
  2925     0DB0  0694               	xorwf	___fldiv@sign^(0+384),f
  2926     0DB1                     l2312:
  2927     0DB1  1683               	bsf	3,5	;RP0=1, select bank1
  2928     0DB2  1303               	bcf	3,6	;RP1=0, select bank1
  2929     0DB3  0854               	movf	(___fldiv@a^(0+128)+3),w
  2930     0DB4  00D9               	movwf	??___fldiv^(0+128)
  2931     0DB5  0759               	addwf	??___fldiv^(0+128),w
  2932     0DB6  1683               	bsf	3,5	;RP0=1, select bank3
  2933     0DB7  1703               	bsf	3,6	;RP1=1, select bank3
  2934     0DB8  009C               	movwf	___fldiv@aexp^(0+384)
  2935     0DB9                     l2314:
  2936     0DB9  1683               	bsf	3,5	;RP0=1, select bank1
  2937     0DBA  1303               	bcf	3,6	;RP1=0, select bank1
  2938     0DBB  1FD3               	btfss	(___fldiv@a^(0+128)+2),7
  2939     0DBC  2DBE               	goto	u3571
  2940     0DBD  2DBF               	goto	u3570
  2941     0DBE                     u3571:
  2942     0DBE  2DC2               	goto	l2318
  2943     0DBF                     u3570:
  2944     0DBF                     l2316:
  2945     0DBF  1683               	bsf	3,5	;RP0=1, select bank3
  2946     0DC0  1703               	bsf	3,6	;RP1=1, select bank3
  2947     0DC1  141C               	bsf	___fldiv@aexp^(0+384),0
  2948     0DC2                     l2318:
  2949     0DC2  1683               	bsf	3,5	;RP0=1, select bank3
  2950     0DC3  1703               	bsf	3,6	;RP1=1, select bank3
  2951     0DC4  081C               	movf	___fldiv@aexp^(0+384),w
  2952     0DC5  1903               	btfsc	3,2
  2953     0DC6  2DC8               	goto	u3581
  2954     0DC7  2DC9               	goto	u3580
  2955     0DC8                     u3581:
  2956     0DC8  2DDC               	goto	l2328
  2957     0DC9                     u3580:
  2958     0DC9                     l2320:
  2959     0DC9  0A1C               	incf	___fldiv@aexp^(0+384),w
  2960     0DCA  1D03               	btfss	3,2
  2961     0DCB  2DCD               	goto	u3591
  2962     0DCC  2DCE               	goto	u3590
  2963     0DCD                     u3591:
  2964     0DCD  2DD8               	goto	l2324
  2965     0DCE                     u3590:
  2966     0DCE                     l2322:
  2967     0DCE  3000               	movlw	0
  2968     0DCF  1683               	bsf	3,5	;RP0=1, select bank1
  2969     0DD0  1303               	bcf	3,6	;RP1=0, select bank1
  2970     0DD1  00D4               	movwf	(___fldiv@a+3)^(0+128)
  2971     0DD2  3000               	movlw	0
  2972     0DD3  00D3               	movwf	(___fldiv@a+2)^(0+128)
  2973     0DD4  3000               	movlw	0
  2974     0DD5  00D2               	movwf	(___fldiv@a+1)^(0+128)
  2975     0DD6  3000               	movlw	0
  2976     0DD7  00D1               	movwf	___fldiv@a^(0+128)
  2977     0DD8                     l2324:
  2978     0DD8  1303               	bcf	3,6	;RP1=0, select bank1
  2979     0DD9  17D3               	bsf	(___fldiv@a^(0+128)+2),7
  2980     0DDA                     l2326:
  2981     0DDA  01D4               	clrf	(___fldiv@a^(0+128)+3)
  2982     0DDB  2DE6               	goto	l559
  2983     0DDC                     l2328:
  2984     0DDC  3000               	movlw	0
  2985     0DDD  1683               	bsf	3,5	;RP0=1, select bank1
  2986     0DDE  1303               	bcf	3,6	;RP1=0, select bank1
  2987     0DDF  00D4               	movwf	(___fldiv@a+3)^(0+128)
  2988     0DE0  3000               	movlw	0
  2989     0DE1  00D3               	movwf	(___fldiv@a+2)^(0+128)
  2990     0DE2  3000               	movlw	0
  2991     0DE3  00D2               	movwf	(___fldiv@a+1)^(0+128)
  2992     0DE4  3000               	movlw	0
  2993     0DE5  00D1               	movwf	___fldiv@a^(0+128)
  2994     0DE6                     l559:
  2995     0DE6  0854               	movf	(___fldiv@a+3)^(0+128),w
  2996     0DE7  0453               	iorwf	(___fldiv@a+2)^(0+128),w
  2997     0DE8  0452               	iorwf	(___fldiv@a+1)^(0+128),w
  2998     0DE9  0451               	iorwf	___fldiv@a^(0+128),w
  2999     0DEA  1D03               	skipz
  3000     0DEB  2DED               	goto	u3601
  3001     0DEC  2DEE               	goto	u3600
  3002     0DED                     u3601:
  3003     0DED  2E0B               	goto	l2338
  3004     0DEE                     u3600:
  3005     0DEE                     l2330:
  3006     0DEE  3000               	movlw	0
  3007     0DEF  00D8               	movwf	(___fldiv@b+3)^(0+128)
  3008     0DF0  3000               	movlw	0
  3009     0DF1  00D7               	movwf	(___fldiv@b+2)^(0+128)
  3010     0DF2  3000               	movlw	0
  3011     0DF3  00D6               	movwf	(___fldiv@b+1)^(0+128)
  3012     0DF4  3000               	movlw	0
  3013     0DF5  00D5               	movwf	___fldiv@b^(0+128)
  3014     0DF6  3080               	movlw	128
  3015     0DF7  04D7               	iorwf	(___fldiv@b^(0+128)+2),f
  3016     0DF8  307F               	movlw	127
  3017     0DF9  04D8               	iorwf	((___fldiv@b+1)^(0+128)+2),f
  3018     0DFA                     l2332:
  3019     0DFA  1683               	bsf	3,5	;RP0=1, select bank3
  3020     0DFB  1703               	bsf	3,6	;RP1=1, select bank3
  3021     0DFC  0814               	movf	___fldiv@sign^(0+384),w
  3022     0DFD  1683               	bsf	3,5	;RP0=1, select bank1
  3023     0DFE  1303               	bcf	3,6	;RP1=0, select bank1
  3024     0DFF  00D9               	movwf	??___fldiv^(0+128)
  3025     0E00  0859               	movf	??___fldiv^(0+128),w
  3026     0E01  04D8               	iorwf	(___fldiv@b^(0+128)+3),f
  3027     0E02                     l2334:
  3028     0E02  0858               	movf	(___fldiv@b+3)^(0+128),w
  3029     0E03  00D4               	movwf	(?___fldiv+3)^(0+128)
  3030     0E04  0857               	movf	(___fldiv@b+2)^(0+128),w
  3031     0E05  00D3               	movwf	(?___fldiv+2)^(0+128)
  3032     0E06  0856               	movf	(___fldiv@b+1)^(0+128),w
  3033     0E07  00D2               	movwf	(?___fldiv+1)^(0+128)
  3034     0E08  0855               	movf	___fldiv@b^(0+128),w
  3035     0E09  00D1               	movwf	?___fldiv^(0+128)
  3036     0E0A  2FFF               	goto	l561
  3037     0E0B                     l2338:
  3038     0E0B  1683               	bsf	3,5	;RP0=1, select bank3
  3039     0E0C  1703               	bsf	3,6	;RP1=1, select bank3
  3040     0E0D  081B               	movf	___fldiv@bexp^(0+384),w
  3041     0E0E  1D03               	btfss	3,2
  3042     0E0F  2E11               	goto	u3611
  3043     0E10  2E12               	goto	u3610
  3044     0E11                     u3611:
  3045     0E11  2E1D               	goto	l2344
  3046     0E12                     u3610:
  3047     0E12                     l2340:
  3048     0E12  3000               	movlw	0
  3049     0E13  1683               	bsf	3,5	;RP0=1, select bank1
  3050     0E14  1303               	bcf	3,6	;RP1=0, select bank1
  3051     0E15  00D4               	movwf	(?___fldiv+3)^(0+128)
  3052     0E16  3000               	movlw	0
  3053     0E17  00D3               	movwf	(?___fldiv+2)^(0+128)
  3054     0E18  3000               	movlw	0
  3055     0E19  00D2               	movwf	(?___fldiv+1)^(0+128)
  3056     0E1A  3000               	movlw	0
  3057     0E1B  00D1               	movwf	?___fldiv^(0+128)
  3058     0E1C  2FFF               	goto	l561
  3059     0E1D                     l2344:
  3060     0E1D  081B               	movf	___fldiv@bexp^(0+384),w
  3061     0E1E  1683               	bsf	3,5	;RP0=1, select bank1
  3062     0E1F  1303               	bcf	3,6	;RP1=0, select bank1
  3063     0E20  00D9               	movwf	??___fldiv^(0+128)
  3064     0E21  01DA               	clrf	(??___fldiv^(0+128)+1)
  3065     0E22  085A               	movf	(??___fldiv+1)^(0+128),w
  3066     0E23  00DC               	movwf	((??___fldiv+2)^(0+128)+1)
  3067     0E24  1683               	bsf	3,5	;RP0=1, select bank3
  3068     0E25  1703               	bsf	3,6	;RP1=1, select bank3
  3069     0E26  081C               	movf	___fldiv@aexp^(0+384),w
  3070     0E27  1683               	bsf	3,5	;RP0=1, select bank1
  3071     0E28  1303               	bcf	3,6	;RP1=0, select bank1
  3072     0E29  0259               	subwf	??___fldiv^(0+128),w
  3073     0E2A  00DB               	movwf	(??___fldiv+2)^(0+128)
  3074     0E2B  1C03               	skipc
  3075     0E2C  03DC               	decf	((??___fldiv+2)^(0+128)+1),f
  3076     0E2D  085B               	movf	(??___fldiv+2)^(0+128),w
  3077     0E2E  3E7F               	addlw	127
  3078     0E2F  1683               	bsf	3,5	;RP0=1, select bank3
  3079     0E30  1703               	bsf	3,6	;RP1=1, select bank3
  3080     0E31  0095               	movwf	___fldiv@new_exp^(0+384)
  3081     0E32  1683               	bsf	3,5	;RP0=1, select bank1
  3082     0E33  1303               	bcf	3,6	;RP1=0, select bank1
  3083     0E34  085C               	movf	(??___fldiv+3)^(0+128),w
  3084     0E35  1803               	skipnc
  3085     0E36  3E01               	addlw	1
  3086     0E37  3E00               	addlw	0
  3087     0E38  1683               	bsf	3,5	;RP0=1, select bank3
  3088     0E39  1703               	bsf	3,6	;RP1=1, select bank3
  3089     0E3A  0096               	movwf	(___fldiv@new_exp+1)^(0+384)
  3090     0E3B                     l2346:
  3091     0E3B  1683               	bsf	3,5	;RP0=1, select bank1
  3092     0E3C  1303               	bcf	3,6	;RP1=0, select bank1
  3093     0E3D  0858               	movf	(___fldiv@b+3)^(0+128),w
  3094     0E3E  1683               	bsf	3,5	;RP0=1, select bank3
  3095     0E3F  1703               	bsf	3,6	;RP1=1, select bank3
  3096     0E40  0093               	movwf	(___fldiv@rem+3)^(0+384)
  3097     0E41  1683               	bsf	3,5	;RP0=1, select bank1
  3098     0E42  1303               	bcf	3,6	;RP1=0, select bank1
  3099     0E43  0857               	movf	(___fldiv@b+2)^(0+128),w
  3100     0E44  1683               	bsf	3,5	;RP0=1, select bank3
  3101     0E45  1703               	bsf	3,6	;RP1=1, select bank3
  3102     0E46  0092               	movwf	(___fldiv@rem+2)^(0+384)
  3103     0E47  1683               	bsf	3,5	;RP0=1, select bank1
  3104     0E48  1303               	bcf	3,6	;RP1=0, select bank1
  3105     0E49  0856               	movf	(___fldiv@b+1)^(0+128),w
  3106     0E4A  1683               	bsf	3,5	;RP0=1, select bank3
  3107     0E4B  1703               	bsf	3,6	;RP1=1, select bank3
  3108     0E4C  0091               	movwf	(___fldiv@rem+1)^(0+384)
  3109     0E4D  1683               	bsf	3,5	;RP0=1, select bank1
  3110     0E4E  1303               	bcf	3,6	;RP1=0, select bank1
  3111     0E4F  0855               	movf	___fldiv@b^(0+128),w
  3112     0E50  1683               	bsf	3,5	;RP0=1, select bank3
  3113     0E51  1703               	bsf	3,6	;RP1=1, select bank3
  3114     0E52  0090               	movwf	___fldiv@rem^(0+384)
  3115     0E53                     l2348:
  3116     0E53  3000               	movlw	0
  3117     0E54  1683               	bsf	3,5	;RP0=1, select bank1
  3118     0E55  1303               	bcf	3,6	;RP1=0, select bank1
  3119     0E56  00D8               	movwf	(___fldiv@b+3)^(0+128)
  3120     0E57  3000               	movlw	0
  3121     0E58  00D7               	movwf	(___fldiv@b+2)^(0+128)
  3122     0E59  3000               	movlw	0
  3123     0E5A  00D6               	movwf	(___fldiv@b+1)^(0+128)
  3124     0E5B  3000               	movlw	0
  3125     0E5C  00D5               	movwf	___fldiv@b^(0+128)
  3126     0E5D                     l2350:
  3127     0E5D  3000               	movlw	0
  3128     0E5E  1683               	bsf	3,5	;RP0=1, select bank3
  3129     0E5F  1703               	bsf	3,6	;RP1=1, select bank3
  3130     0E60  009A               	movwf	(___fldiv@grs+3)^(0+384)
  3131     0E61  3000               	movlw	0
  3132     0E62  0099               	movwf	(___fldiv@grs+2)^(0+384)
  3133     0E63  3000               	movlw	0
  3134     0E64  0098               	movwf	(___fldiv@grs+1)^(0+384)
  3135     0E65  3000               	movlw	0
  3136     0E66  0097               	movwf	___fldiv@grs^(0+384)
  3137     0E67                     l2352:
  3138     0E67  019C               	clrf	___fldiv@aexp^(0+384)
  3139     0E68  2EEF               	goto	l2372
  3140     0E69                     l2354:
  3141     0E69  081C               	movf	___fldiv@aexp^(0+384),w
  3142     0E6A  1903               	btfsc	3,2
  3143     0E6B  2E6D               	goto	u3621
  3144     0E6C  2E6E               	goto	u3620
  3145     0E6D                     u3621:
  3146     0E6D  2E9D               	goto	l2364
  3147     0E6E                     u3620:
  3148     0E6E                     l2356:
  3149     0E6E  3001               	movlw	1
  3150     0E6F  1683               	bsf	3,5	;RP0=1, select bank1
  3151     0E70  1303               	bcf	3,6	;RP1=0, select bank1
  3152     0E71  00D9               	movwf	??___fldiv^(0+128)
  3153     0E72                     u3635:
  3154     0E72  1003               	clrc
  3155     0E73  1683               	bsf	3,5	;RP0=1, select bank3
  3156     0E74  1703               	bsf	3,6	;RP1=1, select bank3
  3157     0E75  0D90               	rlf	___fldiv@rem^(0+384),f
  3158     0E76  0D91               	rlf	(___fldiv@rem+1)^(0+384),f
  3159     0E77  0D92               	rlf	(___fldiv@rem+2)^(0+384),f
  3160     0E78  0D93               	rlf	(___fldiv@rem+3)^(0+384),f
  3161     0E79  1683               	bsf	3,5	;RP0=1, select bank1
  3162     0E7A  1303               	bcf	3,6	;RP1=0, select bank1
  3163     0E7B  0BD9               	decfsz	??___fldiv^(0+128),f
  3164     0E7C  2E72               	goto	u3635
  3165     0E7D  3001               	movlw	1
  3166     0E7E  00D9               	movwf	??___fldiv^(0+128)
  3167     0E7F                     u3645:
  3168     0E7F  1003               	clrc
  3169     0E80  0DD5               	rlf	___fldiv@b^(0+128),f
  3170     0E81  0DD6               	rlf	(___fldiv@b+1)^(0+128),f
  3171     0E82  0DD7               	rlf	(___fldiv@b+2)^(0+128),f
  3172     0E83  0DD8               	rlf	(___fldiv@b+3)^(0+128),f
  3173     0E84  0BD9               	decfsz	??___fldiv^(0+128),f
  3174     0E85  2E7F               	goto	u3645
  3175     0E86                     l2358:
  3176     0E86  1683               	bsf	3,5	;RP0=1, select bank3
  3177     0E87  1703               	bsf	3,6	;RP1=1, select bank3
  3178     0E88  1F9A               	btfss	(___fldiv@grs+3)^(0+384),7
  3179     0E89  2E8B               	goto	u3651
  3180     0E8A  2E8C               	goto	u3650
  3181     0E8B                     u3651:
  3182     0E8B  2E8F               	goto	l2362
  3183     0E8C                     u3650:
  3184     0E8C                     l2360:
  3185     0E8C  1683               	bsf	3,5	;RP0=1, select bank1
  3186     0E8D  1303               	bcf	3,6	;RP1=0, select bank1
  3187     0E8E  1455               	bsf	___fldiv@b^(0+128),0
  3188     0E8F                     l2362:
  3189     0E8F  3001               	movlw	1
  3190     0E90  1303               	bcf	3,6	;RP1=0, select bank1
  3191     0E91  00D9               	movwf	??___fldiv^(0+128)
  3192     0E92                     u3665:
  3193     0E92  1003               	clrc
  3194     0E93  1683               	bsf	3,5	;RP0=1, select bank3
  3195     0E94  1703               	bsf	3,6	;RP1=1, select bank3
  3196     0E95  0D97               	rlf	___fldiv@grs^(0+384),f
  3197     0E96  0D98               	rlf	(___fldiv@grs+1)^(0+384),f
  3198     0E97  0D99               	rlf	(___fldiv@grs+2)^(0+384),f
  3199     0E98  0D9A               	rlf	(___fldiv@grs+3)^(0+384),f
  3200     0E99  1683               	bsf	3,5	;RP0=1, select bank1
  3201     0E9A  1303               	bcf	3,6	;RP1=0, select bank1
  3202     0E9B  0BD9               	decfsz	??___fldiv^(0+128),f
  3203     0E9C  2E92               	goto	u3665
  3204     0E9D                     l2364:
  3205     0E9D  1303               	bcf	3,6	;RP1=0, select bank1
  3206     0E9E  0854               	movf	(___fldiv@a+3)^(0+128),w
  3207     0E9F  1683               	bsf	3,5	;RP0=1, select bank3
  3208     0EA0  1703               	bsf	3,6	;RP1=1, select bank3
  3209     0EA1  0213               	subwf	(___fldiv@rem+3)^(0+384),w
  3210     0EA2  1D03               	skipz
  3211     0EA3  2EBA               	goto	u3675
  3212     0EA4  1683               	bsf	3,5	;RP0=1, select bank1
  3213     0EA5  1303               	bcf	3,6	;RP1=0, select bank1
  3214     0EA6  0853               	movf	(___fldiv@a+2)^(0+128),w
  3215     0EA7  1683               	bsf	3,5	;RP0=1, select bank3
  3216     0EA8  1703               	bsf	3,6	;RP1=1, select bank3
  3217     0EA9  0212               	subwf	(___fldiv@rem+2)^(0+384),w
  3218     0EAA  1D03               	skipz
  3219     0EAB  2EBA               	goto	u3675
  3220     0EAC  1683               	bsf	3,5	;RP0=1, select bank1
  3221     0EAD  1303               	bcf	3,6	;RP1=0, select bank1
  3222     0EAE  0852               	movf	(___fldiv@a+1)^(0+128),w
  3223     0EAF  1683               	bsf	3,5	;RP0=1, select bank3
  3224     0EB0  1703               	bsf	3,6	;RP1=1, select bank3
  3225     0EB1  0211               	subwf	(___fldiv@rem+1)^(0+384),w
  3226     0EB2  1D03               	skipz
  3227     0EB3  2EBA               	goto	u3675
  3228     0EB4  1683               	bsf	3,5	;RP0=1, select bank1
  3229     0EB5  1303               	bcf	3,6	;RP1=0, select bank1
  3230     0EB6  0851               	movf	___fldiv@a^(0+128),w
  3231     0EB7  1683               	bsf	3,5	;RP0=1, select bank3
  3232     0EB8  1703               	bsf	3,6	;RP1=1, select bank3
  3233     0EB9  0210               	subwf	___fldiv@rem^(0+384),w
  3234     0EBA                     u3675:
  3235     0EBA  1C03               	skipc
  3236     0EBB  2EBD               	goto	u3671
  3237     0EBC  2EBE               	goto	u3670
  3238     0EBD                     u3671:
  3239     0EBD  2EE7               	goto	l2370
  3240     0EBE                     u3670:
  3241     0EBE                     l2366:
  3242     0EBE  171A               	bsf	(___fldiv@grs^(0+384)+3),6
  3243     0EBF                     l2368:
  3244     0EBF  1683               	bsf	3,5	;RP0=1, select bank1
  3245     0EC0  1303               	bcf	3,6	;RP1=0, select bank1
  3246     0EC1  0851               	movf	___fldiv@a^(0+128),w
  3247     0EC2  1683               	bsf	3,5	;RP0=1, select bank3
  3248     0EC3  1703               	bsf	3,6	;RP1=1, select bank3
  3249     0EC4  0290               	subwf	___fldiv@rem^(0+384),f
  3250     0EC5  1683               	bsf	3,5	;RP0=1, select bank1
  3251     0EC6  1303               	bcf	3,6	;RP1=0, select bank1
  3252     0EC7  0852               	movf	(___fldiv@a+1)^(0+128),w
  3253     0EC8  1C03               	skipc
  3254     0EC9  0F52               	incfsz	(___fldiv@a+1)^(0+128),w
  3255     0ECA  2ECC               	goto	u3685
  3256     0ECB  2ECF               	goto	u3686
  3257     0ECC                     u3685:
  3258     0ECC  1683               	bsf	3,5	;RP0=1, select bank3
  3259     0ECD  1703               	bsf	3,6	;RP1=1, select bank3
  3260     0ECE  0291               	subwf	(___fldiv@rem+1)^(0+384),f
  3261     0ECF                     u3686:
  3262     0ECF  1683               	bsf	3,5	;RP0=1, select bank1
  3263     0ED0  1303               	bcf	3,6	;RP1=0, select bank1
  3264     0ED1  0853               	movf	(___fldiv@a+2)^(0+128),w
  3265     0ED2  1C03               	skipc
  3266     0ED3  0F53               	incfsz	(___fldiv@a+2)^(0+128),w
  3267     0ED4  2ED6               	goto	u3687
  3268     0ED5  2ED9               	goto	u3688
  3269     0ED6                     u3687:
  3270     0ED6  1683               	bsf	3,5	;RP0=1, select bank3
  3271     0ED7  1703               	bsf	3,6	;RP1=1, select bank3
  3272     0ED8  0292               	subwf	(___fldiv@rem+2)^(0+384),f
  3273     0ED9                     u3688:
  3274     0ED9  1683               	bsf	3,5	;RP0=1, select bank1
  3275     0EDA  1303               	bcf	3,6	;RP1=0, select bank1
  3276     0EDB  0854               	movf	(___fldiv@a+3)^(0+128),w
  3277     0EDC  1C03               	skipc
  3278     0EDD  0F54               	incfsz	(___fldiv@a+3)^(0+128),w
  3279     0EDE  2EE0               	goto	u3689
  3280     0EDF  2EE3               	goto	u3680
  3281     0EE0                     u3689:
  3282     0EE0  1683               	bsf	3,5	;RP0=1, select bank3
  3283     0EE1  1703               	bsf	3,6	;RP1=1, select bank3
  3284     0EE2  0293               	subwf	(___fldiv@rem+3)^(0+384),f
  3285     0EE3                     u3680:
  3286     0EE3  1683               	bsf	3,5	;RP0=1, select bank1
  3287     0EE4  1303               	bcf	3,6	;RP1=0, select bank1
  3288     0EE5  1683               	bsf	3,5	;RP0=1, select bank3
  3289     0EE6  1703               	bsf	3,6	;RP1=1, select bank3
  3290     0EE7                     l2370:
  3291     0EE7  3001               	movlw	1
  3292     0EE8  1683               	bsf	3,5	;RP0=1, select bank1
  3293     0EE9  1303               	bcf	3,6	;RP1=0, select bank1
  3294     0EEA  00D9               	movwf	??___fldiv^(0+128)
  3295     0EEB  0859               	movf	??___fldiv^(0+128),w
  3296     0EEC  1683               	bsf	3,5	;RP0=1, select bank3
  3297     0EED  1703               	bsf	3,6	;RP1=1, select bank3
  3298     0EEE  079C               	addwf	___fldiv@aexp^(0+384),f
  3299     0EEF                     l2372:
  3300     0EEF  301A               	movlw	26
  3301     0EF0  021C               	subwf	___fldiv@aexp^(0+384),w
  3302     0EF1  1C03               	skipc
  3303     0EF2  2EF4               	goto	u3691
  3304     0EF3  2EF5               	goto	u3690
  3305     0EF4                     u3691:
  3306     0EF4  2E69               	goto	l2354
  3307     0EF5                     u3690:
  3308     0EF5                     l2374:
  3309     0EF5  0813               	movf	(___fldiv@rem+3)^(0+384),w
  3310     0EF6  0412               	iorwf	(___fldiv@rem+2)^(0+384),w
  3311     0EF7  0411               	iorwf	(___fldiv@rem+1)^(0+384),w
  3312     0EF8  0410               	iorwf	___fldiv@rem^(0+384),w
  3313     0EF9  1903               	skipnz
  3314     0EFA  2EFC               	goto	u3701
  3315     0EFB  2EFD               	goto	u3700
  3316     0EFC                     u3701:
  3317     0EFC  2F27               	goto	l2388
  3318     0EFD                     u3700:
  3319     0EFD                     l2376:
  3320     0EFD  1417               	bsf	___fldiv@grs^(0+384),0
  3321     0EFE  2F27               	goto	l2388
  3322     0EFF                     l2378:
  3323     0EFF  3001               	movlw	1
  3324     0F00  00D9               	movwf	??___fldiv^(0+128)
  3325     0F01                     u3715:
  3326     0F01  1003               	clrc
  3327     0F02  0DD5               	rlf	___fldiv@b^(0+128),f
  3328     0F03  0DD6               	rlf	(___fldiv@b+1)^(0+128),f
  3329     0F04  0DD7               	rlf	(___fldiv@b+2)^(0+128),f
  3330     0F05  0DD8               	rlf	(___fldiv@b+3)^(0+128),f
  3331     0F06  0BD9               	decfsz	??___fldiv^(0+128),f
  3332     0F07  2F01               	goto	u3715
  3333     0F08                     l2380:
  3334     0F08  1683               	bsf	3,5	;RP0=1, select bank3
  3335     0F09  1703               	bsf	3,6	;RP1=1, select bank3
  3336     0F0A  1F9A               	btfss	(___fldiv@grs+3)^(0+384),7
  3337     0F0B  2F0D               	goto	u3721
  3338     0F0C  2F0E               	goto	u3720
  3339     0F0D                     u3721:
  3340     0F0D  2F11               	goto	l2384
  3341     0F0E                     u3720:
  3342     0F0E                     l2382:
  3343     0F0E  1683               	bsf	3,5	;RP0=1, select bank1
  3344     0F0F  1303               	bcf	3,6	;RP1=0, select bank1
  3345     0F10  1455               	bsf	___fldiv@b^(0+128),0
  3346     0F11                     l2384:
  3347     0F11  3001               	movlw	1
  3348     0F12  1303               	bcf	3,6	;RP1=0, select bank1
  3349     0F13  00D9               	movwf	??___fldiv^(0+128)
  3350     0F14                     u3735:
  3351     0F14  1003               	clrc
  3352     0F15  1683               	bsf	3,5	;RP0=1, select bank3
  3353     0F16  1703               	bsf	3,6	;RP1=1, select bank3
  3354     0F17  0D97               	rlf	___fldiv@grs^(0+384),f
  3355     0F18  0D98               	rlf	(___fldiv@grs+1)^(0+384),f
  3356     0F19  0D99               	rlf	(___fldiv@grs+2)^(0+384),f
  3357     0F1A  0D9A               	rlf	(___fldiv@grs+3)^(0+384),f
  3358     0F1B  1683               	bsf	3,5	;RP0=1, select bank1
  3359     0F1C  1303               	bcf	3,6	;RP1=0, select bank1
  3360     0F1D  0BD9               	decfsz	??___fldiv^(0+128),f
  3361     0F1E  2F14               	goto	u3735
  3362     0F1F                     l2386:
  3363     0F1F  30FF               	movlw	255
  3364     0F20  1683               	bsf	3,5	;RP0=1, select bank3
  3365     0F21  1703               	bsf	3,6	;RP1=1, select bank3
  3366     0F22  0795               	addwf	___fldiv@new_exp^(0+384),f
  3367     0F23  1803               	skipnc
  3368     0F24  0A96               	incf	(___fldiv@new_exp+1)^(0+384),f
  3369     0F25  30FF               	movlw	255
  3370     0F26  0796               	addwf	(___fldiv@new_exp+1)^(0+384),f
  3371     0F27                     l2388:
  3372     0F27  1683               	bsf	3,5	;RP0=1, select bank1
  3373     0F28  1303               	bcf	3,6	;RP1=0, select bank1
  3374     0F29  1FD7               	btfss	(___fldiv@b+2)^(0+128),7
  3375     0F2A  2F2C               	goto	u3741
  3376     0F2B  2F2D               	goto	u3740
  3377     0F2C                     u3741:
  3378     0F2C  2EFF               	goto	l2378
  3379     0F2D                     u3740:
  3380     0F2D                     l2390:
  3381     0F2D  1683               	bsf	3,5	;RP0=1, select bank3
  3382     0F2E  1703               	bsf	3,6	;RP1=1, select bank3
  3383     0F2F  019C               	clrf	___fldiv@aexp^(0+384)
  3384     0F30                     l2392:
  3385     0F30  1F9A               	btfss	(___fldiv@grs+3)^(0+384),7
  3386     0F31  2F33               	goto	u3751
  3387     0F32  2F34               	goto	u3750
  3388     0F33                     u3751:
  3389     0F33  2F60               	goto	l2400
  3390     0F34                     u3750:
  3391     0F34                     l2394:
  3392     0F34  30FF               	movlw	255
  3393     0F35  0517               	andwf	___fldiv@grs^(0+384),w
  3394     0F36  1683               	bsf	3,5	;RP0=1, select bank1
  3395     0F37  1303               	bcf	3,6	;RP1=0, select bank1
  3396     0F38  00D9               	movwf	??___fldiv^(0+128)
  3397     0F39  30FF               	movlw	255
  3398     0F3A  1683               	bsf	3,5	;RP0=1, select bank3
  3399     0F3B  1703               	bsf	3,6	;RP1=1, select bank3
  3400     0F3C  0518               	andwf	(___fldiv@grs+1)^(0+384),w
  3401     0F3D  1683               	bsf	3,5	;RP0=1, select bank1
  3402     0F3E  1303               	bcf	3,6	;RP1=0, select bank1
  3403     0F3F  00DA               	movwf	(??___fldiv^(0+128)+1)
  3404     0F40  30FF               	movlw	255
  3405     0F41  1683               	bsf	3,5	;RP0=1, select bank3
  3406     0F42  1703               	bsf	3,6	;RP1=1, select bank3
  3407     0F43  0519               	andwf	(___fldiv@grs+2)^(0+384),w
  3408     0F44  1683               	bsf	3,5	;RP0=1, select bank1
  3409     0F45  1303               	bcf	3,6	;RP1=0, select bank1
  3410     0F46  00DB               	movwf	(??___fldiv^(0+128)+2)
  3411     0F47  307F               	movlw	127
  3412     0F48  1683               	bsf	3,5	;RP0=1, select bank3
  3413     0F49  1703               	bsf	3,6	;RP1=1, select bank3
  3414     0F4A  051A               	andwf	(___fldiv@grs+3)^(0+384),w
  3415     0F4B  1683               	bsf	3,5	;RP0=1, select bank1
  3416     0F4C  1303               	bcf	3,6	;RP1=0, select bank1
  3417     0F4D  00DC               	movwf	(??___fldiv^(0+128)+3)
  3418     0F4E  085C               	movf	(??___fldiv+3)^(0+128),w
  3419     0F4F  045B               	iorwf	(??___fldiv+2)^(0+128),w
  3420     0F50  045A               	iorwf	(??___fldiv+1)^(0+128),w
  3421     0F51  0459               	iorwf	??___fldiv^(0+128),w
  3422     0F52  1903               	skipnz
  3423     0F53  2F55               	goto	u3761
  3424     0F54  2F56               	goto	u3760
  3425     0F55                     u3761:
  3426     0F55  2F5B               	goto	l575
  3427     0F56                     u3760:
  3428     0F56                     l2396:
  3429     0F56  1683               	bsf	3,5	;RP0=1, select bank3
  3430     0F57  1703               	bsf	3,6	;RP1=1, select bank3
  3431     0F58  019C               	clrf	___fldiv@aexp^(0+384)
  3432     0F59  0A9C               	incf	___fldiv@aexp^(0+384),f
  3433     0F5A  2F60               	goto	l2400
  3434     0F5B                     l575:
  3435     0F5B  1C55               	btfss	___fldiv@b^(0+128),0
  3436     0F5C  2F5E               	goto	u3771
  3437     0F5D  2F5F               	goto	u3770
  3438     0F5E                     u3771:
  3439     0F5E  2F60               	goto	l2400
  3440     0F5F                     u3770:
  3441     0F5F  2F56               	goto	l2396
  3442     0F60                     l2400:
  3443     0F60  1683               	bsf	3,5	;RP0=1, select bank3
  3444     0F61  1703               	bsf	3,6	;RP1=1, select bank3
  3445     0F62  081C               	movf	___fldiv@aexp^(0+384),w
  3446     0F63  1903               	btfsc	3,2
  3447     0F64  2F66               	goto	u3781
  3448     0F65  2F67               	goto	u3780
  3449     0F66                     u3781:
  3450     0F66  2F9C               	goto	l2410
  3451     0F67                     u3780:
  3452     0F67                     l2402:
  3453     0F67  3001               	movlw	1
  3454     0F68  1683               	bsf	3,5	;RP0=1, select bank1
  3455     0F69  1303               	bcf	3,6	;RP1=0, select bank1
  3456     0F6A  07D5               	addwf	___fldiv@b^(0+128),f
  3457     0F6B  3000               	movlw	0
  3458     0F6C  1803               	skipnc
  3459     0F6D  3001               	movlw	1
  3460     0F6E  07D6               	addwf	(___fldiv@b+1)^(0+128),f
  3461     0F6F  3000               	movlw	0
  3462     0F70  1803               	skipnc
  3463     0F71  3001               	movlw	1
  3464     0F72  07D7               	addwf	(___fldiv@b+2)^(0+128),f
  3465     0F73  3000               	movlw	0
  3466     0F74  1803               	skipnc
  3467     0F75  3001               	movlw	1
  3468     0F76  07D8               	addwf	(___fldiv@b+3)^(0+128),f
  3469     0F77                     l2404:
  3470     0F77  1C58               	btfss	(___fldiv@b+3)^(0+128),0
  3471     0F78  2F7A               	goto	u3791
  3472     0F79  2F7B               	goto	u3790
  3473     0F7A                     u3791:
  3474     0F7A  2F9C               	goto	l2410
  3475     0F7B                     u3790:
  3476     0F7B                     l2406:
  3477     0F7B  0855               	movf	___fldiv@b^(0+128),w
  3478     0F7C  00D9               	movwf	??___fldiv^(0+128)
  3479     0F7D  0856               	movf	(___fldiv@b+1)^(0+128),w
  3480     0F7E  00DA               	movwf	(??___fldiv^(0+128)+1)
  3481     0F7F  0857               	movf	(___fldiv@b+2)^(0+128),w
  3482     0F80  00DB               	movwf	(??___fldiv^(0+128)+2)
  3483     0F81  0858               	movf	(___fldiv@b+3)^(0+128),w
  3484     0F82  00DC               	movwf	(??___fldiv^(0+128)+3)
  3485     0F83  3001               	movlw	1
  3486     0F84  00DD               	movwf	(??___fldiv+4)^(0+128)
  3487     0F85                     u3805:
  3488     0F85  0D5C               	rlf	(??___fldiv^(0+128)+3),w
  3489     0F86  0CDC               	rrf	(??___fldiv^(0+128)+3),f
  3490     0F87  0CDB               	rrf	(??___fldiv^(0+128)+2),f
  3491     0F88  0CDA               	rrf	(??___fldiv^(0+128)+1),f
  3492     0F89  0CD9               	rrf	??___fldiv^(0+128),f
  3493     0F8A                     u3800:
  3494     0F8A  0BDD               	decfsz	(??___fldiv+4)^(0+128),f
  3495     0F8B  2F85               	goto	u3805
  3496     0F8C  085C               	movf	(??___fldiv+3)^(0+128),w
  3497     0F8D  00D8               	movwf	(___fldiv@b+3)^(0+128)
  3498     0F8E  085B               	movf	(??___fldiv+2)^(0+128),w
  3499     0F8F  00D7               	movwf	(___fldiv@b+2)^(0+128)
  3500     0F90  085A               	movf	(??___fldiv+1)^(0+128),w
  3501     0F91  00D6               	movwf	(___fldiv@b+1)^(0+128)
  3502     0F92  0859               	movf	??___fldiv^(0+128),w
  3503     0F93  00D5               	movwf	___fldiv@b^(0+128)
  3504     0F94                     l2408:
  3505     0F94  3001               	movlw	1
  3506     0F95  1683               	bsf	3,5	;RP0=1, select bank3
  3507     0F96  1703               	bsf	3,6	;RP1=1, select bank3
  3508     0F97  0795               	addwf	___fldiv@new_exp^(0+384),f
  3509     0F98  1803               	skipnc
  3510     0F99  0A96               	incf	(___fldiv@new_exp+1)^(0+384),f
  3511     0F9A  3000               	movlw	0
  3512     0F9B  0796               	addwf	(___fldiv@new_exp+1)^(0+384),f
  3513     0F9C                     l2410:
  3514     0F9C  1683               	bsf	3,5	;RP0=1, select bank3
  3515     0F9D  1703               	bsf	3,6	;RP1=1, select bank3
  3516     0F9E  0816               	movf	(___fldiv@new_exp+1)^(0+384),w
  3517     0F9F  3A80               	xorlw	128
  3518     0FA0  00FF               	movwf	btemp+1
  3519     0FA1  3080               	movlw	128
  3520     0FA2  027F               	subwf	btemp+1,w
  3521     0FA3  1D03               	skipz
  3522     0FA4  2FA7               	goto	u3815
  3523     0FA5  30FF               	movlw	255
  3524     0FA6  0215               	subwf	___fldiv@new_exp^(0+384),w
  3525     0FA7                     u3815:
  3526     0FA7  1C03               	skipc
  3527     0FA8  2FAA               	goto	u3811
  3528     0FA9  2FAB               	goto	u3810
  3529     0FAA                     u3811:
  3530     0FAA  2FBB               	goto	l2414
  3531     0FAB                     u3810:
  3532     0FAB                     l2412:
  3533     0FAB  30FF               	movlw	255
  3534     0FAC  1683               	bsf	3,5	;RP0=1, select bank3
  3535     0FAD  1703               	bsf	3,6	;RP1=1, select bank3
  3536     0FAE  0095               	movwf	___fldiv@new_exp^(0+384)
  3537     0FAF  3000               	movlw	0
  3538     0FB0  0096               	movwf	(___fldiv@new_exp^(0+384)+1)
  3539     0FB1  3000               	movlw	0
  3540     0FB2  1683               	bsf	3,5	;RP0=1, select bank1
  3541     0FB3  1303               	bcf	3,6	;RP1=0, select bank1
  3542     0FB4  00D8               	movwf	(___fldiv@b+3)^(0+128)
  3543     0FB5  3000               	movlw	0
  3544     0FB6  00D7               	movwf	(___fldiv@b+2)^(0+128)
  3545     0FB7  3000               	movlw	0
  3546     0FB8  00D6               	movwf	(___fldiv@b+1)^(0+128)
  3547     0FB9  3000               	movlw	0
  3548     0FBA  00D5               	movwf	___fldiv@b^(0+128)
  3549     0FBB                     l2414:
  3550     0FBB  1683               	bsf	3,5	;RP0=1, select bank3
  3551     0FBC  1703               	bsf	3,6	;RP1=1, select bank3
  3552     0FBD  0816               	movf	(___fldiv@new_exp+1)^(0+384),w
  3553     0FBE  3A80               	xorlw	128
  3554     0FBF  00FF               	movwf	btemp+1
  3555     0FC0  3080               	movlw	128
  3556     0FC1  027F               	subwf	btemp+1,w
  3557     0FC2  1D03               	skipz
  3558     0FC3  2FC6               	goto	u3825
  3559     0FC4  3001               	movlw	1
  3560     0FC5  0215               	subwf	___fldiv@new_exp^(0+384),w
  3561     0FC6                     u3825:
  3562     0FC6  1803               	skipnc
  3563     0FC7  2FC9               	goto	u3821
  3564     0FC8  2FCA               	goto	u3820
  3565     0FC9                     u3821:
  3566     0FC9  2FDB               	goto	l581
  3567     0FCA                     u3820:
  3568     0FCA                     l2416:
  3569     0FCA  1683               	bsf	3,5	;RP0=1, select bank3
  3570     0FCB  1703               	bsf	3,6	;RP1=1, select bank3
  3571     0FCC  0195               	clrf	___fldiv@new_exp^(0+384)
  3572     0FCD  0196               	clrf	(___fldiv@new_exp+1)^(0+384)
  3573     0FCE                     l2418:
  3574     0FCE  3000               	movlw	0
  3575     0FCF  1683               	bsf	3,5	;RP0=1, select bank1
  3576     0FD0  1303               	bcf	3,6	;RP1=0, select bank1
  3577     0FD1  00D8               	movwf	(___fldiv@b+3)^(0+128)
  3578     0FD2  3000               	movlw	0
  3579     0FD3  00D7               	movwf	(___fldiv@b+2)^(0+128)
  3580     0FD4  3000               	movlw	0
  3581     0FD5  00D6               	movwf	(___fldiv@b+1)^(0+128)
  3582     0FD6  3000               	movlw	0
  3583     0FD7  00D5               	movwf	___fldiv@b^(0+128)
  3584     0FD8                     l2420:
  3585     0FD8  1683               	bsf	3,5	;RP0=1, select bank3
  3586     0FD9  1703               	bsf	3,6	;RP1=1, select bank3
  3587     0FDA  0194               	clrf	___fldiv@sign^(0+384)
  3588     0FDB                     l581:
  3589     0FDB  1683               	bsf	3,5	;RP0=1, select bank3
  3590     0FDC  1703               	bsf	3,6	;RP1=1, select bank3
  3591     0FDD  0815               	movf	___fldiv@new_exp^(0+384),w
  3592     0FDE  009B               	movwf	___fldiv@bexp^(0+384)
  3593     0FDF                     l2422:
  3594     0FDF  1C1B               	btfss	___fldiv@bexp^(0+384),0
  3595     0FE0  2FE2               	goto	u3831
  3596     0FE1  2FE3               	goto	u3830
  3597     0FE2                     u3831:
  3598     0FE2  2FE7               	goto	l2426
  3599     0FE3                     u3830:
  3600     0FE3                     l2424:
  3601     0FE3  1683               	bsf	3,5	;RP0=1, select bank1
  3602     0FE4  1303               	bcf	3,6	;RP1=0, select bank1
  3603     0FE5  17D7               	bsf	(___fldiv@b^(0+128)+2),7
  3604     0FE6  2FED               	goto	l583
  3605     0FE7                     l2426:
  3606     0FE7  307F               	movlw	127
  3607     0FE8  1683               	bsf	3,5	;RP0=1, select bank1
  3608     0FE9  1303               	bcf	3,6	;RP1=0, select bank1
  3609     0FEA  00D9               	movwf	??___fldiv^(0+128)
  3610     0FEB  0859               	movf	??___fldiv^(0+128),w
  3611     0FEC  05D7               	andwf	(___fldiv@b^(0+128)+2),f
  3612     0FED                     l583:
  3613     0FED  1683               	bsf	3,5	;RP0=1, select bank3
  3614     0FEE  1703               	bsf	3,6	;RP1=1, select bank3
  3615     0FEF  081B               	movf	___fldiv@bexp^(0+384),w
  3616     0FF0  1683               	bsf	3,5	;RP0=1, select bank1
  3617     0FF1  1303               	bcf	3,6	;RP1=0, select bank1
  3618     0FF2  00D9               	movwf	??___fldiv^(0+128)
  3619     0FF3  1003               	clrc
  3620     0FF4  0C59               	rrf	??___fldiv^(0+128),w
  3621     0FF5  00D8               	movwf	(___fldiv@b^(0+128)+3)
  3622     0FF6  1683               	bsf	3,5	;RP0=1, select bank3
  3623     0FF7  1703               	bsf	3,6	;RP1=1, select bank3
  3624     0FF8  0814               	movf	___fldiv@sign^(0+384),w
  3625     0FF9  1683               	bsf	3,5	;RP0=1, select bank1
  3626     0FFA  1303               	bcf	3,6	;RP1=0, select bank1
  3627     0FFB  00D9               	movwf	??___fldiv^(0+128)
  3628     0FFC  0859               	movf	??___fldiv^(0+128),w
  3629     0FFD  04D8               	iorwf	(___fldiv@b^(0+128)+3),f
  3630     0FFE  2E02               	goto	l2334
  3631     0FFF                     l561:
  3632     0FFF  0008               	return
  3633     1000                     __end_of___fldiv:
  3634                           
  3635                           	psect	text7
  3636     0B16                     __ptext7:	
  3637 ;; *************** function ___fladd *****************
  3638 ;; Defined at:
  3639 ;;		line 10 in file "C:\Program Files\Microchip\xc8\v2.40\pic\sources\c90\common\sprcadd.c"
  3640 ;; Parameters:    Size  Location     Type
  3641 ;;  b               4   13[BANK3 ] unsigned char 
  3642 ;;  a               4   17[BANK3 ] unsigned char 
  3643 ;; Auto vars:     Size  Location     Type
  3644 ;;  grs             1   32[BANK3 ] unsigned char 
  3645 ;;  bexp            1   31[BANK3 ] unsigned char 
  3646 ;;  aexp            1   30[BANK3 ] unsigned char 
  3647 ;;  signs           1   29[BANK3 ] unsigned char 
  3648 ;; Return value:  Size  Location     Type
  3649 ;;                  4   13[BANK3 ] unsigned char 
  3650 ;; Registers used:
  3651 ;;		wreg, status,2, status,0, btemp+1
  3652 ;; Tracked objects:
  3653 ;;		On entry : 0/0
  3654 ;;		On exit  : 0/0
  3655 ;;		Unchanged: 0/0
  3656 ;; Data sizes:     COMMON   BANK0   BANK1   BANK3   BANK2
  3657 ;;      Params:         0       0       0       8       0
  3658 ;;      Locals:         0       0       0       4       0
  3659 ;;      Temps:          0       0       0       8       0
  3660 ;;      Totals:         0       0       0      20       0
  3661 ;;Total ram usage:       20 bytes
  3662 ;; Hardware stack levels used: 1
  3663 ;; Hardware stack levels required when called: 4
  3664 ;; This function calls:
  3665 ;;		Nothing
  3666 ;; This function is called by:
  3667 ;;		_PWM_SETUP
  3668 ;; This function uses a non-reentrant model
  3669 ;;
  3670                           
  3671     0B16                     ___fladd:	
  3672                           ;psect for function ___fladd
  3673                           
  3674     0B16                     l3376:	
  3675                           ;incstack = 0
  3676                           ; Regs used in ___fladd: [wreg+status,2+status,0+btemp+1]
  3677                           
  3678     0B16  1683               	bsf	3,5	;RP0=1, select bank3
  3679     0B17  1703               	bsf	3,6	;RP1=1, select bank3
  3680     0B18  0820               	movf	(___fladd@b^(0+384)+3),w
  3681     0B19  3980               	andlw	128
  3682     0B1A  00AD               	movwf	___fladd@signs^(0+384)
  3683     0B1B                     l3378:
  3684     0B1B  0820               	movf	(___fladd@b^(0+384)+3),w
  3685     0B1C  00A5               	movwf	??___fladd^(0+384)
  3686     0B1D  0725               	addwf	??___fladd^(0+384),w
  3687     0B1E  00AF               	movwf	___fladd@bexp^(0+384)
  3688     0B1F                     l3380:
  3689     0B1F  1F9F               	btfss	(___fladd@b^(0+384)+2),7
  3690     0B20  2B22               	goto	u5901
  3691     0B21  2B23               	goto	u5900
  3692     0B22                     u5901:
  3693     0B22  2B24               	goto	l3384
  3694     0B23                     u5900:
  3695     0B23                     l3382:
  3696     0B23  142F               	bsf	___fladd@bexp^(0+384),0
  3697     0B24                     l3384:
  3698     0B24  082F               	movf	___fladd@bexp^(0+384),w
  3699     0B25  1903               	btfsc	3,2
  3700     0B26  2B28               	goto	u5911
  3701     0B27  2B29               	goto	u5910
  3702     0B28                     u5911:
  3703     0B28  2B39               	goto	l3394
  3704     0B29                     u5910:
  3705     0B29                     l3386:
  3706     0B29  0A2F               	incf	___fladd@bexp^(0+384),w
  3707     0B2A  1D03               	btfss	3,2
  3708     0B2B  2B2D               	goto	u5921
  3709     0B2C  2B2E               	goto	u5920
  3710     0B2D                     u5921:
  3711     0B2D  2B36               	goto	l3390
  3712     0B2E                     u5920:
  3713     0B2E                     l3388:
  3714     0B2E  3000               	movlw	0
  3715     0B2F  00A0               	movwf	(___fladd@b+3)^(0+384)
  3716     0B30  3000               	movlw	0
  3717     0B31  009F               	movwf	(___fladd@b+2)^(0+384)
  3718     0B32  3000               	movlw	0
  3719     0B33  009E               	movwf	(___fladd@b+1)^(0+384)
  3720     0B34  3000               	movlw	0
  3721     0B35  009D               	movwf	___fladd@b^(0+384)
  3722     0B36                     l3390:
  3723     0B36  179F               	bsf	(___fladd@b^(0+384)+2),7
  3724     0B37                     l3392:
  3725     0B37  01A0               	clrf	(___fladd@b^(0+384)+3)
  3726     0B38  2B41               	goto	l3396
  3727     0B39                     l3394:
  3728     0B39  3000               	movlw	0
  3729     0B3A  00A0               	movwf	(___fladd@b+3)^(0+384)
  3730     0B3B  3000               	movlw	0
  3731     0B3C  009F               	movwf	(___fladd@b+2)^(0+384)
  3732     0B3D  3000               	movlw	0
  3733     0B3E  009E               	movwf	(___fladd@b+1)^(0+384)
  3734     0B3F  3000               	movlw	0
  3735     0B40  009D               	movwf	___fladd@b^(0+384)
  3736     0B41                     l3396:
  3737     0B41  0824               	movf	(___fladd@a^(0+384)+3),w
  3738     0B42  3980               	andlw	128
  3739     0B43  00AE               	movwf	___fladd@aexp^(0+384)
  3740     0B44                     l3398:
  3741     0B44  082E               	movf	___fladd@aexp^(0+384),w
  3742     0B45  062D               	xorwf	___fladd@signs^(0+384),w
  3743     0B46  1903               	skipnz
  3744     0B47  2B49               	goto	u5931
  3745     0B48  2B4A               	goto	u5930
  3746     0B49                     u5931:
  3747     0B49  2B4B               	goto	l3402
  3748     0B4A                     u5930:
  3749     0B4A                     l3400:
  3750     0B4A  172D               	bsf	___fladd@signs^(0+384),6
  3751     0B4B                     l3402:
  3752     0B4B  0824               	movf	(___fladd@a^(0+384)+3),w
  3753     0B4C  00A5               	movwf	??___fladd^(0+384)
  3754     0B4D  0725               	addwf	??___fladd^(0+384),w
  3755     0B4E  00AE               	movwf	___fladd@aexp^(0+384)
  3756     0B4F                     l3404:
  3757     0B4F  1FA3               	btfss	(___fladd@a^(0+384)+2),7
  3758     0B50  2B52               	goto	u5941
  3759     0B51  2B53               	goto	u5940
  3760     0B52                     u5941:
  3761     0B52  2B54               	goto	l3408
  3762     0B53                     u5940:
  3763     0B53                     l3406:
  3764     0B53  142E               	bsf	___fladd@aexp^(0+384),0
  3765     0B54                     l3408:
  3766     0B54  082E               	movf	___fladd@aexp^(0+384),w
  3767     0B55  1903               	btfsc	3,2
  3768     0B56  2B58               	goto	u5951
  3769     0B57  2B59               	goto	u5950
  3770     0B58                     u5951:
  3771     0B58  2B69               	goto	l3418
  3772     0B59                     u5950:
  3773     0B59                     l3410:
  3774     0B59  0A2E               	incf	___fladd@aexp^(0+384),w
  3775     0B5A  1D03               	btfss	3,2
  3776     0B5B  2B5D               	goto	u5961
  3777     0B5C  2B5E               	goto	u5960
  3778     0B5D                     u5961:
  3779     0B5D  2B66               	goto	l3414
  3780     0B5E                     u5960:
  3781     0B5E                     l3412:
  3782     0B5E  3000               	movlw	0
  3783     0B5F  00A4               	movwf	(___fladd@a+3)^(0+384)
  3784     0B60  3000               	movlw	0
  3785     0B61  00A3               	movwf	(___fladd@a+2)^(0+384)
  3786     0B62  3000               	movlw	0
  3787     0B63  00A2               	movwf	(___fladd@a+1)^(0+384)
  3788     0B64  3000               	movlw	0
  3789     0B65  00A1               	movwf	___fladd@a^(0+384)
  3790     0B66                     l3414:
  3791     0B66  17A3               	bsf	(___fladd@a^(0+384)+2),7
  3792     0B67                     l3416:
  3793     0B67  01A4               	clrf	(___fladd@a^(0+384)+3)
  3794     0B68  2B71               	goto	l503
  3795     0B69                     l3418:
  3796     0B69  3000               	movlw	0
  3797     0B6A  00A4               	movwf	(___fladd@a+3)^(0+384)
  3798     0B6B  3000               	movlw	0
  3799     0B6C  00A3               	movwf	(___fladd@a+2)^(0+384)
  3800     0B6D  3000               	movlw	0
  3801     0B6E  00A2               	movwf	(___fladd@a+1)^(0+384)
  3802     0B6F  3000               	movlw	0
  3803     0B70  00A1               	movwf	___fladd@a^(0+384)
  3804     0B71                     l503:
  3805     0B71  082F               	movf	___fladd@bexp^(0+384),w
  3806     0B72  022E               	subwf	___fladd@aexp^(0+384),w
  3807     0B73  1803               	skipnc
  3808     0B74  2B76               	goto	u5971
  3809     0B75  2B77               	goto	u5970
  3810     0B76                     u5971:
  3811     0B76  2B9D               	goto	l3454
  3812     0B77                     u5970:
  3813     0B77                     l3420:
  3814     0B77  1F2D               	btfss	___fladd@signs^(0+384),6
  3815     0B78  2B7A               	goto	u5981
  3816     0B79  2B7B               	goto	u5980
  3817     0B7A                     u5981:
  3818     0B7A  2B7F               	goto	l3424
  3819     0B7B                     u5980:
  3820     0B7B                     l3422:
  3821     0B7B  3080               	movlw	128
  3822     0B7C  00A5               	movwf	??___fladd^(0+384)
  3823     0B7D  0825               	movf	??___fladd^(0+384),w
  3824     0B7E  06AD               	xorwf	___fladd@signs^(0+384),f
  3825     0B7F                     l3424:
  3826     0B7F  082F               	movf	___fladd@bexp^(0+384),w
  3827     0B80  00B0               	movwf	___fladd@grs^(0+384)
  3828     0B81                     l3426:
  3829     0B81  082E               	movf	___fladd@aexp^(0+384),w
  3830     0B82  00AF               	movwf	___fladd@bexp^(0+384)
  3831     0B83                     l3428:
  3832     0B83  0830               	movf	___fladd@grs^(0+384),w
  3833     0B84  00AE               	movwf	___fladd@aexp^(0+384)
  3834     0B85                     l3430:
  3835     0B85  081D               	movf	___fladd@b^(0+384),w
  3836     0B86  00B0               	movwf	___fladd@grs^(0+384)
  3837     0B87                     l3432:
  3838     0B87  0821               	movf	___fladd@a^(0+384),w
  3839     0B88  009D               	movwf	___fladd@b^(0+384)
  3840     0B89                     l3434:
  3841     0B89  0830               	movf	___fladd@grs^(0+384),w
  3842     0B8A  00A1               	movwf	___fladd@a^(0+384)
  3843     0B8B                     l3436:
  3844     0B8B  081E               	movf	(___fladd@b^(0+384)+1),w
  3845     0B8C  00B0               	movwf	___fladd@grs^(0+384)
  3846     0B8D                     l3438:
  3847     0B8D  0822               	movf	(___fladd@a^(0+384)+1),w
  3848     0B8E  009E               	movwf	(___fladd@b^(0+384)+1)
  3849     0B8F                     l3440:
  3850     0B8F  0830               	movf	___fladd@grs^(0+384),w
  3851     0B90  00A2               	movwf	(___fladd@a^(0+384)+1)
  3852     0B91                     l3442:
  3853     0B91  081F               	movf	(___fladd@b^(0+384)+2),w
  3854     0B92  00B0               	movwf	___fladd@grs^(0+384)
  3855     0B93                     l3444:
  3856     0B93  0823               	movf	(___fladd@a^(0+384)+2),w
  3857     0B94  009F               	movwf	(___fladd@b^(0+384)+2)
  3858     0B95                     l3446:
  3859     0B95  0830               	movf	___fladd@grs^(0+384),w
  3860     0B96  00A3               	movwf	(___fladd@a^(0+384)+2)
  3861     0B97                     l3448:
  3862     0B97  0820               	movf	(___fladd@b^(0+384)+3),w
  3863     0B98  00B0               	movwf	___fladd@grs^(0+384)
  3864     0B99                     l3450:
  3865     0B99  0824               	movf	(___fladd@a^(0+384)+3),w
  3866     0B9A  00A0               	movwf	(___fladd@b^(0+384)+3)
  3867     0B9B                     l3452:
  3868     0B9B  0830               	movf	___fladd@grs^(0+384),w
  3869     0B9C  00A4               	movwf	(___fladd@a^(0+384)+3)
  3870     0B9D                     l3454:
  3871     0B9D  01B0               	clrf	___fladd@grs^(0+384)
  3872     0B9E                     l3456:
  3873     0B9E  082E               	movf	___fladd@aexp^(0+384),w
  3874     0B9F  00A5               	movwf	??___fladd^(0+384)
  3875     0BA0  01A6               	clrf	(??___fladd^(0+384)+1)
  3876     0BA1  0826               	movf	(??___fladd+1)^(0+384),w
  3877     0BA2  00A8               	movwf	((??___fladd+2)^(0+384)+1)
  3878     0BA3  082F               	movf	___fladd@bexp^(0+384),w
  3879     0BA4  0225               	subwf	??___fladd^(0+384),w
  3880     0BA5  00A7               	movwf	(??___fladd+2)^(0+384)
  3881     0BA6  1C03               	skipc
  3882     0BA7  03A8               	decf	((??___fladd+2)^(0+384)+1),f
  3883     0BA8  0828               	movf	(??___fladd+3)^(0+384),w
  3884     0BA9  3A80               	xorlw	128
  3885     0BAA  00FF               	movwf	btemp+1
  3886     0BAB  3080               	movlw	128
  3887     0BAC  027F               	subwf	btemp+1,w
  3888     0BAD  1D03               	skipz
  3889     0BAE  2BB1               	goto	u5995
  3890     0BAF  301A               	movlw	26
  3891     0BB0  0227               	subwf	(??___fladd+2)^(0+384),w
  3892     0BB1                     u5995:
  3893     0BB1  1C03               	skipc
  3894     0BB2  2BB4               	goto	u5991
  3895     0BB3  2BB5               	goto	u5990
  3896     0BB4                     u5991:
  3897     0BB4  2BEC               	goto	l3472
  3898     0BB5                     u5990:
  3899     0BB5                     l3458:
  3900     0BB5  1683               	bsf	3,5	;RP0=1, select bank3
  3901     0BB6  1703               	bsf	3,6	;RP1=1, select bank3
  3902     0BB7  0820               	movf	(___fladd@b+3)^(0+384),w
  3903     0BB8  041F               	iorwf	(___fladd@b+2)^(0+384),w
  3904     0BB9  041E               	iorwf	(___fladd@b+1)^(0+384),w
  3905     0BBA  041D               	iorwf	___fladd@b^(0+384),w
  3906     0BBB  1D03               	skipz
  3907     0BBC  2BBE               	goto	u6001
  3908     0BBD  2BC0               	goto	u6000
  3909     0BBE                     u6001:
  3910     0BBE  3001               	movlw	1
  3911     0BBF  2BC1               	goto	u6010
  3912     0BC0                     u6000:
  3913     0BC0  3000               	movlw	0
  3914     0BC1                     u6010:
  3915     0BC1  00B0               	movwf	___fladd@grs^(0+384)
  3916     0BC2  3000               	movlw	0
  3917     0BC3  00A0               	movwf	(___fladd@b+3)^(0+384)
  3918     0BC4  3000               	movlw	0
  3919     0BC5  009F               	movwf	(___fladd@b+2)^(0+384)
  3920     0BC6  3000               	movlw	0
  3921     0BC7  009E               	movwf	(___fladd@b+1)^(0+384)
  3922     0BC8  3000               	movlw	0
  3923     0BC9  009D               	movwf	___fladd@b^(0+384)
  3924     0BCA  082E               	movf	___fladd@aexp^(0+384),w
  3925     0BCB  00AF               	movwf	___fladd@bexp^(0+384)
  3926     0BCC  2BF4               	goto	l507
  3927     0BCD                     l509:
  3928     0BCD  1C30               	btfss	___fladd@grs^(0+384),0
  3929     0BCE  2BD0               	goto	u6021
  3930     0BCF  2BD1               	goto	u6020
  3931     0BD0                     u6021:
  3932     0BD0  2BD8               	goto	l3462
  3933     0BD1                     u6020:
  3934     0BD1                     l3460:
  3935     0BD1  0830               	movf	___fladd@grs^(0+384),w
  3936     0BD2  00A5               	movwf	??___fladd^(0+384)
  3937     0BD3  1003               	clrc
  3938     0BD4  0C25               	rrf	??___fladd^(0+384),w
  3939     0BD5  3801               	iorlw	1
  3940     0BD6  00B0               	movwf	___fladd@grs^(0+384)
  3941     0BD7  2BDA               	goto	l3464
  3942     0BD8                     l3462:
  3943     0BD8  1003               	clrc
  3944     0BD9  0CB0               	rrf	___fladd@grs^(0+384),f
  3945     0BDA                     l3464:
  3946     0BDA  1C1D               	btfss	___fladd@b^(0+384),0
  3947     0BDB  2BDD               	goto	u6031
  3948     0BDC  2BDE               	goto	u6030
  3949     0BDD                     u6031:
  3950     0BDD  2BDF               	goto	l3468
  3951     0BDE                     u6030:
  3952     0BDE                     l3466:
  3953     0BDE  17B0               	bsf	___fladd@grs^(0+384),7
  3954     0BDF                     l3468:
  3955     0BDF  3001               	movlw	1
  3956     0BE0  00A5               	movwf	??___fladd^(0+384)
  3957     0BE1                     u6045:
  3958     0BE1  0D20               	rlf	(___fladd@b+3)^(0+384),w
  3959     0BE2  0CA0               	rrf	(___fladd@b+3)^(0+384),f
  3960     0BE3  0C9F               	rrf	(___fladd@b+2)^(0+384),f
  3961     0BE4  0C9E               	rrf	(___fladd@b+1)^(0+384),f
  3962     0BE5  0C9D               	rrf	___fladd@b^(0+384),f
  3963     0BE6  0BA5               	decfsz	(??___fladd^(0+384))& (0+127),f
  3964     0BE7  2BE1               	goto	u6045
  3965     0BE8                     l3470:
  3966     0BE8  3001               	movlw	1
  3967     0BE9  00A5               	movwf	??___fladd^(0+384)
  3968     0BEA  0825               	movf	??___fladd^(0+384),w
  3969     0BEB  07AF               	addwf	___fladd@bexp^(0+384),f
  3970     0BEC                     l3472:
  3971     0BEC  1683               	bsf	3,5	;RP0=1, select bank3
  3972     0BED  1703               	bsf	3,6	;RP1=1, select bank3
  3973     0BEE  082E               	movf	___fladd@aexp^(0+384),w
  3974     0BEF  022F               	subwf	___fladd@bexp^(0+384),w
  3975     0BF0  1C03               	skipc
  3976     0BF1  2BF3               	goto	u6051
  3977     0BF2  2BF4               	goto	u6050
  3978     0BF3                     u6051:
  3979     0BF3  2BCD               	goto	l509
  3980     0BF4                     u6050:
  3981     0BF4                     l507:
  3982     0BF4  1B2D               	btfsc	___fladd@signs^(0+384),6
  3983     0BF5  2BF7               	goto	u6061
  3984     0BF6  2BF8               	goto	u6060
  3985     0BF7                     u6061:
  3986     0BF7  2C41               	goto	l3498
  3987     0BF8                     u6060:
  3988     0BF8                     l3474:
  3989     0BF8  082F               	movf	___fladd@bexp^(0+384),w
  3990     0BF9  1D03               	btfss	3,2
  3991     0BFA  2BFC               	goto	u6071
  3992     0BFB  2BFD               	goto	u6070
  3993     0BFC                     u6071:
  3994     0BFC  2C06               	goto	l3480
  3995     0BFD                     u6070:
  3996     0BFD                     l3476:
  3997     0BFD  3000               	movlw	0
  3998     0BFE  00A0               	movwf	(?___fladd+3)^(0+384)
  3999     0BFF  3000               	movlw	0
  4000     0C00  009F               	movwf	(?___fladd+2)^(0+384)
  4001     0C01  3000               	movlw	0
  4002     0C02  009E               	movwf	(?___fladd+1)^(0+384)
  4003     0C03  3000               	movlw	0
  4004     0C04  009D               	movwf	?___fladd^(0+384)
  4005     0C05  2D6D               	goto	l516
  4006     0C06                     l3480:
  4007     0C06  0821               	movf	___fladd@a^(0+384),w
  4008     0C07  079D               	addwf	___fladd@b^(0+384),f
  4009     0C08  0822               	movf	(___fladd@a+1)^(0+384),w
  4010     0C09  1103               	clrz
  4011     0C0A  1803               	skipnc
  4012     0C0B  3E01               	addlw	1
  4013     0C0C  1903               	skipnz
  4014     0C0D  2C0F               	goto	u6081
  4015     0C0E  079E               	addwf	(___fladd@b+1)^(0+384),f
  4016     0C0F                     u6081:
  4017     0C0F  0823               	movf	(___fladd@a+2)^(0+384),w
  4018     0C10  1103               	clrz
  4019     0C11  1803               	skipnc
  4020     0C12  3E01               	addlw	1
  4021     0C13  1903               	skipnz
  4022     0C14  2C16               	goto	u6082
  4023     0C15  079F               	addwf	(___fladd@b+2)^(0+384),f
  4024     0C16                     u6082:
  4025     0C16  0824               	movf	(___fladd@a+3)^(0+384),w
  4026     0C17  1103               	clrz
  4027     0C18  1803               	skipnc
  4028     0C19  3E01               	addlw	1
  4029     0C1A  1903               	skipnz
  4030     0C1B  2C1D               	goto	u6083
  4031     0C1C  07A0               	addwf	(___fladd@b+3)^(0+384),f
  4032     0C1D                     u6083:
  4033     0C1D                     l3482:
  4034     0C1D  1C20               	btfss	(___fladd@b+3)^(0+384),0
  4035     0C1E  2C20               	goto	u6091
  4036     0C1F  2C21               	goto	u6090
  4037     0C20                     u6091:
  4038     0C20  2CF5               	goto	l3532
  4039     0C21                     u6090:
  4040     0C21                     l3484:
  4041     0C21  1C30               	btfss	___fladd@grs^(0+384),0
  4042     0C22  2C24               	goto	u6101
  4043     0C23  2C25               	goto	u6100
  4044     0C24                     u6101:
  4045     0C24  2C2C               	goto	l3488
  4046     0C25                     u6100:
  4047     0C25                     l3486:
  4048     0C25  0830               	movf	___fladd@grs^(0+384),w
  4049     0C26  00A5               	movwf	??___fladd^(0+384)
  4050     0C27  1003               	clrc
  4051     0C28  0C25               	rrf	??___fladd^(0+384),w
  4052     0C29  3801               	iorlw	1
  4053     0C2A  00B0               	movwf	___fladd@grs^(0+384)
  4054     0C2B  2C2E               	goto	l3490
  4055     0C2C                     l3488:
  4056     0C2C  1003               	clrc
  4057     0C2D  0CB0               	rrf	___fladd@grs^(0+384),f
  4058     0C2E                     l3490:
  4059     0C2E  1C1D               	btfss	___fladd@b^(0+384),0
  4060     0C2F  2C31               	goto	u6111
  4061     0C30  2C32               	goto	u6110
  4062     0C31                     u6111:
  4063     0C31  2C33               	goto	l3494
  4064     0C32                     u6110:
  4065     0C32                     l3492:
  4066     0C32  17B0               	bsf	___fladd@grs^(0+384),7
  4067     0C33                     l3494:
  4068     0C33  3001               	movlw	1
  4069     0C34  00A5               	movwf	??___fladd^(0+384)
  4070     0C35                     u6125:
  4071     0C35  0D20               	rlf	(___fladd@b+3)^(0+384),w
  4072     0C36  0CA0               	rrf	(___fladd@b+3)^(0+384),f
  4073     0C37  0C9F               	rrf	(___fladd@b+2)^(0+384),f
  4074     0C38  0C9E               	rrf	(___fladd@b+1)^(0+384),f
  4075     0C39  0C9D               	rrf	___fladd@b^(0+384),f
  4076     0C3A  0BA5               	decfsz	(??___fladd^(0+384))& (0+127),f
  4077     0C3B  2C35               	goto	u6125
  4078     0C3C                     l3496:
  4079     0C3C  3001               	movlw	1
  4080     0C3D  00A5               	movwf	??___fladd^(0+384)
  4081     0C3E  0825               	movf	??___fladd^(0+384),w
  4082     0C3F  07AF               	addwf	___fladd@bexp^(0+384),f
  4083     0C40  2CF5               	goto	l3532
  4084     0C41                     l3498:
  4085     0C41  0820               	movf	(___fladd@b+3)^(0+384),w
  4086     0C42  3A80               	xorlw	128
  4087     0C43  00FF               	movwf	btemp+1
  4088     0C44  0824               	movf	(___fladd@a+3)^(0+384),w
  4089     0C45  3A80               	xorlw	128
  4090     0C46  027F               	subwf	btemp+1,w
  4091     0C47  1D03               	skipz
  4092     0C48  2C53               	goto	u6133
  4093     0C49  0823               	movf	(___fladd@a+2)^(0+384),w
  4094     0C4A  021F               	subwf	(___fladd@b+2)^(0+384),w
  4095     0C4B  1D03               	skipz
  4096     0C4C  2C53               	goto	u6133
  4097     0C4D  0822               	movf	(___fladd@a+1)^(0+384),w
  4098     0C4E  021E               	subwf	(___fladd@b+1)^(0+384),w
  4099     0C4F  1D03               	skipz
  4100     0C50  2C53               	goto	u6133
  4101     0C51  0821               	movf	___fladd@a^(0+384),w
  4102     0C52  021D               	subwf	___fladd@b^(0+384),w
  4103     0C53                     u6133:
  4104     0C53  1803               	skipnc
  4105     0C54  2C56               	goto	u6131
  4106     0C55  2C57               	goto	u6130
  4107     0C56                     u6131:
  4108     0C56  2CAF               	goto	l3508
  4109     0C57                     u6130:
  4110     0C57                     l3500:
  4111     0C57  30FF               	movlw	255
  4112     0C58  00A5               	movwf	??___fladd^(0+384)
  4113     0C59  30FF               	movlw	255
  4114     0C5A  00A6               	movwf	(??___fladd^(0+384)+1)
  4115     0C5B  30FF               	movlw	255
  4116     0C5C  00A7               	movwf	(??___fladd^(0+384)+2)
  4117     0C5D  30FF               	movlw	255
  4118     0C5E  00A8               	movwf	(??___fladd^(0+384)+3)
  4119     0C5F  0821               	movf	___fladd@a^(0+384),w
  4120     0C60  00A9               	movwf	(??___fladd+4)^(0+384)
  4121     0C61  0822               	movf	(___fladd@a+1)^(0+384),w
  4122     0C62  00AA               	movwf	((??___fladd+4)^(0+384)+1)
  4123     0C63  0823               	movf	(___fladd@a+2)^(0+384),w
  4124     0C64  00AB               	movwf	((??___fladd+4)^(0+384)+2)
  4125     0C65  0824               	movf	(___fladd@a+3)^(0+384),w
  4126     0C66  00AC               	movwf	((??___fladd+4)^(0+384)+3)
  4127     0C67  081D               	movf	___fladd@b^(0+384),w
  4128     0C68  02A9               	subwf	(??___fladd+4)^(0+384),f
  4129     0C69  081E               	movf	(___fladd@b+1)^(0+384),w
  4130     0C6A  1C03               	skipc
  4131     0C6B  0F1E               	incfsz	(___fladd@b+1)^(0+384),w
  4132     0C6C  2C6E               	goto	u6141
  4133     0C6D  2C6F               	goto	u6142
  4134     0C6E                     u6141:
  4135     0C6E  02AA               	subwf	((??___fladd+4)^(0+384)+1),f
  4136     0C6F                     u6142:
  4137     0C6F  081F               	movf	(___fladd@b+2)^(0+384),w
  4138     0C70  1C03               	skipc
  4139     0C71  0F1F               	incfsz	(___fladd@b+2)^(0+384),w
  4140     0C72  2C74               	goto	u6143
  4141     0C73  2C75               	goto	u6144
  4142     0C74                     u6143:
  4143     0C74  02AB               	subwf	((??___fladd+4)^(0+384)+2),f
  4144     0C75                     u6144:
  4145     0C75  0820               	movf	(___fladd@b+3)^(0+384),w
  4146     0C76  1C03               	skipc
  4147     0C77  0F20               	incfsz	(___fladd@b+3)^(0+384),w
  4148     0C78  2C7A               	goto	u6145
  4149     0C79  2C7B               	goto	u6146
  4150     0C7A                     u6145:
  4151     0C7A  02AC               	subwf	((??___fladd+4)^(0+384)+3),f
  4152     0C7B                     u6146:
  4153     0C7B  0829               	movf	(??___fladd+4)^(0+384),w
  4154     0C7C  07A5               	addwf	??___fladd^(0+384),f
  4155     0C7D  082A               	movf	(??___fladd+5)^(0+384),w
  4156     0C7E  1803               	skipnc
  4157     0C7F  0F2A               	incfsz	(??___fladd+5)^(0+384),w
  4158     0C80  2C82               	goto	u6150
  4159     0C81  2C83               	goto	u6151
  4160     0C82                     u6150:
  4161     0C82  07A6               	addwf	(??___fladd^(0+384)+1),f
  4162     0C83                     u6151:
  4163     0C83  082B               	movf	(??___fladd+6)^(0+384),w
  4164     0C84  1803               	skipnc
  4165     0C85  0F2B               	incfsz	(??___fladd+6)^(0+384),w
  4166     0C86  2C88               	goto	u6152
  4167     0C87  2C89               	goto	u6153
  4168     0C88                     u6152:
  4169     0C88  07A7               	addwf	(??___fladd^(0+384)+2),f
  4170     0C89                     u6153:
  4171     0C89  082C               	movf	(??___fladd+7)^(0+384),w
  4172     0C8A  1803               	skipnc
  4173     0C8B  0A2C               	incf	(??___fladd+7)^(0+384),w
  4174     0C8C  07A8               	addwf	(??___fladd^(0+384)+3),f
  4175     0C8D  0828               	movf	(??___fladd+3)^(0+384),w
  4176     0C8E  00A0               	movwf	(___fladd@b+3)^(0+384)
  4177     0C8F  0827               	movf	(??___fladd+2)^(0+384),w
  4178     0C90  009F               	movwf	(___fladd@b+2)^(0+384)
  4179     0C91  0826               	movf	(??___fladd+1)^(0+384),w
  4180     0C92  009E               	movwf	(___fladd@b+1)^(0+384)
  4181     0C93  0825               	movf	??___fladd^(0+384),w
  4182     0C94  009D               	movwf	___fladd@b^(0+384)
  4183     0C95                     l3502:
  4184     0C95  3080               	movlw	128
  4185     0C96  00A5               	movwf	??___fladd^(0+384)
  4186     0C97  0825               	movf	??___fladd^(0+384),w
  4187     0C98  06AD               	xorwf	___fladd@signs^(0+384),f
  4188     0C99  09B0               	comf	___fladd@grs^(0+384),f
  4189     0C9A  0AB0               	incf	___fladd@grs^(0+384),f
  4190     0C9B                     l3504:
  4191     0C9B  0830               	movf	___fladd@grs^(0+384),w
  4192     0C9C  1D03               	btfss	3,2
  4193     0C9D  2C9F               	goto	u6161
  4194     0C9E  2CA0               	goto	u6160
  4195     0C9F                     u6161:
  4196     0C9F  2CBD               	goto	l524
  4197     0CA0                     u6160:
  4198     0CA0                     l3506:
  4199     0CA0  3001               	movlw	1
  4200     0CA1  079D               	addwf	___fladd@b^(0+384),f
  4201     0CA2  3000               	movlw	0
  4202     0CA3  1803               	skipnc
  4203     0CA4  3001               	movlw	1
  4204     0CA5  079E               	addwf	(___fladd@b+1)^(0+384),f
  4205     0CA6  3000               	movlw	0
  4206     0CA7  1803               	skipnc
  4207     0CA8  3001               	movlw	1
  4208     0CA9  079F               	addwf	(___fladd@b+2)^(0+384),f
  4209     0CAA  3000               	movlw	0
  4210     0CAB  1803               	skipnc
  4211     0CAC  3001               	movlw	1
  4212     0CAD  07A0               	addwf	(___fladd@b+3)^(0+384),f
  4213     0CAE  2CBD               	goto	l524
  4214     0CAF                     l3508:
  4215     0CAF  0821               	movf	___fladd@a^(0+384),w
  4216     0CB0  029D               	subwf	___fladd@b^(0+384),f
  4217     0CB1  0822               	movf	(___fladd@a+1)^(0+384),w
  4218     0CB2  1C03               	skipc
  4219     0CB3  0F22               	incfsz	(___fladd@a+1)^(0+384),w
  4220     0CB4  029E               	subwf	(___fladd@b+1)^(0+384),f
  4221     0CB5  0823               	movf	(___fladd@a+2)^(0+384),w
  4222     0CB6  1C03               	skipc
  4223     0CB7  0F23               	incfsz	(___fladd@a+2)^(0+384),w
  4224     0CB8  029F               	subwf	(___fladd@b+2)^(0+384),f
  4225     0CB9  0824               	movf	(___fladd@a+3)^(0+384),w
  4226     0CBA  1C03               	skipc
  4227     0CBB  0F24               	incfsz	(___fladd@a+3)^(0+384),w
  4228     0CBC  02A0               	subwf	(___fladd@b+3)^(0+384),f
  4229     0CBD                     l524:
  4230     0CBD  0820               	movf	(___fladd@b+3)^(0+384),w
  4231     0CBE  041F               	iorwf	(___fladd@b+2)^(0+384),w
  4232     0CBF  041E               	iorwf	(___fladd@b+1)^(0+384),w
  4233     0CC0  041D               	iorwf	___fladd@b^(0+384),w
  4234     0CC1  1D03               	skipz
  4235     0CC2  2CC4               	goto	u6171
  4236     0CC3  2CC5               	goto	u6170
  4237     0CC4                     u6171:
  4238     0CC4  2CF1               	goto	l3530
  4239     0CC5                     u6170:
  4240     0CC5                     l3510:
  4241     0CC5  0830               	movf	___fladd@grs^(0+384),w
  4242     0CC6  1D03               	btfss	3,2
  4243     0CC7  2CC9               	goto	u6181
  4244     0CC8  2CCA               	goto	u6180
  4245     0CC9                     u6181:
  4246     0CC9  2CF1               	goto	l3530
  4247     0CCA                     u6180:
  4248     0CCA                     l3512:
  4249     0CCA  3000               	movlw	0
  4250     0CCB  00A0               	movwf	(?___fladd+3)^(0+384)
  4251     0CCC  3000               	movlw	0
  4252     0CCD  009F               	movwf	(?___fladd+2)^(0+384)
  4253     0CCE  3000               	movlw	0
  4254     0CCF  009E               	movwf	(?___fladd+1)^(0+384)
  4255     0CD0  3000               	movlw	0
  4256     0CD1  009D               	movwf	?___fladd^(0+384)
  4257     0CD2  2D6D               	goto	l516
  4258     0CD3                     l3516:
  4259     0CD3  3001               	movlw	1
  4260     0CD4  00A5               	movwf	??___fladd^(0+384)
  4261     0CD5                     u6195:
  4262     0CD5  1003               	clrc
  4263     0CD6  0D9D               	rlf	___fladd@b^(0+384),f
  4264     0CD7  0D9E               	rlf	(___fladd@b+1)^(0+384),f
  4265     0CD8  0D9F               	rlf	(___fladd@b+2)^(0+384),f
  4266     0CD9  0DA0               	rlf	(___fladd@b+3)^(0+384),f
  4267     0CDA  0BA5               	decfsz	??___fladd^(0+384),f
  4268     0CDB  2CD5               	goto	u6195
  4269     0CDC                     l3518:
  4270     0CDC  1FB0               	btfss	___fladd@grs^(0+384),7
  4271     0CDD  2CDF               	goto	u6201
  4272     0CDE  2CE0               	goto	u6200
  4273     0CDF                     u6201:
  4274     0CDF  2CE1               	goto	l528
  4275     0CE0                     u6200:
  4276     0CE0                     l3520:
  4277     0CE0  141D               	bsf	___fladd@b^(0+384),0
  4278     0CE1                     l528:
  4279     0CE1  1C30               	btfss	___fladd@grs^(0+384),0
  4280     0CE2  2CE4               	goto	u6211
  4281     0CE3  2CE5               	goto	u6210
  4282     0CE4                     u6211:
  4283     0CE4  2CE8               	goto	l3524
  4284     0CE5                     u6210:
  4285     0CE5                     l3522:
  4286     0CE5  1403               	setc
  4287     0CE6  0DB0               	rlf	___fladd@grs^(0+384),f
  4288     0CE7  2CEA               	goto	l3526
  4289     0CE8                     l3524:
  4290     0CE8  1003               	clrc
  4291     0CE9  0DB0               	rlf	___fladd@grs^(0+384),f
  4292     0CEA                     l3526:
  4293     0CEA  082F               	movf	___fladd@bexp^(0+384),w
  4294     0CEB  1903               	btfsc	3,2
  4295     0CEC  2CEE               	goto	u6221
  4296     0CED  2CEF               	goto	u6220
  4297     0CEE                     u6221:
  4298     0CEE  2CF1               	goto	l3530
  4299     0CEF                     u6220:
  4300     0CEF                     l3528:
  4301     0CEF  3001               	movlw	1
  4302     0CF0  02AF               	subwf	___fladd@bexp^(0+384),f
  4303     0CF1                     l3530:
  4304     0CF1  1F9F               	btfss	(___fladd@b+2)^(0+384),7
  4305     0CF2  2CF4               	goto	u6231
  4306     0CF3  2CF5               	goto	u6230
  4307     0CF4                     u6231:
  4308     0CF4  2CD3               	goto	l3516
  4309     0CF5                     u6230:
  4310     0CF5                     l3532:
  4311     0CF5  01AE               	clrf	___fladd@aexp^(0+384)
  4312     0CF6                     l3534:
  4313     0CF6  1FB0               	btfss	___fladd@grs^(0+384),7
  4314     0CF7  2CF9               	goto	u6241
  4315     0CF8  2CFA               	goto	u6240
  4316     0CF9                     u6241:
  4317     0CF9  2D08               	goto	l3542
  4318     0CFA                     u6240:
  4319     0CFA                     l3536:
  4320     0CFA  0830               	movf	___fladd@grs^(0+384),w
  4321     0CFB  397F               	andlw	127
  4322     0CFC  1903               	btfsc	3,2
  4323     0CFD  2CFF               	goto	u6251
  4324     0CFE  2D00               	goto	u6250
  4325     0CFF                     u6251:
  4326     0CFF  2D03               	goto	l534
  4327     0D00                     u6250:
  4328     0D00                     l3538:
  4329     0D00  01AE               	clrf	___fladd@aexp^(0+384)
  4330     0D01  0AAE               	incf	___fladd@aexp^(0+384),f
  4331     0D02  2D08               	goto	l3542
  4332     0D03                     l534:
  4333     0D03  1C1D               	btfss	___fladd@b^(0+384),0
  4334     0D04  2D06               	goto	u6261
  4335     0D05  2D07               	goto	u6260
  4336     0D06                     u6261:
  4337     0D06  2D08               	goto	l3542
  4338     0D07                     u6260:
  4339     0D07  2D00               	goto	l3538
  4340     0D08                     l3542:
  4341     0D08  082E               	movf	___fladd@aexp^(0+384),w
  4342     0D09  1903               	btfsc	3,2
  4343     0D0A  2D0C               	goto	u6271
  4344     0D0B  2D0D               	goto	u6270
  4345     0D0C                     u6271:
  4346     0D0C  2D41               	goto	l537
  4347     0D0D                     u6270:
  4348     0D0D                     l3544:
  4349     0D0D  3001               	movlw	1
  4350     0D0E  079D               	addwf	___fladd@b^(0+384),f
  4351     0D0F  3000               	movlw	0
  4352     0D10  1803               	skipnc
  4353     0D11  3001               	movlw	1
  4354     0D12  079E               	addwf	(___fladd@b+1)^(0+384),f
  4355     0D13  3000               	movlw	0
  4356     0D14  1803               	skipnc
  4357     0D15  3001               	movlw	1
  4358     0D16  079F               	addwf	(___fladd@b+2)^(0+384),f
  4359     0D17  3000               	movlw	0
  4360     0D18  1803               	skipnc
  4361     0D19  3001               	movlw	1
  4362     0D1A  07A0               	addwf	(___fladd@b+3)^(0+384),f
  4363     0D1B                     l3546:
  4364     0D1B  1C20               	btfss	(___fladd@b+3)^(0+384),0
  4365     0D1C  2D1E               	goto	u6281
  4366     0D1D  2D1F               	goto	u6280
  4367     0D1E                     u6281:
  4368     0D1E  2D41               	goto	l537
  4369     0D1F                     u6280:
  4370     0D1F                     l3548:
  4371     0D1F  081D               	movf	___fladd@b^(0+384),w
  4372     0D20  00A5               	movwf	??___fladd^(0+384)
  4373     0D21  081E               	movf	(___fladd@b+1)^(0+384),w
  4374     0D22  00A6               	movwf	(??___fladd^(0+384)+1)
  4375     0D23  081F               	movf	(___fladd@b+2)^(0+384),w
  4376     0D24  00A7               	movwf	(??___fladd^(0+384)+2)
  4377     0D25  0820               	movf	(___fladd@b+3)^(0+384),w
  4378     0D26  00A8               	movwf	(??___fladd^(0+384)+3)
  4379     0D27  3001               	movlw	1
  4380     0D28  00A9               	movwf	(??___fladd+4)^(0+384)
  4381     0D29                     u6295:
  4382     0D29  0D28               	rlf	(??___fladd^(0+384)+3),w
  4383     0D2A  0CA8               	rrf	(??___fladd^(0+384)+3),f
  4384     0D2B  0CA7               	rrf	(??___fladd^(0+384)+2),f
  4385     0D2C  0CA6               	rrf	(??___fladd^(0+384)+1),f
  4386     0D2D  0CA5               	rrf	??___fladd^(0+384),f
  4387     0D2E                     u6290:
  4388     0D2E  0BA9               	decfsz	(??___fladd+4)^(0+384),f
  4389     0D2F  2D29               	goto	u6295
  4390     0D30  0828               	movf	(??___fladd+3)^(0+384),w
  4391     0D31  00A0               	movwf	(___fladd@b+3)^(0+384)
  4392     0D32  0827               	movf	(??___fladd+2)^(0+384),w
  4393     0D33  009F               	movwf	(___fladd@b+2)^(0+384)
  4394     0D34  0826               	movf	(??___fladd+1)^(0+384),w
  4395     0D35  009E               	movwf	(___fladd@b+1)^(0+384)
  4396     0D36  0825               	movf	??___fladd^(0+384),w
  4397     0D37  009D               	movwf	___fladd@b^(0+384)
  4398     0D38  0A2F               	incf	___fladd@bexp^(0+384),w
  4399     0D39  1903               	btfsc	3,2
  4400     0D3A  2D3C               	goto	u6301
  4401     0D3B  2D3D               	goto	u6300
  4402     0D3C                     u6301:
  4403     0D3C  2D41               	goto	l537
  4404     0D3D                     u6300:
  4405     0D3D                     l3550:
  4406     0D3D  3001               	movlw	1
  4407     0D3E  00A5               	movwf	??___fladd^(0+384)
  4408     0D3F  0825               	movf	??___fladd^(0+384),w
  4409     0D40  07AF               	addwf	___fladd@bexp^(0+384),f
  4410     0D41                     l537:
  4411     0D41  0A2F               	incf	___fladd@bexp^(0+384),w
  4412     0D42  1903               	btfsc	3,2
  4413     0D43  2D45               	goto	u6311
  4414     0D44  2D46               	goto	u6310
  4415     0D45                     u6311:
  4416     0D45  2D4B               	goto	l3554
  4417     0D46                     u6310:
  4418     0D46                     l3552:
  4419     0D46  082F               	movf	___fladd@bexp^(0+384),w
  4420     0D47  1D03               	btfss	3,2
  4421     0D48  2D4A               	goto	u6321
  4422     0D49  2D4B               	goto	u6320
  4423     0D4A                     u6321:
  4424     0D4A  2D59               	goto	l3560
  4425     0D4B                     u6320:
  4426     0D4B                     l3554:
  4427     0D4B  3000               	movlw	0
  4428     0D4C  00A0               	movwf	(___fladd@b+3)^(0+384)
  4429     0D4D  3000               	movlw	0
  4430     0D4E  009F               	movwf	(___fladd@b+2)^(0+384)
  4431     0D4F  3000               	movlw	0
  4432     0D50  009E               	movwf	(___fladd@b+1)^(0+384)
  4433     0D51  3000               	movlw	0
  4434     0D52  009D               	movwf	___fladd@b^(0+384)
  4435     0D53                     l3556:
  4436     0D53  082F               	movf	___fladd@bexp^(0+384),w
  4437     0D54  1D03               	btfss	3,2
  4438     0D55  2D57               	goto	u6331
  4439     0D56  2D58               	goto	u6330
  4440     0D57                     u6331:
  4441     0D57  2D59               	goto	l3560
  4442     0D58                     u6330:
  4443     0D58                     l3558:
  4444     0D58  01AD               	clrf	___fladd@signs^(0+384)
  4445     0D59                     l3560:
  4446     0D59  1C2F               	btfss	___fladd@bexp^(0+384),0
  4447     0D5A  2D5C               	goto	u6341
  4448     0D5B  2D5D               	goto	u6340
  4449     0D5C                     u6341:
  4450     0D5C  2D5F               	goto	l3564
  4451     0D5D                     u6340:
  4452     0D5D                     l3562:
  4453     0D5D  179F               	bsf	(___fladd@b^(0+384)+2),7
  4454     0D5E  2D63               	goto	l545
  4455     0D5F                     l3564:
  4456     0D5F  307F               	movlw	127
  4457     0D60  00A5               	movwf	??___fladd^(0+384)
  4458     0D61  0825               	movf	??___fladd^(0+384),w
  4459     0D62  059F               	andwf	(___fladd@b^(0+384)+2),f
  4460     0D63                     l545:
  4461     0D63  082F               	movf	___fladd@bexp^(0+384),w
  4462     0D64  00A5               	movwf	??___fladd^(0+384)
  4463     0D65  1003               	clrc
  4464     0D66  0C25               	rrf	??___fladd^(0+384),w
  4465     0D67  00A0               	movwf	(___fladd@b^(0+384)+3)
  4466     0D68                     l3566:
  4467     0D68  1FAD               	btfss	___fladd@signs^(0+384),7
  4468     0D69  2D6B               	goto	u6351
  4469     0D6A  2D6C               	goto	u6350
  4470     0D6B                     u6351:
  4471     0D6B  2D6D               	goto	l546
  4472     0D6C                     u6350:
  4473     0D6C                     l3568:
  4474     0D6C  17A0               	bsf	(___fladd@b^(0+384)+3),7
  4475     0D6D                     l546:
  4476     0D6D                     l516:
  4477     0D6D  0008               	return
  4478     0D6E                     __end_of___fladd:
  4479                           
  4480                           	psect	text8
  4481     06AB                     __ptext8:	
  4482 ;; *************** function _isr *****************
  4483 ;; Defined at:
  4484 ;;		line 41 in file "prelablab7.c"
  4485 ;; Parameters:    Size  Location     Type
  4486 ;;		None
  4487 ;; Auto vars:     Size  Location     Type
  4488 ;;		None
  4489 ;; Return value:  Size  Location     Type
  4490 ;;                  1    wreg      void 
  4491 ;; Registers used:
  4492 ;;		wreg, status,2, status,0, btemp+1, pclath, cstack
  4493 ;; Tracked objects:
  4494 ;;		On entry : 0/0
  4495 ;;		On exit  : 0/0
  4496 ;;		Unchanged: 0/0
  4497 ;; Data sizes:     COMMON   BANK0   BANK1   BANK3   BANK2
  4498 ;;      Params:         0       0       0       0       0
  4499 ;;      Locals:         0       0       0       0       0
  4500 ;;      Temps:          0       0       7       0       0
  4501 ;;      Totals:         0       0       7       0       0
  4502 ;;Total ram usage:        7 bytes
  4503 ;; Hardware stack levels used: 1
  4504 ;; Hardware stack levels required when called: 3
  4505 ;; This function calls:
  4506 ;;		_PWM_DUTY
  4507 ;;		___xxtofl
  4508 ;;		_mapear
  4509 ;; This function is called by:
  4510 ;;		Interrupt level 1
  4511 ;; This function uses a non-reentrant model
  4512 ;;
  4513                           
  4514     06AB                     _isr:	
  4515                           ;psect for function _isr
  4516                           
  4517     06AB                     i1l3318:
  4518                           
  4519                           ;prelablab7.c: 42:     if(T0IF){
  4520     06AB  1D0B               	btfss	11,2	;volatile
  4521     06AC  2EAE               	goto	u579_21
  4522     06AD  2EAF               	goto	u579_20
  4523     06AE                     u579_21:
  4524     06AE  2EE2               	goto	i1l3332
  4525     06AF                     u579_20:
  4526     06AF                     i1l3320:
  4527                           
  4528                           ;prelablab7.c: 43:         if(cont0 == 20){
  4529     06AF  3014               	movlw	20
  4530     06B0  1283               	bcf	3,5	;RP0=0, select bank0
  4531     06B1  1303               	bcf	3,6	;RP1=0, select bank0
  4532     06B2  066E               	xorwf	_cont0,w
  4533     06B3  046F               	iorwf	_cont0+1,w
  4534     06B4  1D03               	btfss	3,2
  4535     06B5  2EB7               	goto	u580_21
  4536     06B6  2EB8               	goto	u580_20
  4537     06B7                     u580_21:
  4538     06B7  2EBA               	goto	i1l3324
  4539     06B8                     u580_20:
  4540     06B8                     i1l3322:
  4541                           
  4542                           ;prelablab7.c: 44:             cont0 = 0;
  4543     06B8  01EE               	clrf	_cont0
  4544     06B9  01EF               	clrf	_cont0+1
  4545     06BA                     i1l3324:
  4546                           
  4547                           ;prelablab7.c: 46:         if(cont0 <= manualPWM){
  4548     06BA  1683               	bsf	3,5	;RP0=1, select bank1
  4549     06BB  1303               	bcf	3,6	;RP1=0, select bank1
  4550     06BC  085F               	movf	(_manualPWM+1)^(0+128),w
  4551     06BD  3A80               	xorlw	128
  4552     06BE  00A7               	movwf	??_isr^(0+128)
  4553     06BF  1283               	bcf	3,5	;RP0=0, select bank0
  4554     06C0  1303               	bcf	3,6	;RP1=0, select bank0
  4555     06C1  086F               	movf	_cont0+1,w
  4556     06C2  3A80               	xorlw	128
  4557     06C3  1683               	bsf	3,5	;RP0=1, select bank1
  4558     06C4  1303               	bcf	3,6	;RP1=0, select bank1
  4559     06C5  0227               	subwf	??_isr^(0+128),w
  4560     06C6  1D03               	skipz
  4561     06C7  2ECE               	goto	u581_25
  4562     06C8  1283               	bcf	3,5	;RP0=0, select bank0
  4563     06C9  1303               	bcf	3,6	;RP1=0, select bank0
  4564     06CA  086E               	movf	_cont0,w
  4565     06CB  1683               	bsf	3,5	;RP0=1, select bank1
  4566     06CC  1303               	bcf	3,6	;RP1=0, select bank1
  4567     06CD  025E               	subwf	_manualPWM^(0+128),w
  4568     06CE                     u581_25:
  4569     06CE  1C03               	skipc
  4570     06CF  2ED1               	goto	u581_21
  4571     06D0  2ED2               	goto	u581_20
  4572     06D1                     u581_21:
  4573     06D1  2ED6               	goto	i1l61
  4574     06D2                     u581_20:
  4575     06D2                     i1l3326:
  4576                           
  4577                           ;prelablab7.c: 47:             PORTCbits.RC3 = 1;
  4578     06D2  1283               	bcf	3,5	;RP0=0, select bank0
  4579     06D3  1303               	bcf	3,6	;RP1=0, select bank0
  4580     06D4  1587               	bsf	7,3	;volatile
  4581                           
  4582                           ;prelablab7.c: 48:         }else{
  4583     06D5  2ED9               	goto	i1l3328
  4584     06D6                     i1l61:
  4585                           
  4586                           ;prelablab7.c: 49:             PORTCbits.RC3 = 0;
  4587     06D6  1283               	bcf	3,5	;RP0=0, select bank0
  4588     06D7  1303               	bcf	3,6	;RP1=0, select bank0
  4589     06D8  1187               	bcf	7,3	;volatile
  4590     06D9                     i1l3328:
  4591                           
  4592                           ;prelablab7.c: 51:         cont0++;
  4593     06D9  3001               	movlw	1
  4594     06DA  07EE               	addwf	_cont0,f
  4595     06DB  1803               	skipnc
  4596     06DC  0AEF               	incf	_cont0+1,f
  4597     06DD  3000               	movlw	0
  4598     06DE  07EF               	addwf	_cont0+1,f
  4599                           
  4600                           ;prelablab7.c: 52:         TMR0 = 225;
  4601     06DF  30E1               	movlw	225
  4602     06E0  0081               	movwf	1	;volatile
  4603     06E1                     i1l3330:
  4604                           
  4605                           ;prelablab7.c: 53:         T0IF = 0;
  4606     06E1  110B               	bcf	11,2	;volatile
  4607     06E2                     i1l3332:
  4608                           
  4609                           ;prelablab7.c: 55:     if(PIR1bits.ADIF){
  4610     06E2  1283               	bcf	3,5	;RP0=0, select bank0
  4611     06E3  1F0C               	btfss	12,6	;volatile
  4612     06E4  2EE6               	goto	u582_21
  4613     06E5  2EE7               	goto	u582_20
  4614     06E6                     u582_21:
  4615     06E6  2F94               	goto	i1l69
  4616     06E7                     u582_20:
  4617     06E7                     i1l3334:
  4618                           
  4619                           ;prelablab7.c: 56:         if(ADCON0bits.CHS == 0b0000){
  4620     06E7  0C1F               	rrf	31,w	;volatile
  4621     06E8  1683               	bsf	3,5	;RP0=1, select bank1
  4622     06E9  1303               	bcf	3,6	;RP1=0, select bank1
  4623     06EA  00A7               	movwf	??_isr^(0+128)
  4624     06EB  0C27               	rrf	??_isr^(0+128),w
  4625     06EC  390F               	andlw	15
  4626     06ED  3A00               	xorlw	0
  4627     06EE  1D03               	skipz
  4628     06EF  2EF1               	goto	u583_21
  4629     06F0  2EF2               	goto	u583_20
  4630     06F1                     u583_21:
  4631     06F1  2F1A               	goto	i1l3338
  4632     06F2                     u583_20:
  4633     06F2                     i1l3336:
  4634                           
  4635                           ;prelablab7.c: 57:             PWM_DUTY(1, ADRESH);
  4636     06F2  1283               	bcf	3,5	;RP0=0, select bank0
  4637     06F3  1303               	bcf	3,6	;RP1=0, select bank0
  4638     06F4  081E               	movf	30,w	;volatile
  4639     06F5  1683               	bsf	3,5	;RP0=1, select bank1
  4640     06F6  1303               	bcf	3,6	;RP1=0, select bank1
  4641     06F7  00A7               	movwf	??_isr^(0+128)
  4642     06F8  01A8               	clrf	(??_isr^(0+128)+1)
  4643     06F9  01A9               	clrf	(??_isr^(0+128)+2)
  4644     06FA  01AA               	clrf	(??_isr^(0+128)+3)
  4645     06FB  082A               	movf	(??_isr+3)^(0+128),w
  4646     06FC  00F3               	movwf	___xxtofl@val+3
  4647     06FD  0829               	movf	(??_isr+2)^(0+128),w
  4648     06FE  00F2               	movwf	___xxtofl@val+2
  4649     06FF  0828               	movf	(??_isr+1)^(0+128),w
  4650     0700  00F1               	movwf	___xxtofl@val+1
  4651     0701  0827               	movf	??_isr^(0+128),w
  4652     0702  00F0               	movwf	___xxtofl@val
  4653     0703  3000               	movlw	0
  4654     0704  120A  158A  2006  120A  118A  	fcall	___xxtofl
  4655     0709  0873               	movf	?___xxtofl+3,w
  4656     070A  1683               	bsf	3,5	;RP0=1, select bank1
  4657     070B  1303               	bcf	3,6	;RP1=0, select bank1
  4658     070C  00A3               	movwf	(PWM_DUTY@duty+3)^(0+128)
  4659     070D  0872               	movf	?___xxtofl+2,w
  4660     070E  00A2               	movwf	(PWM_DUTY@duty+2)^(0+128)
  4661     070F  0871               	movf	?___xxtofl+1,w
  4662     0710  00A1               	movwf	(PWM_DUTY@duty+1)^(0+128)
  4663     0711  0870               	movf	?___xxtofl,w
  4664     0712  00A0               	movwf	PWM_DUTY@duty^(0+128)
  4665     0713  3001               	movlw	1
  4666     0714  160A  118A  24D0  120A  118A  	fcall	_PWM_DUTY
  4667                           
  4668                           ;prelablab7.c: 62:         }else if(ADCON0bits.CHS == 0b0001){
  4669     0719  2F91               	goto	i1l3348
  4670     071A                     i1l3338:
  4671     071A  1283               	bcf	3,5	;RP0=0, select bank0
  4672     071B  1303               	bcf	3,6	;RP1=0, select bank0
  4673     071C  0C1F               	rrf	31,w	;volatile
  4674     071D  1683               	bsf	3,5	;RP0=1, select bank1
  4675     071E  1303               	bcf	3,6	;RP1=0, select bank1
  4676     071F  00A7               	movwf	??_isr^(0+128)
  4677     0720  0C27               	rrf	??_isr^(0+128),w
  4678     0721  390F               	andlw	15
  4679     0722  3A01               	xorlw	1
  4680     0723  1D03               	skipz
  4681     0724  2F26               	goto	u584_21
  4682     0725  2F27               	goto	u584_20
  4683     0726                     u584_21:
  4684     0726  2F4F               	goto	i1l3342
  4685     0727                     u584_20:
  4686     0727                     i1l3340:
  4687                           
  4688                           ;prelablab7.c: 63:             PWM_DUTY(2, ADRESH);
  4689     0727  1283               	bcf	3,5	;RP0=0, select bank0
  4690     0728  1303               	bcf	3,6	;RP1=0, select bank0
  4691     0729  081E               	movf	30,w	;volatile
  4692     072A  1683               	bsf	3,5	;RP0=1, select bank1
  4693     072B  1303               	bcf	3,6	;RP1=0, select bank1
  4694     072C  00A7               	movwf	??_isr^(0+128)
  4695     072D  01A8               	clrf	(??_isr^(0+128)+1)
  4696     072E  01A9               	clrf	(??_isr^(0+128)+2)
  4697     072F  01AA               	clrf	(??_isr^(0+128)+3)
  4698     0730  082A               	movf	(??_isr+3)^(0+128),w
  4699     0731  00F3               	movwf	___xxtofl@val+3
  4700     0732  0829               	movf	(??_isr+2)^(0+128),w
  4701     0733  00F2               	movwf	___xxtofl@val+2
  4702     0734  0828               	movf	(??_isr+1)^(0+128),w
  4703     0735  00F1               	movwf	___xxtofl@val+1
  4704     0736  0827               	movf	??_isr^(0+128),w
  4705     0737  00F0               	movwf	___xxtofl@val
  4706     0738  3000               	movlw	0
  4707     0739  120A  158A  2006  120A  118A  	fcall	___xxtofl
  4708     073E  0873               	movf	?___xxtofl+3,w
  4709     073F  1683               	bsf	3,5	;RP0=1, select bank1
  4710     0740  1303               	bcf	3,6	;RP1=0, select bank1
  4711     0741  00A3               	movwf	(PWM_DUTY@duty+3)^(0+128)
  4712     0742  0872               	movf	?___xxtofl+2,w
  4713     0743  00A2               	movwf	(PWM_DUTY@duty+2)^(0+128)
  4714     0744  0871               	movf	?___xxtofl+1,w
  4715     0745  00A1               	movwf	(PWM_DUTY@duty+1)^(0+128)
  4716     0746  0870               	movf	?___xxtofl,w
  4717     0747  00A0               	movwf	PWM_DUTY@duty^(0+128)
  4718     0748  3002               	movlw	2
  4719     0749  160A  118A  24D0  120A  118A  	fcall	_PWM_DUTY
  4720                           
  4721                           ;prelablab7.c: 68:         }else if(ADCON0bits.CHS == 0b0010){
  4722     074E  2F91               	goto	i1l3348
  4723     074F                     i1l3342:
  4724     074F  1283               	bcf	3,5	;RP0=0, select bank0
  4725     0750  1303               	bcf	3,6	;RP1=0, select bank0
  4726     0751  0C1F               	rrf	31,w	;volatile
  4727     0752  1683               	bsf	3,5	;RP0=1, select bank1
  4728     0753  1303               	bcf	3,6	;RP1=0, select bank1
  4729     0754  00A7               	movwf	??_isr^(0+128)
  4730     0755  0C27               	rrf	??_isr^(0+128),w
  4731     0756  390F               	andlw	15
  4732     0757  3A02               	xorlw	2
  4733     0758  1D03               	skipz
  4734     0759  2F5B               	goto	u585_21
  4735     075A  2F5C               	goto	u585_20
  4736     075B                     u585_21:
  4737     075B  2F91               	goto	i1l3348
  4738     075C                     u585_20:
  4739     075C                     i1l3344:
  4740                           
  4741                           ;prelablab7.c: 69:             y = mapear(ADRESH, 0, 500, 1 ,20);
  4742     075C  1283               	bcf	3,5	;RP0=0, select bank0
  4743     075D  1303               	bcf	3,6	;RP1=0, select bank0
  4744     075E  081E               	movf	30,w	;volatile
  4745     075F  1683               	bsf	3,5	;RP0=1, select bank1
  4746     0760  1303               	bcf	3,6	;RP1=0, select bank1
  4747     0761  00A7               	movwf	??_isr^(0+128)
  4748     0762  01A8               	clrf	(??_isr^(0+128)+1)
  4749     0763  0827               	movf	??_isr^(0+128),w
  4750     0764  1283               	bcf	3,5	;RP0=0, select bank0
  4751     0765  1303               	bcf	3,6	;RP1=0, select bank0
  4752     0766  00A4               	movwf	mapear@valor
  4753     0767  1683               	bsf	3,5	;RP0=1, select bank1
  4754     0768  1303               	bcf	3,6	;RP1=0, select bank1
  4755     0769  0828               	movf	(??_isr+1)^(0+128),w
  4756     076A  1283               	bcf	3,5	;RP0=0, select bank0
  4757     076B  1303               	bcf	3,6	;RP1=0, select bank0
  4758     076C  00A5               	movwf	mapear@valor+1
  4759     076D  3000               	movlw	0
  4760     076E  00A6               	movwf	mapear@rango_min
  4761     076F  00A7               	movwf	mapear@rango_min+1
  4762     0770  30F4               	movlw	244
  4763     0771  00A8               	movwf	mapear@rango_max
  4764     0772  3001               	movlw	1
  4765     0773  00A9               	movwf	mapear@rango_max+1
  4766     0774  3001               	movlw	1
  4767     0775  00AA               	movwf	mapear@nuevo_min
  4768     0776  3000               	movlw	0
  4769     0777  00AB               	movwf	mapear@nuevo_min+1
  4770     0778  3014               	movlw	20
  4771     0779  00AC               	movwf	mapear@nuevo_max
  4772     077A  3000               	movlw	0
  4773     077B  00AD               	movwf	mapear@nuevo_max+1
  4774     077C  160A  118A  22D5  120A  118A  	fcall	_mapear
  4775     0781  1283               	bcf	3,5	;RP0=0, select bank0
  4776     0782  1303               	bcf	3,6	;RP1=0, select bank0
  4777     0783  0825               	movf	?_mapear+1,w
  4778     0784  1683               	bsf	3,5	;RP0=1, select bank1
  4779     0785  1303               	bcf	3,6	;RP1=0, select bank1
  4780     0786  00E1               	movwf	(_y+1)^(0+128)
  4781     0787  1283               	bcf	3,5	;RP0=0, select bank0
  4782     0788  1303               	bcf	3,6	;RP1=0, select bank0
  4783     0789  0824               	movf	?_mapear,w
  4784     078A  1683               	bsf	3,5	;RP0=1, select bank1
  4785     078B  1303               	bcf	3,6	;RP1=0, select bank1
  4786     078C  00E0               	movwf	_y^(0+128)
  4787     078D                     i1l3346:
  4788                           
  4789                           ;prelablab7.c: 70:             manualPWM = y;
  4790     078D  0861               	movf	(_y+1)^(0+128),w
  4791     078E  00DF               	movwf	(_manualPWM+1)^(0+128)
  4792     078F  0860               	movf	_y^(0+128),w
  4793     0790  00DE               	movwf	_manualPWM^(0+128)
  4794     0791                     i1l3348:
  4795                           
  4796                           ;prelablab7.c: 72:         PIR1bits.ADIF = 0;
  4797     0791  1283               	bcf	3,5	;RP0=0, select bank0
  4798     0792  1303               	bcf	3,6	;RP1=0, select bank0
  4799     0793  130C               	bcf	12,6	;volatile
  4800     0794                     i1l69:
  4801     0794  1683               	bsf	3,5	;RP0=1, select bank1
  4802     0795  1303               	bcf	3,6	;RP1=0, select bank1
  4803     0796  082D               	movf	(??_isr+6)^(0+128),w
  4804     0797  00FF               	movwf	btemp+1
  4805     0798  082C               	movf	(??_isr+5)^(0+128),w
  4806     0799  008A               	movwf	10
  4807     079A  0E2B               	swapf	(??_isr+4)^(0+128),w
  4808     079B  0083               	movwf	3
  4809     079C  0EFE               	swapf	btemp,f
  4810     079D  0E7E               	swapf	btemp,w
  4811     079E  0009               	retfie
  4812     079F                     __end_of_isr:
  4813                           
  4814                           	psect	intentry
  4815     0004                     __pintentry:	
  4816                           ;incstack = 0
  4817                           ; Regs used in _isr: [wreg+status,2+status,0+btemp+1+pclath+cstack]
  4818                           
  4819     0004                     interrupt_function:
  4820     007E                     saved_w	set	btemp
  4821     0004  00FE               	movwf	btemp
  4822     0005  0E03               	swapf	3,w
  4823     0006  1683               	bsf	3,5	;RP0=1, select bank1
  4824     0007  1303               	bcf	3,6	;RP1=0, select bank1
  4825     0008  00AB               	movwf	(??_isr+4)^(0+128)
  4826     0009  080A               	movf	10,w
  4827     000A  00AC               	movwf	(??_isr+5)^(0+128)
  4828     000B  087F               	movf	btemp+1,w
  4829     000C  00AD               	movwf	(??_isr+6)^(0+128)
  4830     000D  120A  118A  2EAB   	ljmp	_isr
  4831                           
  4832                           	psect	text9
  4833     12D5                     __ptext9:	
  4834 ;; *************** function _mapear *****************
  4835 ;; Defined at:
  4836 ;;		line 99 in file "prelablab7.c"
  4837 ;; Parameters:    Size  Location     Type
  4838 ;;  valor           2    4[BANK0 ] int 
  4839 ;;  rango_min       2    6[BANK0 ] int 
  4840 ;;  rango_max       2    8[BANK0 ] int 
  4841 ;;  nuevo_min       2   10[BANK0 ] int 
  4842 ;;  nuevo_max       2   12[BANK0 ] int 
  4843 ;; Auto vars:     Size  Location     Type
  4844 ;;  nuevo_valor     2   11[COMMON] int 
  4845 ;; Return value:  Size  Location     Type
  4846 ;;                  2    4[BANK0 ] int 
  4847 ;; Registers used:
  4848 ;;		wreg, status,2, status,0, pclath, cstack
  4849 ;; Tracked objects:
  4850 ;;		On entry : 0/0
  4851 ;;		On exit  : 0/0
  4852 ;;		Unchanged: 0/0
  4853 ;; Data sizes:     COMMON   BANK0   BANK1   BANK3   BANK2
  4854 ;;      Params:         0      10       0       0       0
  4855 ;;      Locals:         2       0       0       0       0
  4856 ;;      Temps:          0       0       0       0       0
  4857 ;;      Totals:         2      10       0       0       0
  4858 ;;Total ram usage:       12 bytes
  4859 ;; Hardware stack levels used: 1
  4860 ;; Hardware stack levels required when called: 1
  4861 ;; This function calls:
  4862 ;;		___awdiv
  4863 ;;		___wmul
  4864 ;; This function is called by:
  4865 ;;		_isr
  4866 ;; This function uses a non-reentrant model
  4867 ;;
  4868                           
  4869     12D5                     _mapear:	
  4870                           ;psect for function _mapear
  4871                           
  4872     12D5                     i1l3214:	
  4873                           ;incstack = 0
  4874                           ; Regs used in _mapear: [wreg+status,2+status,0+pclath+cstack]
  4875                           
  4876                           
  4877                           ;prelablab7.c: 100:     int nuevo_valor = nuevo_min + (valor - rango_min)*(nuevo_max - n
      +                          uevo_min)/(rango_max - rango_min);
  4878     12D5  1283               	bcf	3,5	;RP0=0, select bank0
  4879     12D6  1303               	bcf	3,6	;RP1=0, select bank0
  4880     12D7  0826               	movf	mapear@rango_min,w
  4881     12D8  0228               	subwf	mapear@rango_max,w
  4882     12D9  00F6               	movwf	___awdiv@divisor
  4883     12DA  0827               	movf	mapear@rango_min+1,w
  4884     12DB  1C03               	skipc
  4885     12DC  0A27               	incf	mapear@rango_min+1,w
  4886     12DD  0229               	subwf	mapear@rango_max+1,w
  4887     12DE  00F7               	movwf	___awdiv@divisor+1
  4888     12DF  0826               	movf	mapear@rango_min,w
  4889     12E0  0224               	subwf	mapear@valor,w
  4890     12E1  00F0               	movwf	___wmul@multiplier
  4891     12E2  0827               	movf	mapear@rango_min+1,w
  4892     12E3  1C03               	skipc
  4893     12E4  0A27               	incf	mapear@rango_min+1,w
  4894     12E5  0225               	subwf	mapear@valor+1,w
  4895     12E6  00F1               	movwf	___wmul@multiplier+1
  4896     12E7  082A               	movf	mapear@nuevo_min,w
  4897     12E8  022C               	subwf	mapear@nuevo_max,w
  4898     12E9  00F2               	movwf	___wmul@multiplicand
  4899     12EA  082B               	movf	mapear@nuevo_min+1,w
  4900     12EB  1C03               	skipc
  4901     12EC  0A2B               	incf	mapear@nuevo_min+1,w
  4902     12ED  022D               	subwf	mapear@nuevo_max+1,w
  4903     12EE  00F3               	movwf	___wmul@multiplicand+1
  4904     12EF  160A  118A  2260  160A  118A  	fcall	___wmul
  4905     12F4  0871               	movf	?___wmul+1,w
  4906     12F5  00F9               	movwf	___awdiv@dividend+1
  4907     12F6  0870               	movf	?___wmul,w
  4908     12F7  00F8               	movwf	___awdiv@dividend
  4909     12F8  160A  118A  230C  160A  118A  	fcall	___awdiv
  4910     12FD  1283               	bcf	3,5	;RP0=0, select bank0
  4911     12FE  1303               	bcf	3,6	;RP1=0, select bank0
  4912     12FF  082A               	movf	mapear@nuevo_min,w
  4913     1300  0776               	addwf	?___awdiv,w
  4914     1301  00FB               	movwf	mapear@nuevo_valor
  4915     1302  082B               	movf	mapear@nuevo_min+1,w
  4916     1303  1803               	skipnc
  4917     1304  0A2B               	incf	mapear@nuevo_min+1,w
  4918     1305  0777               	addwf	?___awdiv+1,w
  4919     1306  00FC               	movwf	mapear@nuevo_valor+1
  4920     1307                     i1l3216:
  4921                           
  4922                           ;prelablab7.c: 101:     return nuevo_valor;
  4923     1307  087C               	movf	mapear@nuevo_valor+1,w
  4924     1308  00A5               	movwf	?_mapear+1
  4925     1309  087B               	movf	mapear@nuevo_valor,w
  4926     130A  00A4               	movwf	?_mapear
  4927     130B                     i1l86:
  4928     130B  0008               	return
  4929     130C                     __end_of_mapear:
  4930                           
  4931                           	psect	text10
  4932     1260                     __ptext10:	
  4933 ;; *************** function ___wmul *****************
  4934 ;; Defined at:
  4935 ;;		line 15 in file "C:\Program Files\Microchip\xc8\v2.40\pic\sources\c90\common\Umul16.c"
  4936 ;; Parameters:    Size  Location     Type
  4937 ;;  multiplier      2    0[COMMON] unsigned int 
  4938 ;;  multiplicand    2    2[COMMON] unsigned int 
  4939 ;; Auto vars:     Size  Location     Type
  4940 ;;  product         2    4[COMMON] unsigned int 
  4941 ;; Return value:  Size  Location     Type
  4942 ;;                  2    0[COMMON] unsigned int 
  4943 ;; Registers used:
  4944 ;;		wreg, status,2, status,0
  4945 ;; Tracked objects:
  4946 ;;		On entry : 0/0
  4947 ;;		On exit  : 0/0
  4948 ;;		Unchanged: 0/0
  4949 ;; Data sizes:     COMMON   BANK0   BANK1   BANK3   BANK2
  4950 ;;      Params:         4       0       0       0       0
  4951 ;;      Locals:         2       0       0       0       0
  4952 ;;      Temps:          0       0       0       0       0
  4953 ;;      Totals:         6       0       0       0       0
  4954 ;;Total ram usage:        6 bytes
  4955 ;; Hardware stack levels used: 1
  4956 ;; This function calls:
  4957 ;;		Nothing
  4958 ;; This function is called by:
  4959 ;;		_mapear
  4960 ;; This function uses a non-reentrant model
  4961 ;;
  4962                           
  4963     1260                     ___wmul:	
  4964                           ;psect for function ___wmul
  4965                           
  4966     1260                     i1l2626:	
  4967                           ;incstack = 0
  4968                           ; Regs used in ___wmul: [wreg+status,2+status,0]
  4969                           
  4970     1260  01F4               	clrf	___wmul@product
  4971     1261  01F5               	clrf	___wmul@product+1
  4972     1262                     i1l2628:
  4973     1262  1C70               	btfss	___wmul@multiplier,0
  4974     1263  2A65               	goto	u427_21
  4975     1264  2A66               	goto	u427_20
  4976     1265                     u427_21:
  4977     1265  2A6C               	goto	i1l210
  4978     1266                     u427_20:
  4979     1266                     i1l2630:
  4980     1266  0872               	movf	___wmul@multiplicand,w
  4981     1267  07F4               	addwf	___wmul@product,f
  4982     1268  1803               	skipnc
  4983     1269  0AF5               	incf	___wmul@product+1,f
  4984     126A  0873               	movf	___wmul@multiplicand+1,w
  4985     126B  07F5               	addwf	___wmul@product+1,f
  4986     126C                     i1l210:
  4987     126C  3001               	movlw	1
  4988     126D                     u428_25:
  4989     126D  1003               	clrc
  4990     126E  0DF2               	rlf	___wmul@multiplicand,f
  4991     126F  0DF3               	rlf	___wmul@multiplicand+1,f
  4992     1270  3EFF               	addlw	-1
  4993     1271  1D03               	skipz
  4994     1272  2A6D               	goto	u428_25
  4995     1273                     i1l2632:
  4996     1273  3001               	movlw	1
  4997     1274                     u429_25:
  4998     1274  1003               	clrc
  4999     1275  0CF1               	rrf	___wmul@multiplier+1,f
  5000     1276  0CF0               	rrf	___wmul@multiplier,f
  5001     1277  3EFF               	addlw	-1
  5002     1278  1D03               	skipz
  5003     1279  2A74               	goto	u429_25
  5004     127A                     i1l2634:
  5005     127A  0870               	movf	___wmul@multiplier,w
  5006     127B  0471               	iorwf	___wmul@multiplier+1,w
  5007     127C  1D03               	btfss	3,2
  5008     127D  2A7F               	goto	u430_21
  5009     127E  2A80               	goto	u430_20
  5010     127F                     u430_21:
  5011     127F  2A62               	goto	i1l2628
  5012     1280                     u430_20:
  5013     1280                     i1l2636:
  5014     1280  0875               	movf	___wmul@product+1,w
  5015     1281  00F1               	movwf	?___wmul+1
  5016     1282  0874               	movf	___wmul@product,w
  5017     1283  00F0               	movwf	?___wmul
  5018     1284                     i1l212:
  5019     1284  0008               	return
  5020     1285                     __end_of___wmul:
  5021                           
  5022                           	psect	text11
  5023     130C                     __ptext11:	
  5024 ;; *************** function ___awdiv *****************
  5025 ;; Defined at:
  5026 ;;		line 5 in file "C:\Program Files\Microchip\xc8\v2.40\pic\sources\c90\common\awdiv.c"
  5027 ;; Parameters:    Size  Location     Type
  5028 ;;  divisor         2    6[COMMON] int 
  5029 ;;  dividend        2    8[COMMON] int 
  5030 ;; Auto vars:     Size  Location     Type
  5031 ;;  quotient        2    2[BANK0 ] int 
  5032 ;;  sign            1    1[BANK0 ] unsigned char 
  5033 ;;  counter         1    0[BANK0 ] unsigned char 
  5034 ;; Return value:  Size  Location     Type
  5035 ;;                  2    6[COMMON] int 
  5036 ;; Registers used:
  5037 ;;		wreg, status,2, status,0
  5038 ;; Tracked objects:
  5039 ;;		On entry : 0/0
  5040 ;;		On exit  : 0/0
  5041 ;;		Unchanged: 0/0
  5042 ;; Data sizes:     COMMON   BANK0   BANK1   BANK3   BANK2
  5043 ;;      Params:         4       0       0       0       0
  5044 ;;      Locals:         0       4       0       0       0
  5045 ;;      Temps:          1       0       0       0       0
  5046 ;;      Totals:         5       4       0       0       0
  5047 ;;Total ram usage:        9 bytes
  5048 ;; Hardware stack levels used: 1
  5049 ;; This function calls:
  5050 ;;		Nothing
  5051 ;; This function is called by:
  5052 ;;		_mapear
  5053 ;; This function uses a non-reentrant model
  5054 ;;
  5055                           
  5056     130C                     ___awdiv:	
  5057                           ;psect for function ___awdiv
  5058                           
  5059     130C                     i1l2640:	
  5060                           ;incstack = 0
  5061                           ; Regs used in ___awdiv: [wreg+status,2+status,0]
  5062                           
  5063     130C  1283               	bcf	3,5	;RP0=0, select bank0
  5064     130D  1303               	bcf	3,6	;RP1=0, select bank0
  5065     130E  01A1               	clrf	___awdiv@sign
  5066     130F                     i1l2642:
  5067     130F  1FF7               	btfss	___awdiv@divisor+1,7
  5068     1310  2B12               	goto	u431_21
  5069     1311  2B13               	goto	u431_20
  5070     1312                     u431_21:
  5071     1312  2B1A               	goto	i1l2648
  5072     1313                     u431_20:
  5073     1313                     i1l2644:
  5074     1313  09F6               	comf	___awdiv@divisor,f
  5075     1314  09F7               	comf	___awdiv@divisor+1,f
  5076     1315  0AF6               	incf	___awdiv@divisor,f
  5077     1316  1903               	skipnz
  5078     1317  0AF7               	incf	___awdiv@divisor+1,f
  5079     1318                     i1l2646:
  5080     1318  01A1               	clrf	___awdiv@sign
  5081     1319  0AA1               	incf	___awdiv@sign,f
  5082     131A                     i1l2648:
  5083     131A  1FF9               	btfss	___awdiv@dividend+1,7
  5084     131B  2B1D               	goto	u432_21
  5085     131C  2B1E               	goto	u432_20
  5086     131D                     u432_21:
  5087     131D  2B27               	goto	i1l2654
  5088     131E                     u432_20:
  5089     131E                     i1l2650:
  5090     131E  09F8               	comf	___awdiv@dividend,f
  5091     131F  09F9               	comf	___awdiv@dividend+1,f
  5092     1320  0AF8               	incf	___awdiv@dividend,f
  5093     1321  1903               	skipnz
  5094     1322  0AF9               	incf	___awdiv@dividend+1,f
  5095     1323                     i1l2652:
  5096     1323  3001               	movlw	1
  5097     1324  00FA               	movwf	??___awdiv
  5098     1325  087A               	movf	??___awdiv,w
  5099     1326  06A1               	xorwf	___awdiv@sign,f
  5100     1327                     i1l2654:
  5101     1327  01A2               	clrf	___awdiv@quotient
  5102     1328  01A3               	clrf	___awdiv@quotient+1
  5103     1329                     i1l2656:
  5104     1329  0876               	movf	___awdiv@divisor,w
  5105     132A  0477               	iorwf	___awdiv@divisor+1,w
  5106     132B  1903               	btfsc	3,2
  5107     132C  2B2E               	goto	u433_21
  5108     132D  2B2F               	goto	u433_20
  5109     132E                     u433_21:
  5110     132E  2B66               	goto	i1l2676
  5111     132F                     u433_20:
  5112     132F                     i1l2658:
  5113     132F  01A0               	clrf	___awdiv@counter
  5114     1330  0AA0               	incf	___awdiv@counter,f
  5115     1331  2B3D               	goto	i1l2664
  5116     1332                     i1l2660:
  5117     1332  3001               	movlw	1
  5118     1333                     u434_25:
  5119     1333  1003               	clrc
  5120     1334  0DF6               	rlf	___awdiv@divisor,f
  5121     1335  0DF7               	rlf	___awdiv@divisor+1,f
  5122     1336  3EFF               	addlw	-1
  5123     1337  1D03               	skipz
  5124     1338  2B33               	goto	u434_25
  5125     1339                     i1l2662:
  5126     1339  3001               	movlw	1
  5127     133A  00FA               	movwf	??___awdiv
  5128     133B  087A               	movf	??___awdiv,w
  5129     133C  07A0               	addwf	___awdiv@counter,f
  5130     133D                     i1l2664:
  5131     133D  1FF7               	btfss	___awdiv@divisor+1,7
  5132     133E  2B40               	goto	u435_21
  5133     133F  2B41               	goto	u435_20
  5134     1340                     u435_21:
  5135     1340  2B32               	goto	i1l2660
  5136     1341                     u435_20:
  5137     1341                     i1l2666:
  5138     1341  3001               	movlw	1
  5139     1342                     u436_25:
  5140     1342  1003               	clrc
  5141     1343  0DA2               	rlf	___awdiv@quotient,f
  5142     1344  0DA3               	rlf	___awdiv@quotient+1,f
  5143     1345  3EFF               	addlw	-1
  5144     1346  1D03               	skipz
  5145     1347  2B42               	goto	u436_25
  5146     1348  0877               	movf	___awdiv@divisor+1,w
  5147     1349  0279               	subwf	___awdiv@dividend+1,w
  5148     134A  1D03               	skipz
  5149     134B  2B4E               	goto	u437_25
  5150     134C  0876               	movf	___awdiv@divisor,w
  5151     134D  0278               	subwf	___awdiv@dividend,w
  5152     134E                     u437_25:
  5153     134E  1C03               	skipc
  5154     134F  2B51               	goto	u437_21
  5155     1350  2B52               	goto	u437_20
  5156     1351                     u437_21:
  5157     1351  2B59               	goto	i1l2672
  5158     1352                     u437_20:
  5159     1352                     i1l2668:
  5160     1352  0876               	movf	___awdiv@divisor,w
  5161     1353  02F8               	subwf	___awdiv@dividend,f
  5162     1354  0877               	movf	___awdiv@divisor+1,w
  5163     1355  1C03               	skipc
  5164     1356  03F9               	decf	___awdiv@dividend+1,f
  5165     1357  02F9               	subwf	___awdiv@dividend+1,f
  5166     1358                     i1l2670:
  5167     1358  1422               	bsf	___awdiv@quotient,0
  5168     1359                     i1l2672:
  5169     1359  3001               	movlw	1
  5170     135A                     u438_25:
  5171     135A  1003               	clrc
  5172     135B  0CF7               	rrf	___awdiv@divisor+1,f
  5173     135C  0CF6               	rrf	___awdiv@divisor,f
  5174     135D  3EFF               	addlw	-1
  5175     135E  1D03               	skipz
  5176     135F  2B5A               	goto	u438_25
  5177     1360                     i1l2674:
  5178     1360  3001               	movlw	1
  5179     1361  02A0               	subwf	___awdiv@counter,f
  5180     1362  1D03               	btfss	3,2
  5181     1363  2B65               	goto	u439_21
  5182     1364  2B66               	goto	u439_20
  5183     1365                     u439_21:
  5184     1365  2B41               	goto	i1l2666
  5185     1366                     u439_20:
  5186     1366                     i1l2676:
  5187     1366  0821               	movf	___awdiv@sign,w
  5188     1367  1903               	btfsc	3,2
  5189     1368  2B6A               	goto	u440_21
  5190     1369  2B6B               	goto	u440_20
  5191     136A                     u440_21:
  5192     136A  2B70               	goto	i1l2680
  5193     136B                     u440_20:
  5194     136B                     i1l2678:
  5195     136B  09A2               	comf	___awdiv@quotient,f
  5196     136C  09A3               	comf	___awdiv@quotient+1,f
  5197     136D  0AA2               	incf	___awdiv@quotient,f
  5198     136E  1903               	skipnz
  5199     136F  0AA3               	incf	___awdiv@quotient+1,f
  5200     1370                     i1l2680:
  5201     1370  0823               	movf	___awdiv@quotient+1,w
  5202     1371  00F7               	movwf	?___awdiv+1
  5203     1372  0822               	movf	___awdiv@quotient,w
  5204     1373  00F6               	movwf	?___awdiv
  5205     1374                     i1l363:
  5206     1374  0008               	return
  5207     1375                     __end_of___awdiv:
  5208                           
  5209                           	psect	text12
  5210     0806                     __ptext12:	
  5211 ;; *************** function ___xxtofl *****************
  5212 ;; Defined at:
  5213 ;;		line 10 in file "C:\Program Files\Microchip\xc8\v2.40\pic\sources\c90\common\xxtofl.c"
  5214 ;; Parameters:    Size  Location     Type
  5215 ;;  sign            1    wreg     unsigned char 
  5216 ;;  val             4    0[COMMON] long 
  5217 ;; Auto vars:     Size  Location     Type
  5218 ;;  sign            1    8[COMMON] unsigned char 
  5219 ;;  arg             4   10[COMMON] unsigned long 
  5220 ;;  exp             1    9[COMMON] unsigned char 
  5221 ;; Return value:  Size  Location     Type
  5222 ;;                  4    0[COMMON] unsigned char 
  5223 ;; Registers used:
  5224 ;;		wreg, status,2, status,0
  5225 ;; Tracked objects:
  5226 ;;		On entry : 0/0
  5227 ;;		On exit  : 0/0
  5228 ;;		Unchanged: 0/0
  5229 ;; Data sizes:     COMMON   BANK0   BANK1   BANK3   BANK2
  5230 ;;      Params:         4       0       0       0       0
  5231 ;;      Locals:         6       0       0       0       0
  5232 ;;      Temps:          4       0       0       0       0
  5233 ;;      Totals:        14       0       0       0       0
  5234 ;;Total ram usage:       14 bytes
  5235 ;; Hardware stack levels used: 1
  5236 ;; This function calls:
  5237 ;;		Nothing
  5238 ;; This function is called by:
  5239 ;;		_isr
  5240 ;; This function uses a non-reentrant model
  5241 ;;
  5242                           
  5243     0806                     ___xxtofl:	
  5244                           ;psect for function ___xxtofl
  5245                           
  5246                           
  5247                           ;incstack = 0
  5248                           ; Regs used in ___xxtofl: [wreg+status,2+status,0]
  5249                           ;___xxtofl@sign stored from wreg
  5250     0806  00F8               	movwf	___xxtofl@sign
  5251     0807                     i1l3274:
  5252     0807  0878               	movf	___xxtofl@sign,w
  5253     0808  1903               	btfsc	3,2
  5254     0809  280B               	goto	u565_21
  5255     080A  280C               	goto	u565_20
  5256     080B                     u565_21:
  5257     080B  2820               	goto	i1l3280
  5258     080C                     u565_20:
  5259     080C                     i1l3276:
  5260     080C  1FF3               	btfss	___xxtofl@val+3,7
  5261     080D  280F               	goto	u566_21
  5262     080E  2810               	goto	u566_20
  5263     080F                     u566_21:
  5264     080F  2820               	goto	i1l3280
  5265     0810                     u566_20:
  5266     0810                     i1l3278:
  5267     0810  0970               	comf	___xxtofl@val,w
  5268     0811  00FA               	movwf	___xxtofl@arg
  5269     0812  0971               	comf	___xxtofl@val+1,w
  5270     0813  00FB               	movwf	___xxtofl@arg+1
  5271     0814  0972               	comf	___xxtofl@val+2,w
  5272     0815  00FC               	movwf	___xxtofl@arg+2
  5273     0816  0973               	comf	___xxtofl@val+3,w
  5274     0817  00FD               	movwf	___xxtofl@arg+3
  5275     0818  0AFA               	incf	___xxtofl@arg,f
  5276     0819  1903               	skipnz
  5277     081A  0AFB               	incf	___xxtofl@arg+1,f
  5278     081B  1903               	skipnz
  5279     081C  0AFC               	incf	___xxtofl@arg+2,f
  5280     081D  1903               	skipnz
  5281     081E  0AFD               	incf	___xxtofl@arg+3,f
  5282     081F  2828               	goto	i1l643
  5283     0820                     i1l3280:
  5284     0820  0873               	movf	___xxtofl@val+3,w
  5285     0821  00FD               	movwf	___xxtofl@arg+3
  5286     0822  0872               	movf	___xxtofl@val+2,w
  5287     0823  00FC               	movwf	___xxtofl@arg+2
  5288     0824  0871               	movf	___xxtofl@val+1,w
  5289     0825  00FB               	movwf	___xxtofl@arg+1
  5290     0826  0870               	movf	___xxtofl@val,w
  5291     0827  00FA               	movwf	___xxtofl@arg
  5292     0828                     i1l643:
  5293     0828  0873               	movf	___xxtofl@val+3,w
  5294     0829  0472               	iorwf	___xxtofl@val+2,w
  5295     082A  0471               	iorwf	___xxtofl@val+1,w
  5296     082B  0470               	iorwf	___xxtofl@val,w
  5297     082C  1D03               	skipz
  5298     082D  282F               	goto	u567_21
  5299     082E  2830               	goto	u567_20
  5300     082F                     u567_21:
  5301     082F  2839               	goto	i1l3286
  5302     0830                     u567_20:
  5303     0830                     i1l3282:
  5304     0830  3000               	movlw	0
  5305     0831  00F3               	movwf	?___xxtofl+3
  5306     0832  3000               	movlw	0
  5307     0833  00F2               	movwf	?___xxtofl+2
  5308     0834  3000               	movlw	0
  5309     0835  00F1               	movwf	?___xxtofl+1
  5310     0836  3000               	movlw	0
  5311     0837  00F0               	movwf	?___xxtofl
  5312     0838  28BD               	goto	i1l645
  5313     0839                     i1l3286:
  5314     0839  3096               	movlw	150
  5315     083A  00F9               	movwf	___xxtofl@exp
  5316     083B  2849               	goto	i1l3290
  5317     083C                     i1l3288:
  5318     083C  3001               	movlw	1
  5319     083D  00F4               	movwf	??___xxtofl
  5320     083E  0874               	movf	??___xxtofl,w
  5321     083F  07F9               	addwf	___xxtofl@exp,f
  5322     0840  3001               	movlw	1
  5323     0841                     u568_25:
  5324     0841  1003               	clrc
  5325     0842  0CFD               	rrf	___xxtofl@arg+3,f
  5326     0843  0CFC               	rrf	___xxtofl@arg+2,f
  5327     0844  0CFB               	rrf	___xxtofl@arg+1,f
  5328     0845  0CFA               	rrf	___xxtofl@arg,f
  5329     0846  3EFF               	addlw	-1
  5330     0847  1D03               	skipz
  5331     0848  2841               	goto	u568_25
  5332     0849                     i1l3290:
  5333     0849  30FE               	movlw	254
  5334     084A  057D               	andwf	___xxtofl@arg+3,w
  5335     084B  1D03               	btfss	3,2
  5336     084C  284E               	goto	u569_21
  5337     084D  284F               	goto	u569_20
  5338     084E                     u569_21:
  5339     084E  283C               	goto	i1l3288
  5340     084F                     u569_20:
  5341     084F  286B               	goto	i1l649
  5342     0850                     i1l3292:
  5343     0850  3001               	movlw	1
  5344     0851  00F4               	movwf	??___xxtofl
  5345     0852  0874               	movf	??___xxtofl,w
  5346     0853  07F9               	addwf	___xxtofl@exp,f
  5347     0854                     i1l3294:
  5348     0854  3001               	movlw	1
  5349     0855  07FA               	addwf	___xxtofl@arg,f
  5350     0856  3000               	movlw	0
  5351     0857  1803               	skipnc
  5352     0858  3001               	movlw	1
  5353     0859  07FB               	addwf	___xxtofl@arg+1,f
  5354     085A  3000               	movlw	0
  5355     085B  1803               	skipnc
  5356     085C  3001               	movlw	1
  5357     085D  07FC               	addwf	___xxtofl@arg+2,f
  5358     085E  3000               	movlw	0
  5359     085F  1803               	skipnc
  5360     0860  3001               	movlw	1
  5361     0861  07FD               	addwf	___xxtofl@arg+3,f
  5362     0862                     i1l3296:
  5363     0862  3001               	movlw	1
  5364     0863                     u570_25:
  5365     0863  1003               	clrc
  5366     0864  0CFD               	rrf	___xxtofl@arg+3,f
  5367     0865  0CFC               	rrf	___xxtofl@arg+2,f
  5368     0866  0CFB               	rrf	___xxtofl@arg+1,f
  5369     0867  0CFA               	rrf	___xxtofl@arg,f
  5370     0868  3EFF               	addlw	-1
  5371     0869  1D03               	skipz
  5372     086A  2863               	goto	u570_25
  5373     086B                     i1l649:
  5374     086B  30FF               	movlw	255
  5375     086C  057D               	andwf	___xxtofl@arg+3,w
  5376     086D  1D03               	btfss	3,2
  5377     086E  2870               	goto	u571_21
  5378     086F  2871               	goto	u571_20
  5379     0870                     u571_21:
  5380     0870  2850               	goto	i1l3292
  5381     0871                     u571_20:
  5382     0871  287D               	goto	i1l3300
  5383     0872                     i1l3298:
  5384     0872  3001               	movlw	1
  5385     0873  02F9               	subwf	___xxtofl@exp,f
  5386     0874  3001               	movlw	1
  5387     0875  00F4               	movwf	??___xxtofl
  5388     0876                     u572_25:
  5389     0876  1003               	clrc
  5390     0877  0DFA               	rlf	___xxtofl@arg,f
  5391     0878  0DFB               	rlf	___xxtofl@arg+1,f
  5392     0879  0DFC               	rlf	___xxtofl@arg+2,f
  5393     087A  0DFD               	rlf	___xxtofl@arg+3,f
  5394     087B  0BF4               	decfsz	??___xxtofl,f
  5395     087C  2876               	goto	u572_25
  5396     087D                     i1l3300:
  5397     087D  1BFC               	btfsc	___xxtofl@arg+2,7
  5398     087E  2880               	goto	u573_21
  5399     087F  2881               	goto	u573_20
  5400     0880                     u573_21:
  5401     0880  2887               	goto	i1l656
  5402     0881                     u573_20:
  5403     0881                     i1l3302:
  5404     0881  3002               	movlw	2
  5405     0882  0279               	subwf	___xxtofl@exp,w
  5406     0883  1803               	skipnc
  5407     0884  2886               	goto	u574_21
  5408     0885  2887               	goto	u574_20
  5409     0886                     u574_21:
  5410     0886  2872               	goto	i1l3298
  5411     0887                     u574_20:
  5412     0887                     i1l656:
  5413     0887  1879               	btfsc	___xxtofl@exp,0
  5414     0888  288A               	goto	u575_21
  5415     0889  288B               	goto	u575_20
  5416     088A                     u575_21:
  5417     088A  2893               	goto	i1l657
  5418     088B                     u575_20:
  5419     088B                     i1l3304:
  5420     088B  30FF               	movlw	255
  5421     088C  05FA               	andwf	___xxtofl@arg,f
  5422     088D  30FF               	movlw	255
  5423     088E  05FB               	andwf	___xxtofl@arg+1,f
  5424     088F  307F               	movlw	127
  5425     0890  05FC               	andwf	___xxtofl@arg+2,f
  5426     0891  30FF               	movlw	255
  5427     0892  05FD               	andwf	___xxtofl@arg+3,f
  5428     0893                     i1l657:
  5429     0893  1003               	clrc
  5430     0894  0CF9               	rrf	___xxtofl@exp,f
  5431     0895                     i1l3306:
  5432     0895  0879               	movf	___xxtofl@exp,w
  5433     0896  00F4               	movwf	??___xxtofl
  5434     0897  01F5               	clrf	??___xxtofl+1
  5435     0898  01F6               	clrf	??___xxtofl+2
  5436     0899  01F7               	clrf	??___xxtofl+3
  5437     089A  3018               	movlw	24
  5438     089B                     u576_25:
  5439     089B  1003               	clrc
  5440     089C  0DF4               	rlf	??___xxtofl,f
  5441     089D  0DF5               	rlf	??___xxtofl+1,f
  5442     089E  0DF6               	rlf	??___xxtofl+2,f
  5443     089F  0DF7               	rlf	??___xxtofl+3,f
  5444     08A0                     u576_20:
  5445     08A0  3EFF               	addlw	-1
  5446     08A1  1D03               	skipz
  5447     08A2  289B               	goto	u576_25
  5448     08A3  0874               	movf	??___xxtofl,w
  5449     08A4  04FA               	iorwf	___xxtofl@arg,f
  5450     08A5  0875               	movf	??___xxtofl+1,w
  5451     08A6  04FB               	iorwf	___xxtofl@arg+1,f
  5452     08A7  0876               	movf	??___xxtofl+2,w
  5453     08A8  04FC               	iorwf	___xxtofl@arg+2,f
  5454     08A9  0877               	movf	??___xxtofl+3,w
  5455     08AA  04FD               	iorwf	___xxtofl@arg+3,f
  5456     08AB                     i1l3308:
  5457     08AB  0878               	movf	___xxtofl@sign,w
  5458     08AC  1903               	btfsc	3,2
  5459     08AD  28AF               	goto	u577_21
  5460     08AE  28B0               	goto	u577_20
  5461     08AF                     u577_21:
  5462     08AF  28B5               	goto	i1l3314
  5463     08B0                     u577_20:
  5464     08B0                     i1l3310:
  5465     08B0  1FF3               	btfss	___xxtofl@val+3,7
  5466     08B1  28B3               	goto	u578_21
  5467     08B2  28B4               	goto	u578_20
  5468     08B3                     u578_21:
  5469     08B3  28B5               	goto	i1l3314
  5470     08B4                     u578_20:
  5471     08B4                     i1l3312:
  5472     08B4  17FD               	bsf	___xxtofl@arg+3,7
  5473     08B5                     i1l3314:
  5474     08B5  087D               	movf	___xxtofl@arg+3,w
  5475     08B6  00F3               	movwf	?___xxtofl+3
  5476     08B7  087C               	movf	___xxtofl@arg+2,w
  5477     08B8  00F2               	movwf	?___xxtofl+2
  5478     08B9  087B               	movf	___xxtofl@arg+1,w
  5479     08BA  00F1               	movwf	?___xxtofl+1
  5480     08BB  087A               	movf	___xxtofl@arg,w
  5481     08BC  00F0               	movwf	?___xxtofl
  5482     08BD                     i1l645:
  5483     08BD  0008               	return
  5484     08BE                     __end_of___xxtofl:
  5485                           
  5486                           	psect	text13
  5487     14D0                     __ptext13:	
  5488 ;; *************** function _PWM_DUTY *****************
  5489 ;; Defined at:
  5490 ;;		line 41 in file "configPWM.c"
  5491 ;; Parameters:    Size  Location     Type
  5492 ;;  channel         1    wreg     unsigned char 
  5493 ;;  duty            4    0[BANK1 ] float 
  5494 ;; Auto vars:     Size  Location     Type
  5495 ;;  channel         1    4[BANK1 ] unsigned char 
  5496 ;;  duty_var        2    5[BANK1 ] unsigned int 
  5497 ;; Return value:  Size  Location     Type
  5498 ;;                  1    wreg      void 
  5499 ;; Registers used:
  5500 ;;		wreg, status,2, status,0, btemp+1, pclath, cstack
  5501 ;; Tracked objects:
  5502 ;;		On entry : 0/0
  5503 ;;		On exit  : 0/0
  5504 ;;		Unchanged: 0/0
  5505 ;; Data sizes:     COMMON   BANK0   BANK1   BANK3   BANK2
  5506 ;;      Params:         0       0       4       0       0
  5507 ;;      Locals:         0       0       3       0       0
  5508 ;;      Temps:          0       1       0       0       0
  5509 ;;      Totals:         0       1       7       0       0
  5510 ;;Total ram usage:        8 bytes
  5511 ;; Hardware stack levels used: 1
  5512 ;; Hardware stack levels required when called: 2
  5513 ;; This function calls:
  5514 ;;		i1___fladd
  5515 ;;		i1___fldiv
  5516 ;;		i1___flmul
  5517 ;;		i1___fltol
  5518 ;; This function is called by:
  5519 ;;		_isr
  5520 ;; This function uses a non-reentrant model
  5521 ;;
  5522                           
  5523     14D0                     _PWM_DUTY:	
  5524                           ;psect for function _PWM_DUTY
  5525                           
  5526                           
  5527                           ;incstack = 0
  5528                           ; Regs used in _PWM_DUTY: [wreg+status,2+status,0+btemp+1+pclath+cstack]
  5529                           ;PWM_DUTY@channel stored from wreg
  5530     14D0  1683               	bsf	3,5	;RP0=1, select bank1
  5531     14D1  1303               	bcf	3,6	;RP1=0, select bank1
  5532     14D2  00A4               	movwf	PWM_DUTY@channel^(0+128)
  5533     14D3                     i1l3196:
  5534                           
  5535                           ;configPWM.c: 42:     unsigned int duty_var = (unsigned int)7 + (duty - 0)*(25 - 7)/(500
      +                           - 0);
  5536     14D3  0823               	movf	(PWM_DUTY@duty+3)^(0+128),w
  5537     14D4  1283               	bcf	3,5	;RP0=0, select bank0
  5538     14D5  1303               	bcf	3,6	;RP1=0, select bank0
  5539     14D6  00A7               	movwf	i1___flmul@a+3
  5540     14D7  1683               	bsf	3,5	;RP0=1, select bank1
  5541     14D8  1303               	bcf	3,6	;RP1=0, select bank1
  5542     14D9  0822               	movf	(PWM_DUTY@duty+2)^(0+128),w
  5543     14DA  1283               	bcf	3,5	;RP0=0, select bank0
  5544     14DB  1303               	bcf	3,6	;RP1=0, select bank0
  5545     14DC  00A6               	movwf	i1___flmul@a+2
  5546     14DD  1683               	bsf	3,5	;RP0=1, select bank1
  5547     14DE  1303               	bcf	3,6	;RP1=0, select bank1
  5548     14DF  0821               	movf	(PWM_DUTY@duty+1)^(0+128),w
  5549     14E0  1283               	bcf	3,5	;RP0=0, select bank0
  5550     14E1  1303               	bcf	3,6	;RP1=0, select bank0
  5551     14E2  00A5               	movwf	i1___flmul@a+1
  5552     14E3  1683               	bsf	3,5	;RP0=1, select bank1
  5553     14E4  1303               	bcf	3,6	;RP1=0, select bank1
  5554     14E5  0820               	movf	PWM_DUTY@duty^(0+128),w
  5555     14E6  1283               	bcf	3,5	;RP0=0, select bank0
  5556     14E7  1303               	bcf	3,6	;RP1=0, select bank0
  5557     14E8  00A4               	movwf	i1___flmul@a
  5558     14E9  3041               	movlw	65
  5559     14EA  00A3               	movwf	i1___flmul@b+3
  5560     14EB  3090               	movlw	144
  5561     14EC  00A2               	movwf	i1___flmul@b+2
  5562     14ED  3000               	movlw	0
  5563     14EE  00A1               	movwf	i1___flmul@b+1
  5564     14EF  3000               	movlw	0
  5565     14F0  00A0               	movwf	i1___flmul@b
  5566     14F1  120A  118A  2366  160A  118A  	fcall	i1___flmul
  5567     14F6  1283               	bcf	3,5	;RP0=0, select bank0
  5568     14F7  1303               	bcf	3,6	;RP1=0, select bank0
  5569     14F8  0823               	movf	?i1___flmul+3,w
  5570     14F9  00BC               	movwf	i1___fldiv@b+3
  5571     14FA  0822               	movf	?i1___flmul+2,w
  5572     14FB  00BB               	movwf	i1___fldiv@b+2
  5573     14FC  0821               	movf	?i1___flmul+1,w
  5574     14FD  00BA               	movwf	i1___fldiv@b+1
  5575     14FE  0820               	movf	?i1___flmul,w
  5576     14FF  00B9               	movwf	i1___fldiv@b
  5577     1500  3043               	movlw	67
  5578     1501  00B8               	movwf	i1___fldiv@a+3
  5579     1502  30FA               	movlw	250
  5580     1503  00B7               	movwf	i1___fldiv@a+2
  5581     1504  3000               	movlw	0
  5582     1505  00B6               	movwf	i1___fldiv@a+1
  5583     1506  3000               	movlw	0
  5584     1507  00B5               	movwf	i1___fldiv@a
  5585     1508  160A  118A  262D  160A  118A  	fcall	i1___fldiv
  5586     150D  1283               	bcf	3,5	;RP0=0, select bank0
  5587     150E  1303               	bcf	3,6	;RP1=0, select bank0
  5588     150F  0838               	movf	?i1___fldiv+3,w
  5589     1510  00D6               	movwf	i1___fladd@a+3
  5590     1511  0837               	movf	?i1___fldiv+2,w
  5591     1512  00D5               	movwf	i1___fladd@a+2
  5592     1513  0836               	movf	?i1___fldiv+1,w
  5593     1514  00D4               	movwf	i1___fladd@a+1
  5594     1515  0835               	movf	?i1___fldiv,w
  5595     1516  00D3               	movwf	i1___fladd@a
  5596     1517  3040               	movlw	64
  5597     1518  00D2               	movwf	i1___fladd@b+3
  5598     1519  30E0               	movlw	224
  5599     151A  00D1               	movwf	i1___fladd@b+2
  5600     151B  3000               	movlw	0
  5601     151C  00D0               	movwf	i1___fladd@b+1
  5602     151D  3000               	movlw	0
  5603     151E  00CF               	movwf	i1___fladd@b
  5604     151F  120A  158A  20BE  160A  118A  	fcall	i1___fladd
  5605     1524  1283               	bcf	3,5	;RP0=0, select bank0
  5606     1525  1303               	bcf	3,6	;RP1=0, select bank0
  5607     1526  0852               	movf	?i1___fladd+3,w
  5608     1527  00E6               	movwf	i1___fltol@f1+3
  5609     1528  0851               	movf	?i1___fladd+2,w
  5610     1529  00E5               	movwf	i1___fltol@f1+2
  5611     152A  0850               	movf	?i1___fladd+1,w
  5612     152B  00E4               	movwf	i1___fltol@f1+1
  5613     152C  084F               	movf	?i1___fladd,w
  5614     152D  00E3               	movwf	i1___fltol@f1
  5615     152E  160A  118A  23E0  160A  118A  	fcall	i1___fltol
  5616     1533  1283               	bcf	3,5	;RP0=0, select bank0
  5617     1534  1303               	bcf	3,6	;RP1=0, select bank0
  5618     1535  0864               	movf	?i1___fltol+1,w
  5619     1536  1683               	bsf	3,5	;RP0=1, select bank1
  5620     1537  1303               	bcf	3,6	;RP1=0, select bank1
  5621     1538  00A6               	movwf	(PWM_DUTY@duty_var+1)^(0+128)
  5622     1539  1283               	bcf	3,5	;RP0=0, select bank0
  5623     153A  1303               	bcf	3,6	;RP1=0, select bank0
  5624     153B  0863               	movf	?i1___fltol,w
  5625     153C  1683               	bsf	3,5	;RP0=1, select bank1
  5626     153D  1303               	bcf	3,6	;RP1=0, select bank1
  5627     153E  00A5               	movwf	PWM_DUTY@duty_var^(0+128)
  5628     153F                     i1l3198:
  5629                           
  5630                           ;configPWM.c: 44:     if(channel == 1){
  5631     153F  0324               	decf	PWM_DUTY@channel^(0+128),w
  5632     1540  1D03               	btfss	3,2
  5633     1541  2D43               	goto	u563_21
  5634     1542  2D44               	goto	u563_20
  5635     1543                     u563_21:
  5636     1543  2D56               	goto	i1l3204
  5637     1544                     u563_20:
  5638     1544                     i1l3200:
  5639                           
  5640                           ;configPWM.c: 45:         CCPR1L = duty_var;
  5641     1544  0825               	movf	PWM_DUTY@duty_var^(0+128),w
  5642     1545  1283               	bcf	3,5	;RP0=0, select bank0
  5643     1546  1303               	bcf	3,6	;RP1=0, select bank0
  5644     1547  0095               	movwf	21	;volatile
  5645     1548                     i1l3202:
  5646                           
  5647                           ;configPWM.c: 46:         CCP1CONbits.DC1B = duty_var & 0b11;
  5648     1548  1683               	bsf	3,5	;RP0=1, select bank1
  5649     1549  1303               	bcf	3,6	;RP1=0, select bank1
  5650     154A  0825               	movf	PWM_DUTY@duty_var^(0+128),w
  5651     154B  3903               	andlw	3
  5652     154C  1283               	bcf	3,5	;RP0=0, select bank0
  5653     154D  1303               	bcf	3,6	;RP1=0, select bank0
  5654     154E  00ED               	movwf	??_PWM_DUTY
  5655     154F  0EED               	swapf	??_PWM_DUTY,f
  5656     1550  0817               	movf	23,w	;volatile
  5657     1551  066D               	xorwf	??_PWM_DUTY,w
  5658     1552  39CF               	andlw	-49
  5659     1553  066D               	xorwf	??_PWM_DUTY,w
  5660     1554  0097               	movwf	23	;volatile
  5661                           
  5662                           ;configPWM.c: 47:     } else if (channel == 2){
  5663     1555  2D7B               	goto	i1l124
  5664     1556                     i1l3204:
  5665     1556  3002               	movlw	2
  5666     1557  0624               	xorwf	PWM_DUTY@channel^(0+128),w
  5667     1558  1D03               	btfss	3,2
  5668     1559  2D5B               	goto	u564_21
  5669     155A  2D5C               	goto	u564_20
  5670     155B                     u564_21:
  5671     155B  2D7B               	goto	i1l124
  5672     155C                     u564_20:
  5673     155C                     i1l3206:
  5674                           
  5675                           ;configPWM.c: 48:         CCPR2L = duty_var;
  5676     155C  0825               	movf	PWM_DUTY@duty_var^(0+128),w
  5677     155D  1283               	bcf	3,5	;RP0=0, select bank0
  5678     155E  1303               	bcf	3,6	;RP1=0, select bank0
  5679     155F  009B               	movwf	27	;volatile
  5680     1560                     i1l3208:
  5681                           
  5682                           ;configPWM.c: 49:         CCP2CONbits.DC2B0 = duty_var & 0b01;
  5683     1560  1683               	bsf	3,5	;RP0=1, select bank1
  5684     1561  1303               	bcf	3,6	;RP1=0, select bank1
  5685     1562  0825               	movf	PWM_DUTY@duty_var^(0+128),w
  5686     1563  3901               	andlw	1
  5687     1564  1283               	bcf	3,5	;RP0=0, select bank0
  5688     1565  1303               	bcf	3,6	;RP1=0, select bank0
  5689     1566  00ED               	movwf	??_PWM_DUTY
  5690     1567  0EED               	swapf	??_PWM_DUTY,f
  5691     1568  081D               	movf	29,w	;volatile
  5692     1569  066D               	xorwf	??_PWM_DUTY,w
  5693     156A  39EF               	andlw	-17
  5694     156B  066D               	xorwf	??_PWM_DUTY,w
  5695     156C  009D               	movwf	29	;volatile
  5696     156D                     i1l3210:
  5697                           
  5698                           ;configPWM.c: 50:         CCP2CONbits.DC2B1 = duty_var & 0b10;
  5699     156D  1683               	bsf	3,5	;RP0=1, select bank1
  5700     156E  1303               	bcf	3,6	;RP1=0, select bank1
  5701     156F  0825               	movf	PWM_DUTY@duty_var^(0+128),w
  5702     1570  3902               	andlw	2
  5703     1571  1283               	bcf	3,5	;RP0=0, select bank0
  5704     1572  1303               	bcf	3,6	;RP1=0, select bank0
  5705     1573  00ED               	movwf	??_PWM_DUTY
  5706     1574  0EED               	swapf	??_PWM_DUTY,f
  5707     1575  0DED               	rlf	??_PWM_DUTY,f
  5708     1576  081D               	movf	29,w	;volatile
  5709     1577  066D               	xorwf	??_PWM_DUTY,w
  5710     1578  39DF               	andlw	-33
  5711     1579  066D               	xorwf	??_PWM_DUTY,w
  5712     157A  009D               	movwf	29	;volatile
  5713     157B                     i1l124:
  5714     157B  0008               	return
  5715     157C                     __end_of_PWM_DUTY:
  5716                           
  5717                           	psect	text14
  5718     13E0                     __ptext14:	
  5719 ;; *************** function i1___fltol *****************
  5720 ;; Defined at:
  5721 ;;		line 43 in file "C:\Program Files\Microchip\xc8\v2.40\pic\sources\c90\common\fltol.c"
  5722 ;; Parameters:    Size  Location     Type
  5723 ;;  f1              4   67[BANK0 ] void 
  5724 ;; Auto vars:     Size  Location     Type
  5725 ;;  exp1            1   76[BANK0 ] unsigned char 
  5726 ;;  sign1           1   75[BANK0 ] unsigned char 
  5727 ;; Return value:  Size  Location     Type
  5728 ;;                  4   67[BANK0 ] long 
  5729 ;; Registers used:
  5730 ;;		wreg, status,2, status,0
  5731 ;; Tracked objects:
  5732 ;;		On entry : 0/0
  5733 ;;		On exit  : 0/0
  5734 ;;		Unchanged: 0/0
  5735 ;; Data sizes:     COMMON   BANK0   BANK1   BANK3   BANK2
  5736 ;;      Params:         0       4       0       0       0
  5737 ;;      Locals:         0       2       0       0       0
  5738 ;;      Temps:          0       4       0       0       0
  5739 ;;      Totals:         0      10       0       0       0
  5740 ;;Total ram usage:       10 bytes
  5741 ;; Hardware stack levels used: 1
  5742 ;; This function calls:
  5743 ;;		Nothing
  5744 ;; This function is called by:
  5745 ;;		_PWM_DUTY
  5746 ;; This function uses a non-reentrant model
  5747 ;;
  5748                           
  5749     13E0                     i1___fltol:	
  5750                           ;psect for function i1___fltol
  5751                           
  5752     13E0                     i1l2684:	
  5753                           ;incstack = 0
  5754                           ; Regs used in i1___fltol: [wreg+status,2+status,0]
  5755                           
  5756     13E0  1003               	clrc
  5757     13E1  1283               	bcf	3,5	;RP0=0, select bank0
  5758     13E2  1303               	bcf	3,6	;RP1=0, select bank0
  5759     13E3  0D65               	rlf	i1___fltol@f1+2,w
  5760     13E4  0D66               	rlf	i1___fltol@f1+3,w
  5761     13E5  00EC               	movwf	i1___fltol@exp1
  5762     13E6  086C               	movf	i1___fltol@exp1,w
  5763     13E7  1D03               	btfss	3,2
  5764     13E8  2BEA               	goto	u441_21
  5765     13E9  2BEB               	goto	u441_20
  5766     13EA                     u441_21:
  5767     13EA  2BF4               	goto	i1l2690
  5768     13EB                     u441_20:
  5769     13EB                     i1l2686:
  5770     13EB  3000               	movlw	0
  5771     13EC  00E6               	movwf	?i1___fltol+3
  5772     13ED  3000               	movlw	0
  5773     13EE  00E5               	movwf	?i1___fltol+2
  5774     13EF  3000               	movlw	0
  5775     13F0  00E4               	movwf	?i1___fltol+1
  5776     13F1  3000               	movlw	0
  5777     13F2  00E3               	movwf	?i1___fltol
  5778     13F3  2C57               	goto	i1l396
  5779     13F4                     i1l2690:
  5780     13F4  0863               	movf	i1___fltol@f1,w
  5781     13F5  00E7               	movwf	??i1___fltol
  5782     13F6  0864               	movf	i1___fltol@f1+1,w
  5783     13F7  00E8               	movwf	??i1___fltol+1
  5784     13F8  0865               	movf	i1___fltol@f1+2,w
  5785     13F9  00E9               	movwf	??i1___fltol+2
  5786     13FA  0866               	movf	i1___fltol@f1+3,w
  5787     13FB  00EA               	movwf	??i1___fltol+3
  5788     13FC  301F               	movlw	31
  5789     13FD                     u442_25:
  5790     13FD  1003               	clrc
  5791     13FE  0CEA               	rrf	??i1___fltol+3,f
  5792     13FF  0CE9               	rrf	??i1___fltol+2,f
  5793     1400  0CE8               	rrf	??i1___fltol+1,f
  5794     1401  0CE7               	rrf	??i1___fltol,f
  5795     1402                     u442_20:
  5796     1402  3EFF               	addlw	-1
  5797     1403  1D03               	skipz
  5798     1404  2BFD               	goto	u442_25
  5799     1405  0867               	movf	??i1___fltol,w
  5800     1406  00EB               	movwf	i1___fltol@sign1
  5801     1407                     i1l2692:
  5802     1407  17E5               	bsf	i1___fltol@f1+2,7
  5803     1408                     i1l2694:
  5804     1408  30FF               	movlw	255
  5805     1409  05E3               	andwf	i1___fltol@f1,f
  5806     140A  30FF               	movlw	255
  5807     140B  05E4               	andwf	i1___fltol@f1+1,f
  5808     140C  30FF               	movlw	255
  5809     140D  05E5               	andwf	i1___fltol@f1+2,f
  5810     140E  3000               	movlw	0
  5811     140F  05E6               	andwf	i1___fltol@f1+3,f
  5812     1410                     i1l2696:
  5813     1410  3096               	movlw	150
  5814     1411  02EC               	subwf	i1___fltol@exp1,f
  5815     1412                     i1l2698:
  5816     1412  1FEC               	btfss	i1___fltol@exp1,7
  5817     1413  2C15               	goto	u443_21
  5818     1414  2C16               	goto	u443_20
  5819     1415                     u443_21:
  5820     1415  2C30               	goto	i1l2708
  5821     1416                     u443_20:
  5822     1416                     i1l2700:
  5823     1416  086C               	movf	i1___fltol@exp1,w
  5824     1417  3A80               	xorlw	128
  5825     1418  3E97               	addlw	151
  5826     1419  1803               	skipnc
  5827     141A  2C1C               	goto	u444_21
  5828     141B  2C1D               	goto	u444_20
  5829     141C                     u444_21:
  5830     141C  2C1E               	goto	i1l2706
  5831     141D                     u444_20:
  5832     141D  2BEB               	goto	i1l2686
  5833     141E                     i1l2706:
  5834     141E  3001               	movlw	1
  5835     141F                     u445_25:
  5836     141F  1003               	clrc
  5837     1420  0CE6               	rrf	i1___fltol@f1+3,f
  5838     1421  0CE5               	rrf	i1___fltol@f1+2,f
  5839     1422  0CE4               	rrf	i1___fltol@f1+1,f
  5840     1423  0CE3               	rrf	i1___fltol@f1,f
  5841     1424  3EFF               	addlw	-1
  5842     1425  1D03               	skipz
  5843     1426  2C1F               	goto	u445_25
  5844     1427  3001               	movlw	1
  5845     1428  00E7               	movwf	??i1___fltol
  5846     1429  0867               	movf	??i1___fltol,w
  5847     142A  07EC               	addwf	i1___fltol@exp1,f
  5848     142B  1D03               	btfss	3,2
  5849     142C  2C2E               	goto	u446_21
  5850     142D  2C2F               	goto	u446_20
  5851     142E                     u446_21:
  5852     142E  2C1E               	goto	i1l2706
  5853     142F                     u446_20:
  5854     142F  2C47               	goto	i1l2716
  5855     1430                     i1l2708:
  5856     1430  3020               	movlw	32
  5857     1431  026C               	subwf	i1___fltol@exp1,w
  5858     1432  1C03               	skipc
  5859     1433  2C35               	goto	u447_21
  5860     1434  2C36               	goto	u447_20
  5861     1435                     u447_21:
  5862     1435  2C42               	goto	i1l403
  5863     1436                     u447_20:
  5864     1436  2BEB               	goto	i1l2686
  5865     1437                     i1l2714:
  5866     1437  3001               	movlw	1
  5867     1438  00E7               	movwf	??i1___fltol
  5868     1439                     u448_25:
  5869     1439  1003               	clrc
  5870     143A  0DE3               	rlf	i1___fltol@f1,f
  5871     143B  0DE4               	rlf	i1___fltol@f1+1,f
  5872     143C  0DE5               	rlf	i1___fltol@f1+2,f
  5873     143D  0DE6               	rlf	i1___fltol@f1+3,f
  5874     143E  0BE7               	decfsz	??i1___fltol,f
  5875     143F  2C39               	goto	u448_25
  5876     1440  3001               	movlw	1
  5877     1441  02EC               	subwf	i1___fltol@exp1,f
  5878     1442                     i1l403:
  5879     1442  086C               	movf	i1___fltol@exp1,w
  5880     1443  1D03               	btfss	3,2
  5881     1444  2C46               	goto	u449_21
  5882     1445  2C47               	goto	u449_20
  5883     1446                     u449_21:
  5884     1446  2C37               	goto	i1l2714
  5885     1447                     u449_20:
  5886     1447                     i1l2716:
  5887     1447  086B               	movf	i1___fltol@sign1,w
  5888     1448  1903               	btfsc	3,2
  5889     1449  2C4B               	goto	u450_21
  5890     144A  2C4C               	goto	u450_20
  5891     144B                     u450_21:
  5892     144B  2C57               	goto	i1l406
  5893     144C                     u450_20:
  5894     144C                     i1l2718:
  5895     144C  09E3               	comf	i1___fltol@f1,f
  5896     144D  09E4               	comf	i1___fltol@f1+1,f
  5897     144E  09E5               	comf	i1___fltol@f1+2,f
  5898     144F  09E6               	comf	i1___fltol@f1+3,f
  5899     1450  0AE3               	incf	i1___fltol@f1,f
  5900     1451  1903               	skipnz
  5901     1452  0AE4               	incf	i1___fltol@f1+1,f
  5902     1453  1903               	skipnz
  5903     1454  0AE5               	incf	i1___fltol@f1+2,f
  5904     1455  1903               	skipnz
  5905     1456  0AE6               	incf	i1___fltol@f1+3,f
  5906     1457                     i1l406:
  5907     1457                     i1l396:
  5908     1457  0008               	return
  5909     1458                     __end_ofi1___fltol:
  5910                           
  5911                           	psect	text15
  5912     0366                     __ptext15:	
  5913 ;; *************** function i1___flmul *****************
  5914 ;; Defined at:
  5915 ;;		line 8 in file "C:\Program Files\Microchip\xc8\v2.40\pic\sources\c90\common\sprcmul.c"
  5916 ;; Parameters:    Size  Location     Type
  5917 ;;  b               4    0[BANK0 ] long 
  5918 ;;  a               4    4[BANK0 ] long 
  5919 ;; Auto vars:     Size  Location     Type
  5920 ;;  prod            4   15[BANK0 ] struct .
  5921 ;;  grs             4    9[BANK0 ] unsigned long 
  5922 ;;  temp            2   19[BANK0 ] struct .
  5923 ;;  bexp            1   14[BANK0 ] unsigned char 
  5924 ;;  aexp            1   13[BANK0 ] unsigned char 
  5925 ;;  sign            1    8[BANK0 ] unsigned char 
  5926 ;; Return value:  Size  Location     Type
  5927 ;;                  4    0[BANK0 ] unsigned char 
  5928 ;; Registers used:
  5929 ;;		wreg, status,2, status,0, btemp+1, pclath, cstack
  5930 ;; Tracked objects:
  5931 ;;		On entry : 0/0
  5932 ;;		On exit  : 0/0
  5933 ;;		Unchanged: 0/0
  5934 ;; Data sizes:     COMMON   BANK0   BANK1   BANK3   BANK2
  5935 ;;      Params:         0       8       0       0       0
  5936 ;;      Locals:         0      13       0       0       0
  5937 ;;      Temps:          5       0       0       0       0
  5938 ;;      Totals:         5      21       0       0       0
  5939 ;;Total ram usage:       26 bytes
  5940 ;; Hardware stack levels used: 1
  5941 ;; Hardware stack levels required when called: 1
  5942 ;; This function calls:
  5943 ;;		i1__Umul8_16
  5944 ;; This function is called by:
  5945 ;;		_PWM_DUTY
  5946 ;; This function uses a non-reentrant model
  5947 ;;
  5948                           
  5949     0366                     i1___flmul:	
  5950                           ;psect for function i1___flmul
  5951                           
  5952     0366                     i1l3056:	
  5953                           ;incstack = 0
  5954                           ; Regs used in i1___flmul: [wreg+status,2+status,0+btemp+1+pclath+cstack]
  5955                           
  5956     0366  1283               	bcf	3,5	;RP0=0, select bank0
  5957     0367  1303               	bcf	3,6	;RP1=0, select bank0
  5958     0368  0823               	movf	i1___flmul@b+3,w
  5959     0369  3980               	andlw	128
  5960     036A  00A8               	movwf	i1___flmul@sign
  5961     036B                     i1l3058:
  5962     036B  0823               	movf	i1___flmul@b+3,w
  5963     036C  00F9               	movwf	??i1___flmul
  5964     036D  0779               	addwf	??i1___flmul,w
  5965     036E  00AE               	movwf	i1___flmul@bexp
  5966     036F                     i1l3060:
  5967     036F  1FA2               	btfss	i1___flmul@b+2,7
  5968     0370  2B72               	goto	u526_21
  5969     0371  2B73               	goto	u526_20
  5970     0372                     u526_21:
  5971     0372  2B74               	goto	i1l3064
  5972     0373                     u526_20:
  5973     0373                     i1l3062:
  5974     0373  142E               	bsf	i1___flmul@bexp,0
  5975     0374                     i1l3064:
  5976     0374  082E               	movf	i1___flmul@bexp,w
  5977     0375  1903               	btfsc	3,2
  5978     0376  2B78               	goto	u527_21
  5979     0377  2B79               	goto	u527_20
  5980     0378                     u527_21:
  5981     0378  2B88               	goto	i1l3072
  5982     0379                     u527_20:
  5983     0379                     i1l3066:
  5984     0379  0A2E               	incf	i1___flmul@bexp,w
  5985     037A  1D03               	btfss	3,2
  5986     037B  2B7D               	goto	u528_21
  5987     037C  2B7E               	goto	u528_20
  5988     037D                     u528_21:
  5989     037D  2B86               	goto	i1l3070
  5990     037E                     u528_20:
  5991     037E                     i1l3068:
  5992     037E  3000               	movlw	0
  5993     037F  00A3               	movwf	i1___flmul@b+3
  5994     0380  3000               	movlw	0
  5995     0381  00A2               	movwf	i1___flmul@b+2
  5996     0382  3000               	movlw	0
  5997     0383  00A1               	movwf	i1___flmul@b+1
  5998     0384  3000               	movlw	0
  5999     0385  00A0               	movwf	i1___flmul@b
  6000     0386                     i1l3070:
  6001     0386  17A2               	bsf	i1___flmul@b+2,7
  6002     0387  2B90               	goto	i1l3074
  6003     0388                     i1l3072:
  6004     0388  3000               	movlw	0
  6005     0389  00A3               	movwf	i1___flmul@b+3
  6006     038A  3000               	movlw	0
  6007     038B  00A2               	movwf	i1___flmul@b+2
  6008     038C  3000               	movlw	0
  6009     038D  00A1               	movwf	i1___flmul@b+1
  6010     038E  3000               	movlw	0
  6011     038F  00A0               	movwf	i1___flmul@b
  6012     0390                     i1l3074:
  6013     0390  0827               	movf	i1___flmul@a+3,w
  6014     0391  3980               	andlw	128
  6015     0392  00F9               	movwf	??i1___flmul
  6016     0393  0879               	movf	??i1___flmul,w
  6017     0394  06A8               	xorwf	i1___flmul@sign,f
  6018     0395                     i1l3076:
  6019     0395  0827               	movf	i1___flmul@a+3,w
  6020     0396  00F9               	movwf	??i1___flmul
  6021     0397  0779               	addwf	??i1___flmul,w
  6022     0398  00AD               	movwf	i1___flmul@aexp
  6023     0399                     i1l3078:
  6024     0399  1FA6               	btfss	i1___flmul@a+2,7
  6025     039A  2B9C               	goto	u529_21
  6026     039B  2B9D               	goto	u529_20
  6027     039C                     u529_21:
  6028     039C  2B9E               	goto	i1l3082
  6029     039D                     u529_20:
  6030     039D                     i1l3080:
  6031     039D  142D               	bsf	i1___flmul@aexp,0
  6032     039E                     i1l3082:
  6033     039E  082D               	movf	i1___flmul@aexp,w
  6034     039F  1903               	btfsc	3,2
  6035     03A0  2BA2               	goto	u530_21
  6036     03A1  2BA3               	goto	u530_20
  6037     03A2                     u530_21:
  6038     03A2  2BB2               	goto	i1l3090
  6039     03A3                     u530_20:
  6040     03A3                     i1l3084:
  6041     03A3  0A2D               	incf	i1___flmul@aexp,w
  6042     03A4  1D03               	btfss	3,2
  6043     03A5  2BA7               	goto	u531_21
  6044     03A6  2BA8               	goto	u531_20
  6045     03A7                     u531_21:
  6046     03A7  2BB0               	goto	i1l3088
  6047     03A8                     u531_20:
  6048     03A8                     i1l3086:
  6049     03A8  3000               	movlw	0
  6050     03A9  00A7               	movwf	i1___flmul@a+3
  6051     03AA  3000               	movlw	0
  6052     03AB  00A6               	movwf	i1___flmul@a+2
  6053     03AC  3000               	movlw	0
  6054     03AD  00A5               	movwf	i1___flmul@a+1
  6055     03AE  3000               	movlw	0
  6056     03AF  00A4               	movwf	i1___flmul@a
  6057     03B0                     i1l3088:
  6058     03B0  17A6               	bsf	i1___flmul@a+2,7
  6059     03B1  2BBA               	goto	i1l3092
  6060     03B2                     i1l3090:
  6061     03B2  3000               	movlw	0
  6062     03B3  00A7               	movwf	i1___flmul@a+3
  6063     03B4  3000               	movlw	0
  6064     03B5  00A6               	movwf	i1___flmul@a+2
  6065     03B6  3000               	movlw	0
  6066     03B7  00A5               	movwf	i1___flmul@a+1
  6067     03B8  3000               	movlw	0
  6068     03B9  00A4               	movwf	i1___flmul@a
  6069     03BA                     i1l3092:
  6070     03BA  082D               	movf	i1___flmul@aexp,w
  6071     03BB  1903               	btfsc	3,2
  6072     03BC  2BBE               	goto	u532_21
  6073     03BD  2BBF               	goto	u532_20
  6074     03BE                     u532_21:
  6075     03BE  2BC4               	goto	i1l3096
  6076     03BF                     u532_20:
  6077     03BF                     i1l3094:
  6078     03BF  082E               	movf	i1___flmul@bexp,w
  6079     03C0  1D03               	btfss	3,2
  6080     03C1  2BC3               	goto	u533_21
  6081     03C2  2BC4               	goto	u533_20
  6082     03C3                     u533_21:
  6083     03C3  2BCD               	goto	i1l3100
  6084     03C4                     u533_20:
  6085     03C4                     i1l3096:
  6086     03C4  3000               	movlw	0
  6087     03C5  00A3               	movwf	?i1___flmul+3
  6088     03C6  3000               	movlw	0
  6089     03C7  00A2               	movwf	?i1___flmul+2
  6090     03C8  3000               	movlw	0
  6091     03C9  00A1               	movwf	?i1___flmul+1
  6092     03CA  3000               	movlw	0
  6093     03CB  00A0               	movwf	?i1___flmul
  6094     03CC  2EAA               	goto	i1l599
  6095     03CD                     i1l3100:
  6096     03CD  0820               	movf	i1___flmul@b,w
  6097     03CE  00F0               	movwf	i1__Umul8_16@multiplicand
  6098     03CF  0826               	movf	i1___flmul@a+2,w
  6099     03D0  160A  118A  2285  120A  118A  	fcall	i1__Umul8_16
  6100     03D5  0871               	movf	?i1__Umul8_16+1,w
  6101     03D6  1283               	bcf	3,5	;RP0=0, select bank0
  6102     03D7  1303               	bcf	3,6	;RP1=0, select bank0
  6103     03D8  00B4               	movwf	i1___flmul@temp+1
  6104     03D9  0870               	movf	?i1__Umul8_16,w
  6105     03DA  00B3               	movwf	i1___flmul@temp
  6106     03DB                     i1l3102:
  6107     03DB  0833               	movf	i1___flmul@temp,w
  6108     03DC  00F9               	movwf	??i1___flmul
  6109     03DD  01FA               	clrf	??i1___flmul+1
  6110     03DE  01FB               	clrf	??i1___flmul+2
  6111     03DF  01FC               	clrf	??i1___flmul+3
  6112     03E0  087C               	movf	??i1___flmul+3,w
  6113     03E1  00AC               	movwf	i1___flmul@grs+3
  6114     03E2  087B               	movf	??i1___flmul+2,w
  6115     03E3  00AB               	movwf	i1___flmul@grs+2
  6116     03E4  087A               	movf	??i1___flmul+1,w
  6117     03E5  00AA               	movwf	i1___flmul@grs+1
  6118     03E6  0879               	movf	??i1___flmul,w
  6119     03E7  00A9               	movwf	i1___flmul@grs
  6120     03E8                     i1l3104:
  6121     03E8  0834               	movf	i1___flmul@temp+1,w
  6122     03E9  00F9               	movwf	??i1___flmul
  6123     03EA  01FA               	clrf	??i1___flmul+1
  6124     03EB  01FB               	clrf	??i1___flmul+2
  6125     03EC  01FC               	clrf	??i1___flmul+3
  6126     03ED  087C               	movf	??i1___flmul+3,w
  6127     03EE  00B2               	movwf	i1___flmul@prod+3
  6128     03EF  087B               	movf	??i1___flmul+2,w
  6129     03F0  00B1               	movwf	i1___flmul@prod+2
  6130     03F1  087A               	movf	??i1___flmul+1,w
  6131     03F2  00B0               	movwf	i1___flmul@prod+1
  6132     03F3  0879               	movf	??i1___flmul,w
  6133     03F4  00AF               	movwf	i1___flmul@prod
  6134     03F5  0821               	movf	i1___flmul@b+1,w
  6135     03F6  00F0               	movwf	i1__Umul8_16@multiplicand
  6136     03F7  0825               	movf	i1___flmul@a+1,w
  6137     03F8  160A  118A  2285  120A  118A  	fcall	i1__Umul8_16
  6138     03FD  0871               	movf	?i1__Umul8_16+1,w
  6139     03FE  1283               	bcf	3,5	;RP0=0, select bank0
  6140     03FF  1303               	bcf	3,6	;RP1=0, select bank0
  6141     0400  00B4               	movwf	i1___flmul@temp+1
  6142     0401  0870               	movf	?i1__Umul8_16,w
  6143     0402  00B3               	movwf	i1___flmul@temp
  6144     0403                     i1l3106:
  6145     0403  0833               	movf	i1___flmul@temp,w
  6146     0404  00F9               	movwf	??i1___flmul
  6147     0405  01FA               	clrf	??i1___flmul+1
  6148     0406  01FB               	clrf	??i1___flmul+2
  6149     0407  01FC               	clrf	??i1___flmul+3
  6150     0408  0879               	movf	??i1___flmul,w
  6151     0409  07A9               	addwf	i1___flmul@grs,f
  6152     040A  087A               	movf	??i1___flmul+1,w
  6153     040B  1103               	clrz
  6154     040C  1803               	skipnc
  6155     040D  3E01               	addlw	1
  6156     040E  1903               	skipnz
  6157     040F  2C11               	goto	u534_21
  6158     0410  07AA               	addwf	i1___flmul@grs+1,f
  6159     0411                     u534_21:
  6160     0411  087B               	movf	??i1___flmul+2,w
  6161     0412  1103               	clrz
  6162     0413  1803               	skipnc
  6163     0414  3E01               	addlw	1
  6164     0415  1903               	skipnz
  6165     0416  2C18               	goto	u534_22
  6166     0417  07AB               	addwf	i1___flmul@grs+2,f
  6167     0418                     u534_22:
  6168     0418  087C               	movf	??i1___flmul+3,w
  6169     0419  1103               	clrz
  6170     041A  1803               	skipnc
  6171     041B  3E01               	addlw	1
  6172     041C  1903               	skipnz
  6173     041D  2C1F               	goto	u534_23
  6174     041E  07AC               	addwf	i1___flmul@grs+3,f
  6175     041F                     u534_23:
  6176     041F                     i1l3108:
  6177     041F  0834               	movf	i1___flmul@temp+1,w
  6178     0420  00F9               	movwf	??i1___flmul
  6179     0421  01FA               	clrf	??i1___flmul+1
  6180     0422  01FB               	clrf	??i1___flmul+2
  6181     0423  01FC               	clrf	??i1___flmul+3
  6182     0424  0879               	movf	??i1___flmul,w
  6183     0425  07AF               	addwf	i1___flmul@prod,f
  6184     0426  087A               	movf	??i1___flmul+1,w
  6185     0427  1103               	clrz
  6186     0428  1803               	skipnc
  6187     0429  3E01               	addlw	1
  6188     042A  1903               	skipnz
  6189     042B  2C2D               	goto	u535_21
  6190     042C  07B0               	addwf	i1___flmul@prod+1,f
  6191     042D                     u535_21:
  6192     042D  087B               	movf	??i1___flmul+2,w
  6193     042E  1103               	clrz
  6194     042F  1803               	skipnc
  6195     0430  3E01               	addlw	1
  6196     0431  1903               	skipnz
  6197     0432  2C34               	goto	u535_22
  6198     0433  07B1               	addwf	i1___flmul@prod+2,f
  6199     0434                     u535_22:
  6200     0434  087C               	movf	??i1___flmul+3,w
  6201     0435  1103               	clrz
  6202     0436  1803               	skipnc
  6203     0437  3E01               	addlw	1
  6204     0438  1903               	skipnz
  6205     0439  2C3B               	goto	u535_23
  6206     043A  07B2               	addwf	i1___flmul@prod+3,f
  6207     043B                     u535_23:
  6208     043B  0822               	movf	i1___flmul@b+2,w
  6209     043C  00F0               	movwf	i1__Umul8_16@multiplicand
  6210     043D  0824               	movf	i1___flmul@a,w
  6211     043E  160A  118A  2285  120A  118A  	fcall	i1__Umul8_16
  6212     0443  0871               	movf	?i1__Umul8_16+1,w
  6213     0444  1283               	bcf	3,5	;RP0=0, select bank0
  6214     0445  1303               	bcf	3,6	;RP1=0, select bank0
  6215     0446  00B4               	movwf	i1___flmul@temp+1
  6216     0447  0870               	movf	?i1__Umul8_16,w
  6217     0448  00B3               	movwf	i1___flmul@temp
  6218     0449                     i1l3110:
  6219     0449  0833               	movf	i1___flmul@temp,w
  6220     044A  00F9               	movwf	??i1___flmul
  6221     044B  01FA               	clrf	??i1___flmul+1
  6222     044C  01FB               	clrf	??i1___flmul+2
  6223     044D  01FC               	clrf	??i1___flmul+3
  6224     044E  0879               	movf	??i1___flmul,w
  6225     044F  07A9               	addwf	i1___flmul@grs,f
  6226     0450  087A               	movf	??i1___flmul+1,w
  6227     0451  1103               	clrz
  6228     0452  1803               	skipnc
  6229     0453  3E01               	addlw	1
  6230     0454  1903               	skipnz
  6231     0455  2C57               	goto	u536_21
  6232     0456  07AA               	addwf	i1___flmul@grs+1,f
  6233     0457                     u536_21:
  6234     0457  087B               	movf	??i1___flmul+2,w
  6235     0458  1103               	clrz
  6236     0459  1803               	skipnc
  6237     045A  3E01               	addlw	1
  6238     045B  1903               	skipnz
  6239     045C  2C5E               	goto	u536_22
  6240     045D  07AB               	addwf	i1___flmul@grs+2,f
  6241     045E                     u536_22:
  6242     045E  087C               	movf	??i1___flmul+3,w
  6243     045F  1103               	clrz
  6244     0460  1803               	skipnc
  6245     0461  3E01               	addlw	1
  6246     0462  1903               	skipnz
  6247     0463  2C65               	goto	u536_23
  6248     0464  07AC               	addwf	i1___flmul@grs+3,f
  6249     0465                     u536_23:
  6250     0465                     i1l3112:
  6251     0465  0834               	movf	i1___flmul@temp+1,w
  6252     0466  00F9               	movwf	??i1___flmul
  6253     0467  01FA               	clrf	??i1___flmul+1
  6254     0468  01FB               	clrf	??i1___flmul+2
  6255     0469  01FC               	clrf	??i1___flmul+3
  6256     046A  0879               	movf	??i1___flmul,w
  6257     046B  07AF               	addwf	i1___flmul@prod,f
  6258     046C  087A               	movf	??i1___flmul+1,w
  6259     046D  1103               	clrz
  6260     046E  1803               	skipnc
  6261     046F  3E01               	addlw	1
  6262     0470  1903               	skipnz
  6263     0471  2C73               	goto	u537_21
  6264     0472  07B0               	addwf	i1___flmul@prod+1,f
  6265     0473                     u537_21:
  6266     0473  087B               	movf	??i1___flmul+2,w
  6267     0474  1103               	clrz
  6268     0475  1803               	skipnc
  6269     0476  3E01               	addlw	1
  6270     0477  1903               	skipnz
  6271     0478  2C7A               	goto	u537_22
  6272     0479  07B1               	addwf	i1___flmul@prod+2,f
  6273     047A                     u537_22:
  6274     047A  087C               	movf	??i1___flmul+3,w
  6275     047B  1103               	clrz
  6276     047C  1803               	skipnc
  6277     047D  3E01               	addlw	1
  6278     047E  1903               	skipnz
  6279     047F  2C81               	goto	u537_23
  6280     0480  07B2               	addwf	i1___flmul@prod+3,f
  6281     0481                     u537_23:
  6282     0481                     i1l3114:
  6283     0481  3008               	movlw	8
  6284     0482  00F9               	movwf	??i1___flmul
  6285     0483                     u538_25:
  6286     0483  1003               	clrc
  6287     0484  0DA9               	rlf	i1___flmul@grs,f
  6288     0485  0DAA               	rlf	i1___flmul@grs+1,f
  6289     0486  0DAB               	rlf	i1___flmul@grs+2,f
  6290     0487  0DAC               	rlf	i1___flmul@grs+3,f
  6291     0488  0BF9               	decfsz	??i1___flmul,f
  6292     0489  2C83               	goto	u538_25
  6293     048A                     i1l3116:
  6294     048A  0821               	movf	i1___flmul@b+1,w
  6295     048B  00F0               	movwf	i1__Umul8_16@multiplicand
  6296     048C  0824               	movf	i1___flmul@a,w
  6297     048D  160A  118A  2285  120A  118A  	fcall	i1__Umul8_16
  6298     0492  0871               	movf	?i1__Umul8_16+1,w
  6299     0493  1283               	bcf	3,5	;RP0=0, select bank0
  6300     0494  1303               	bcf	3,6	;RP1=0, select bank0
  6301     0495  00B4               	movwf	i1___flmul@temp+1
  6302     0496  0870               	movf	?i1__Umul8_16,w
  6303     0497  00B3               	movwf	i1___flmul@temp
  6304     0498                     i1l3118:
  6305     0498  0833               	movf	i1___flmul@temp,w
  6306     0499  00F9               	movwf	??i1___flmul
  6307     049A  0834               	movf	i1___flmul@temp+1,w
  6308     049B  00FA               	movwf	??i1___flmul+1
  6309     049C  01FB               	clrf	??i1___flmul+2
  6310     049D  01FC               	clrf	??i1___flmul+3
  6311     049E  0879               	movf	??i1___flmul,w
  6312     049F  07A9               	addwf	i1___flmul@grs,f
  6313     04A0  087A               	movf	??i1___flmul+1,w
  6314     04A1  1103               	clrz
  6315     04A2  1803               	skipnc
  6316     04A3  3E01               	addlw	1
  6317     04A4  1903               	skipnz
  6318     04A5  2CA7               	goto	u539_21
  6319     04A6  07AA               	addwf	i1___flmul@grs+1,f
  6320     04A7                     u539_21:
  6321     04A7  087B               	movf	??i1___flmul+2,w
  6322     04A8  1103               	clrz
  6323     04A9  1803               	skipnc
  6324     04AA  3E01               	addlw	1
  6325     04AB  1903               	skipnz
  6326     04AC  2CAE               	goto	u539_22
  6327     04AD  07AB               	addwf	i1___flmul@grs+2,f
  6328     04AE                     u539_22:
  6329     04AE  087C               	movf	??i1___flmul+3,w
  6330     04AF  1103               	clrz
  6331     04B0  1803               	skipnc
  6332     04B1  3E01               	addlw	1
  6333     04B2  1903               	skipnz
  6334     04B3  2CB5               	goto	u539_23
  6335     04B4  07AC               	addwf	i1___flmul@grs+3,f
  6336     04B5                     u539_23:
  6337     04B5                     i1l3120:
  6338     04B5  0820               	movf	i1___flmul@b,w
  6339     04B6  00F0               	movwf	i1__Umul8_16@multiplicand
  6340     04B7  0825               	movf	i1___flmul@a+1,w
  6341     04B8  160A  118A  2285  120A  118A  	fcall	i1__Umul8_16
  6342     04BD  0871               	movf	?i1__Umul8_16+1,w
  6343     04BE  1283               	bcf	3,5	;RP0=0, select bank0
  6344     04BF  1303               	bcf	3,6	;RP1=0, select bank0
  6345     04C0  00B4               	movwf	i1___flmul@temp+1
  6346     04C1  0870               	movf	?i1__Umul8_16,w
  6347     04C2  00B3               	movwf	i1___flmul@temp
  6348     04C3                     i1l3122:
  6349     04C3  0833               	movf	i1___flmul@temp,w
  6350     04C4  00F9               	movwf	??i1___flmul
  6351     04C5  0834               	movf	i1___flmul@temp+1,w
  6352     04C6  00FA               	movwf	??i1___flmul+1
  6353     04C7  01FB               	clrf	??i1___flmul+2
  6354     04C8  01FC               	clrf	??i1___flmul+3
  6355     04C9  0879               	movf	??i1___flmul,w
  6356     04CA  07A9               	addwf	i1___flmul@grs,f
  6357     04CB  087A               	movf	??i1___flmul+1,w
  6358     04CC  1103               	clrz
  6359     04CD  1803               	skipnc
  6360     04CE  3E01               	addlw	1
  6361     04CF  1903               	skipnz
  6362     04D0  2CD2               	goto	u540_21
  6363     04D1  07AA               	addwf	i1___flmul@grs+1,f
  6364     04D2                     u540_21:
  6365     04D2  087B               	movf	??i1___flmul+2,w
  6366     04D3  1103               	clrz
  6367     04D4  1803               	skipnc
  6368     04D5  3E01               	addlw	1
  6369     04D6  1903               	skipnz
  6370     04D7  2CD9               	goto	u540_22
  6371     04D8  07AB               	addwf	i1___flmul@grs+2,f
  6372     04D9                     u540_22:
  6373     04D9  087C               	movf	??i1___flmul+3,w
  6374     04DA  1103               	clrz
  6375     04DB  1803               	skipnc
  6376     04DC  3E01               	addlw	1
  6377     04DD  1903               	skipnz
  6378     04DE  2CE0               	goto	u540_23
  6379     04DF  07AC               	addwf	i1___flmul@grs+3,f
  6380     04E0                     u540_23:
  6381     04E0                     i1l3124:
  6382     04E0  3008               	movlw	8
  6383     04E1  00F9               	movwf	??i1___flmul
  6384     04E2                     u541_25:
  6385     04E2  1003               	clrc
  6386     04E3  0DA9               	rlf	i1___flmul@grs,f
  6387     04E4  0DAA               	rlf	i1___flmul@grs+1,f
  6388     04E5  0DAB               	rlf	i1___flmul@grs+2,f
  6389     04E6  0DAC               	rlf	i1___flmul@grs+3,f
  6390     04E7  0BF9               	decfsz	??i1___flmul,f
  6391     04E8  2CE2               	goto	u541_25
  6392     04E9  0820               	movf	i1___flmul@b,w
  6393     04EA  00F0               	movwf	i1__Umul8_16@multiplicand
  6394     04EB  0824               	movf	i1___flmul@a,w
  6395     04EC  160A  118A  2285  120A  118A  	fcall	i1__Umul8_16
  6396     04F1  0871               	movf	?i1__Umul8_16+1,w
  6397     04F2  1283               	bcf	3,5	;RP0=0, select bank0
  6398     04F3  1303               	bcf	3,6	;RP1=0, select bank0
  6399     04F4  00B4               	movwf	i1___flmul@temp+1
  6400     04F5  0870               	movf	?i1__Umul8_16,w
  6401     04F6  00B3               	movwf	i1___flmul@temp
  6402     04F7                     i1l3126:
  6403     04F7  0833               	movf	i1___flmul@temp,w
  6404     04F8  00F9               	movwf	??i1___flmul
  6405     04F9  0834               	movf	i1___flmul@temp+1,w
  6406     04FA  00FA               	movwf	??i1___flmul+1
  6407     04FB  01FB               	clrf	??i1___flmul+2
  6408     04FC  01FC               	clrf	??i1___flmul+3
  6409     04FD  0879               	movf	??i1___flmul,w
  6410     04FE  07A9               	addwf	i1___flmul@grs,f
  6411     04FF  087A               	movf	??i1___flmul+1,w
  6412     0500  1103               	clrz
  6413     0501  1803               	skipnc
  6414     0502  3E01               	addlw	1
  6415     0503  1903               	skipnz
  6416     0504  2D06               	goto	u542_21
  6417     0505  07AA               	addwf	i1___flmul@grs+1,f
  6418     0506                     u542_21:
  6419     0506  087B               	movf	??i1___flmul+2,w
  6420     0507  1103               	clrz
  6421     0508  1803               	skipnc
  6422     0509  3E01               	addlw	1
  6423     050A  1903               	skipnz
  6424     050B  2D0D               	goto	u542_22
  6425     050C  07AB               	addwf	i1___flmul@grs+2,f
  6426     050D                     u542_22:
  6427     050D  087C               	movf	??i1___flmul+3,w
  6428     050E  1103               	clrz
  6429     050F  1803               	skipnc
  6430     0510  3E01               	addlw	1
  6431     0511  1903               	skipnz
  6432     0512  2D14               	goto	u542_23
  6433     0513  07AC               	addwf	i1___flmul@grs+3,f
  6434     0514                     u542_23:
  6435     0514                     i1l3128:
  6436     0514  0821               	movf	i1___flmul@b+1,w
  6437     0515  00F0               	movwf	i1__Umul8_16@multiplicand
  6438     0516  0826               	movf	i1___flmul@a+2,w
  6439     0517  160A  118A  2285  120A  118A  	fcall	i1__Umul8_16
  6440     051C  0871               	movf	?i1__Umul8_16+1,w
  6441     051D  1283               	bcf	3,5	;RP0=0, select bank0
  6442     051E  1303               	bcf	3,6	;RP1=0, select bank0
  6443     051F  00B4               	movwf	i1___flmul@temp+1
  6444     0520  0870               	movf	?i1__Umul8_16,w
  6445     0521  00B3               	movwf	i1___flmul@temp
  6446     0522  0833               	movf	i1___flmul@temp,w
  6447     0523  00F9               	movwf	??i1___flmul
  6448     0524  0834               	movf	i1___flmul@temp+1,w
  6449     0525  00FA               	movwf	??i1___flmul+1
  6450     0526  01FB               	clrf	??i1___flmul+2
  6451     0527  01FC               	clrf	??i1___flmul+3
  6452     0528  0879               	movf	??i1___flmul,w
  6453     0529  07AF               	addwf	i1___flmul@prod,f
  6454     052A  087A               	movf	??i1___flmul+1,w
  6455     052B  1103               	clrz
  6456     052C  1803               	skipnc
  6457     052D  3E01               	addlw	1
  6458     052E  1903               	skipnz
  6459     052F  2D31               	goto	u543_21
  6460     0530  07B0               	addwf	i1___flmul@prod+1,f
  6461     0531                     u543_21:
  6462     0531  087B               	movf	??i1___flmul+2,w
  6463     0532  1103               	clrz
  6464     0533  1803               	skipnc
  6465     0534  3E01               	addlw	1
  6466     0535  1903               	skipnz
  6467     0536  2D38               	goto	u543_22
  6468     0537  07B1               	addwf	i1___flmul@prod+2,f
  6469     0538                     u543_22:
  6470     0538  087C               	movf	??i1___flmul+3,w
  6471     0539  1103               	clrz
  6472     053A  1803               	skipnc
  6473     053B  3E01               	addlw	1
  6474     053C  1903               	skipnz
  6475     053D  2D3F               	goto	u543_23
  6476     053E  07B2               	addwf	i1___flmul@prod+3,f
  6477     053F                     u543_23:
  6478     053F                     i1l3130:
  6479     053F  0822               	movf	i1___flmul@b+2,w
  6480     0540  00F0               	movwf	i1__Umul8_16@multiplicand
  6481     0541  0825               	movf	i1___flmul@a+1,w
  6482     0542  160A  118A  2285  120A  118A  	fcall	i1__Umul8_16
  6483     0547  0871               	movf	?i1__Umul8_16+1,w
  6484     0548  1283               	bcf	3,5	;RP0=0, select bank0
  6485     0549  1303               	bcf	3,6	;RP1=0, select bank0
  6486     054A  00B4               	movwf	i1___flmul@temp+1
  6487     054B  0870               	movf	?i1__Umul8_16,w
  6488     054C  00B3               	movwf	i1___flmul@temp
  6489     054D                     i1l3132:
  6490     054D  0833               	movf	i1___flmul@temp,w
  6491     054E  00F9               	movwf	??i1___flmul
  6492     054F  0834               	movf	i1___flmul@temp+1,w
  6493     0550  00FA               	movwf	??i1___flmul+1
  6494     0551  01FB               	clrf	??i1___flmul+2
  6495     0552  01FC               	clrf	??i1___flmul+3
  6496     0553  0879               	movf	??i1___flmul,w
  6497     0554  07AF               	addwf	i1___flmul@prod,f
  6498     0555  087A               	movf	??i1___flmul+1,w
  6499     0556  1103               	clrz
  6500     0557  1803               	skipnc
  6501     0558  3E01               	addlw	1
  6502     0559  1903               	skipnz
  6503     055A  2D5C               	goto	u544_21
  6504     055B  07B0               	addwf	i1___flmul@prod+1,f
  6505     055C                     u544_21:
  6506     055C  087B               	movf	??i1___flmul+2,w
  6507     055D  1103               	clrz
  6508     055E  1803               	skipnc
  6509     055F  3E01               	addlw	1
  6510     0560  1903               	skipnz
  6511     0561  2D63               	goto	u544_22
  6512     0562  07B1               	addwf	i1___flmul@prod+2,f
  6513     0563                     u544_22:
  6514     0563  087C               	movf	??i1___flmul+3,w
  6515     0564  1103               	clrz
  6516     0565  1803               	skipnc
  6517     0566  3E01               	addlw	1
  6518     0567  1903               	skipnz
  6519     0568  2D6A               	goto	u544_23
  6520     0569  07B2               	addwf	i1___flmul@prod+3,f
  6521     056A                     u544_23:
  6522     056A  0822               	movf	i1___flmul@b+2,w
  6523     056B  00F0               	movwf	i1__Umul8_16@multiplicand
  6524     056C  0826               	movf	i1___flmul@a+2,w
  6525     056D  160A  118A  2285  120A  118A  	fcall	i1__Umul8_16
  6526     0572  0871               	movf	?i1__Umul8_16+1,w
  6527     0573  1283               	bcf	3,5	;RP0=0, select bank0
  6528     0574  1303               	bcf	3,6	;RP1=0, select bank0
  6529     0575  00B4               	movwf	i1___flmul@temp+1
  6530     0576  0870               	movf	?i1__Umul8_16,w
  6531     0577  00B3               	movwf	i1___flmul@temp
  6532     0578                     i1l3134:
  6533     0578  0833               	movf	i1___flmul@temp,w
  6534     0579  00F9               	movwf	??i1___flmul
  6535     057A  0834               	movf	i1___flmul@temp+1,w
  6536     057B  00FA               	movwf	??i1___flmul+1
  6537     057C  01FB               	clrf	??i1___flmul+2
  6538     057D  01FC               	clrf	??i1___flmul+3
  6539     057E  3008               	movlw	8
  6540     057F                     u545_25:
  6541     057F  1003               	clrc
  6542     0580  0DF9               	rlf	??i1___flmul,f
  6543     0581  0DFA               	rlf	??i1___flmul+1,f
  6544     0582  0DFB               	rlf	??i1___flmul+2,f
  6545     0583  0DFC               	rlf	??i1___flmul+3,f
  6546     0584                     u545_20:
  6547     0584  3EFF               	addlw	-1
  6548     0585  1D03               	skipz
  6549     0586  2D7F               	goto	u545_25
  6550     0587  0879               	movf	??i1___flmul,w
  6551     0588  07AF               	addwf	i1___flmul@prod,f
  6552     0589  087A               	movf	??i1___flmul+1,w
  6553     058A  1103               	clrz
  6554     058B  1803               	skipnc
  6555     058C  3E01               	addlw	1
  6556     058D  1903               	skipnz
  6557     058E  2D90               	goto	u546_21
  6558     058F  07B0               	addwf	i1___flmul@prod+1,f
  6559     0590                     u546_21:
  6560     0590  087B               	movf	??i1___flmul+2,w
  6561     0591  1103               	clrz
  6562     0592  1803               	skipnc
  6563     0593  3E01               	addlw	1
  6564     0594  1903               	skipnz
  6565     0595  2D97               	goto	u546_22
  6566     0596  07B1               	addwf	i1___flmul@prod+2,f
  6567     0597                     u546_22:
  6568     0597  087C               	movf	??i1___flmul+3,w
  6569     0598  1103               	clrz
  6570     0599  1803               	skipnc
  6571     059A  3E01               	addlw	1
  6572     059B  1903               	skipnz
  6573     059C  2D9E               	goto	u546_23
  6574     059D  07B2               	addwf	i1___flmul@prod+3,f
  6575     059E                     u546_23:
  6576     059E                     i1l3136:
  6577     059E  0829               	movf	i1___flmul@grs,w
  6578     059F  00F9               	movwf	??i1___flmul
  6579     05A0  082A               	movf	i1___flmul@grs+1,w
  6580     05A1  00FA               	movwf	??i1___flmul+1
  6581     05A2  082B               	movf	i1___flmul@grs+2,w
  6582     05A3  00FB               	movwf	??i1___flmul+2
  6583     05A4  082C               	movf	i1___flmul@grs+3,w
  6584     05A5  00FC               	movwf	??i1___flmul+3
  6585     05A6  3018               	movlw	24
  6586     05A7                     u547_25:
  6587     05A7  1003               	clrc
  6588     05A8  0CFC               	rrf	??i1___flmul+3,f
  6589     05A9  0CFB               	rrf	??i1___flmul+2,f
  6590     05AA  0CFA               	rrf	??i1___flmul+1,f
  6591     05AB  0CF9               	rrf	??i1___flmul,f
  6592     05AC                     u547_20:
  6593     05AC  3EFF               	addlw	-1
  6594     05AD  1D03               	skipz
  6595     05AE  2DA7               	goto	u547_25
  6596     05AF  0879               	movf	??i1___flmul,w
  6597     05B0  07AF               	addwf	i1___flmul@prod,f
  6598     05B1  087A               	movf	??i1___flmul+1,w
  6599     05B2  1103               	clrz
  6600     05B3  1803               	skipnc
  6601     05B4  3E01               	addlw	1
  6602     05B5  1903               	skipnz
  6603     05B6  2DB8               	goto	u548_21
  6604     05B7  07B0               	addwf	i1___flmul@prod+1,f
  6605     05B8                     u548_21:
  6606     05B8  087B               	movf	??i1___flmul+2,w
  6607     05B9  1103               	clrz
  6608     05BA  1803               	skipnc
  6609     05BB  3E01               	addlw	1
  6610     05BC  1903               	skipnz
  6611     05BD  2DBF               	goto	u548_22
  6612     05BE  07B1               	addwf	i1___flmul@prod+2,f
  6613     05BF                     u548_22:
  6614     05BF  087C               	movf	??i1___flmul+3,w
  6615     05C0  1103               	clrz
  6616     05C1  1803               	skipnc
  6617     05C2  3E01               	addlw	1
  6618     05C3  1903               	skipnz
  6619     05C4  2DC6               	goto	u548_23
  6620     05C5  07B2               	addwf	i1___flmul@prod+3,f
  6621     05C6                     u548_23:
  6622     05C6                     i1l3138:
  6623     05C6  3008               	movlw	8
  6624     05C7  00F9               	movwf	??i1___flmul
  6625     05C8                     u549_25:
  6626     05C8  1003               	clrc
  6627     05C9  0DA9               	rlf	i1___flmul@grs,f
  6628     05CA  0DAA               	rlf	i1___flmul@grs+1,f
  6629     05CB  0DAB               	rlf	i1___flmul@grs+2,f
  6630     05CC  0DAC               	rlf	i1___flmul@grs+3,f
  6631     05CD  0BF9               	decfsz	??i1___flmul,f
  6632     05CE  2DC8               	goto	u549_25
  6633     05CF                     i1l3140:
  6634     05CF  082E               	movf	i1___flmul@bexp,w
  6635     05D0  072D               	addwf	i1___flmul@aexp,w
  6636     05D1  00F9               	movwf	??i1___flmul
  6637     05D2  01FA               	clrf	??i1___flmul+1
  6638     05D3  0DFA               	rlf	??i1___flmul+1,f
  6639     05D4  0879               	movf	??i1___flmul,w
  6640     05D5  3E82               	addlw	130
  6641     05D6  00B3               	movwf	i1___flmul@temp
  6642     05D7  087A               	movf	??i1___flmul+1,w
  6643     05D8  1803               	skipnc
  6644     05D9  3E01               	addlw	1
  6645     05DA  3EFF               	addlw	255
  6646     05DB  00B4               	movwf	i1___flmul@temp+1
  6647     05DC  2DFA               	goto	i1l3152
  6648     05DD                     i1l3142:
  6649     05DD  3001               	movlw	1
  6650     05DE  00F9               	movwf	??i1___flmul
  6651     05DF                     u550_25:
  6652     05DF  1003               	clrc
  6653     05E0  0DAF               	rlf	i1___flmul@prod,f
  6654     05E1  0DB0               	rlf	i1___flmul@prod+1,f
  6655     05E2  0DB1               	rlf	i1___flmul@prod+2,f
  6656     05E3  0DB2               	rlf	i1___flmul@prod+3,f
  6657     05E4  0BF9               	decfsz	??i1___flmul,f
  6658     05E5  2DDF               	goto	u550_25
  6659     05E6                     i1l3144:
  6660     05E6  1FAC               	btfss	i1___flmul@grs+3,7
  6661     05E7  2DE9               	goto	u551_21
  6662     05E8  2DEA               	goto	u551_20
  6663     05E9                     u551_21:
  6664     05E9  2DEB               	goto	i1l3148
  6665     05EA                     u551_20:
  6666     05EA                     i1l3146:
  6667     05EA  142F               	bsf	i1___flmul@prod,0
  6668     05EB                     i1l3148:
  6669     05EB  3001               	movlw	1
  6670     05EC  00F9               	movwf	??i1___flmul
  6671     05ED                     u552_25:
  6672     05ED  1003               	clrc
  6673     05EE  0DA9               	rlf	i1___flmul@grs,f
  6674     05EF  0DAA               	rlf	i1___flmul@grs+1,f
  6675     05F0  0DAB               	rlf	i1___flmul@grs+2,f
  6676     05F1  0DAC               	rlf	i1___flmul@grs+3,f
  6677     05F2  0BF9               	decfsz	??i1___flmul,f
  6678     05F3  2DED               	goto	u552_25
  6679     05F4                     i1l3150:
  6680     05F4  30FF               	movlw	255
  6681     05F5  07B3               	addwf	i1___flmul@temp,f
  6682     05F6  1803               	skipnc
  6683     05F7  0AB4               	incf	i1___flmul@temp+1,f
  6684     05F8  30FF               	movlw	255
  6685     05F9  07B4               	addwf	i1___flmul@temp+1,f
  6686     05FA                     i1l3152:
  6687     05FA  1FB1               	btfss	i1___flmul@prod+2,7
  6688     05FB  2DFD               	goto	u553_21
  6689     05FC  2DFE               	goto	u553_20
  6690     05FD                     u553_21:
  6691     05FD  2DDD               	goto	i1l3142
  6692     05FE                     u553_20:
  6693     05FE                     i1l3154:
  6694     05FE  01AD               	clrf	i1___flmul@aexp
  6695     05FF                     i1l3156:
  6696     05FF  1FAC               	btfss	i1___flmul@grs+3,7
  6697     0600  2E02               	goto	u554_21
  6698     0601  2E03               	goto	u554_20
  6699     0602                     u554_21:
  6700     0602  2E1F               	goto	i1l3164
  6701     0603                     u554_20:
  6702     0603                     i1l3158:
  6703     0603  30FF               	movlw	255
  6704     0604  0529               	andwf	i1___flmul@grs,w
  6705     0605  00F9               	movwf	??i1___flmul
  6706     0606  30FF               	movlw	255
  6707     0607  052A               	andwf	i1___flmul@grs+1,w
  6708     0608  00FA               	movwf	??i1___flmul+1
  6709     0609  30FF               	movlw	255
  6710     060A  052B               	andwf	i1___flmul@grs+2,w
  6711     060B  00FB               	movwf	??i1___flmul+2
  6712     060C  307F               	movlw	127
  6713     060D  052C               	andwf	i1___flmul@grs+3,w
  6714     060E  00FC               	movwf	??i1___flmul+3
  6715     060F  087C               	movf	??i1___flmul+3,w
  6716     0610  047B               	iorwf	??i1___flmul+2,w
  6717     0611  047A               	iorwf	??i1___flmul+1,w
  6718     0612  0479               	iorwf	??i1___flmul,w
  6719     0613  1903               	skipnz
  6720     0614  2E16               	goto	u555_21
  6721     0615  2E17               	goto	u555_20
  6722     0616                     u555_21:
  6723     0616  2E1A               	goto	i1l605
  6724     0617                     u555_20:
  6725     0617                     i1l3160:
  6726     0617  01AD               	clrf	i1___flmul@aexp
  6727     0618  0AAD               	incf	i1___flmul@aexp,f
  6728     0619  2E1F               	goto	i1l3164
  6729     061A                     i1l605:
  6730     061A  1C2F               	btfss	i1___flmul@prod,0
  6731     061B  2E1D               	goto	u556_21
  6732     061C  2E1E               	goto	u556_20
  6733     061D                     u556_21:
  6734     061D  2E1F               	goto	i1l3164
  6735     061E                     u556_20:
  6736     061E  2E17               	goto	i1l3160
  6737     061F                     i1l3164:
  6738     061F  082D               	movf	i1___flmul@aexp,w
  6739     0620  1903               	btfsc	3,2
  6740     0621  2E23               	goto	u557_21
  6741     0622  2E24               	goto	u557_20
  6742     0623                     u557_21:
  6743     0623  2E55               	goto	i1l3174
  6744     0624                     u557_20:
  6745     0624                     i1l3166:
  6746     0624  3001               	movlw	1
  6747     0625  07AF               	addwf	i1___flmul@prod,f
  6748     0626  3000               	movlw	0
  6749     0627  1803               	skipnc
  6750     0628  3001               	movlw	1
  6751     0629  07B0               	addwf	i1___flmul@prod+1,f
  6752     062A  3000               	movlw	0
  6753     062B  1803               	skipnc
  6754     062C  3001               	movlw	1
  6755     062D  07B1               	addwf	i1___flmul@prod+2,f
  6756     062E  3000               	movlw	0
  6757     062F  1803               	skipnc
  6758     0630  3001               	movlw	1
  6759     0631  07B2               	addwf	i1___flmul@prod+3,f
  6760     0632                     i1l3168:
  6761     0632  1C32               	btfss	i1___flmul@prod+3,0
  6762     0633  2E35               	goto	u558_21
  6763     0634  2E36               	goto	u558_20
  6764     0635                     u558_21:
  6765     0635  2E55               	goto	i1l3174
  6766     0636                     u558_20:
  6767     0636                     i1l3170:
  6768     0636  082F               	movf	i1___flmul@prod,w
  6769     0637  00F9               	movwf	??i1___flmul
  6770     0638  0830               	movf	i1___flmul@prod+1,w
  6771     0639  00FA               	movwf	??i1___flmul+1
  6772     063A  0831               	movf	i1___flmul@prod+2,w
  6773     063B  00FB               	movwf	??i1___flmul+2
  6774     063C  0832               	movf	i1___flmul@prod+3,w
  6775     063D  00FC               	movwf	??i1___flmul+3
  6776     063E  3001               	movlw	1
  6777     063F  00FD               	movwf	??i1___flmul+4
  6778     0640                     u559_25:
  6779     0640  0D7C               	rlf	??i1___flmul+3,w
  6780     0641  0CFC               	rrf	??i1___flmul+3,f
  6781     0642  0CFB               	rrf	??i1___flmul+2,f
  6782     0643  0CFA               	rrf	??i1___flmul+1,f
  6783     0644  0CF9               	rrf	??i1___flmul,f
  6784     0645                     u559_20:
  6785     0645  0BFD               	decfsz	??i1___flmul+4,f
  6786     0646  2E40               	goto	u559_25
  6787     0647  087C               	movf	??i1___flmul+3,w
  6788     0648  00B2               	movwf	i1___flmul@prod+3
  6789     0649  087B               	movf	??i1___flmul+2,w
  6790     064A  00B1               	movwf	i1___flmul@prod+2
  6791     064B  087A               	movf	??i1___flmul+1,w
  6792     064C  00B0               	movwf	i1___flmul@prod+1
  6793     064D  0879               	movf	??i1___flmul,w
  6794     064E  00AF               	movwf	i1___flmul@prod
  6795     064F                     i1l3172:
  6796     064F  3001               	movlw	1
  6797     0650  07B3               	addwf	i1___flmul@temp,f
  6798     0651  1803               	skipnc
  6799     0652  0AB4               	incf	i1___flmul@temp+1,f
  6800     0653  3000               	movlw	0
  6801     0654  07B4               	addwf	i1___flmul@temp+1,f
  6802     0655                     i1l3174:
  6803     0655  0834               	movf	i1___flmul@temp+1,w
  6804     0656  3A80               	xorlw	128
  6805     0657  00FF               	movwf	btemp+1
  6806     0658  3080               	movlw	128
  6807     0659  027F               	subwf	btemp+1,w
  6808     065A  1D03               	skipz
  6809     065B  2E5E               	goto	u560_25
  6810     065C  30FF               	movlw	255
  6811     065D  0233               	subwf	i1___flmul@temp,w
  6812     065E                     u560_25:
  6813     065E  1C03               	skipc
  6814     065F  2E61               	goto	u560_21
  6815     0660  2E62               	goto	u560_20
  6816     0661                     u560_21:
  6817     0661  2E6D               	goto	i1l3178
  6818     0662                     u560_20:
  6819     0662                     i1l3176:
  6820     0662  307F               	movlw	127
  6821     0663  1283               	bcf	3,5	;RP0=0, select bank0
  6822     0664  1303               	bcf	3,6	;RP1=0, select bank0
  6823     0665  00B2               	movwf	i1___flmul@prod+3
  6824     0666  3080               	movlw	128
  6825     0667  00B1               	movwf	i1___flmul@prod+2
  6826     0668  3000               	movlw	0
  6827     0669  00B0               	movwf	i1___flmul@prod+1
  6828     066A  3000               	movlw	0
  6829     066B  00AF               	movwf	i1___flmul@prod
  6830     066C  2E9E               	goto	i1l611
  6831     066D                     i1l3178:
  6832     066D  1283               	bcf	3,5	;RP0=0, select bank0
  6833     066E  1303               	bcf	3,6	;RP1=0, select bank0
  6834     066F  0834               	movf	i1___flmul@temp+1,w
  6835     0670  3A80               	xorlw	128
  6836     0671  00FF               	movwf	btemp+1
  6837     0672  3080               	movlw	128
  6838     0673  027F               	subwf	btemp+1,w
  6839     0674  1D03               	skipz
  6840     0675  2E78               	goto	u561_25
  6841     0676  3001               	movlw	1
  6842     0677  0233               	subwf	i1___flmul@temp,w
  6843     0678                     u561_25:
  6844     0678  1803               	skipnc
  6845     0679  2E7B               	goto	u561_21
  6846     067A  2E7C               	goto	u561_20
  6847     067B                     u561_21:
  6848     067B  2E88               	goto	i1l3184
  6849     067C                     u561_20:
  6850     067C                     i1l3180:
  6851     067C  3000               	movlw	0
  6852     067D  1283               	bcf	3,5	;RP0=0, select bank0
  6853     067E  1303               	bcf	3,6	;RP1=0, select bank0
  6854     067F  00B2               	movwf	i1___flmul@prod+3
  6855     0680  3000               	movlw	0
  6856     0681  00B1               	movwf	i1___flmul@prod+2
  6857     0682  3000               	movlw	0
  6858     0683  00B0               	movwf	i1___flmul@prod+1
  6859     0684  3000               	movlw	0
  6860     0685  00AF               	movwf	i1___flmul@prod
  6861     0686                     i1l3182:
  6862     0686  01A8               	clrf	i1___flmul@sign
  6863     0687  2E9E               	goto	i1l611
  6864     0688                     i1l3184:
  6865     0688  1283               	bcf	3,5	;RP0=0, select bank0
  6866     0689  1303               	bcf	3,6	;RP1=0, select bank0
  6867     068A  0833               	movf	i1___flmul@temp,w
  6868     068B  00AE               	movwf	i1___flmul@bexp
  6869     068C  30FF               	movlw	255
  6870     068D  05AF               	andwf	i1___flmul@prod,f
  6871     068E  30FF               	movlw	255
  6872     068F  05B0               	andwf	i1___flmul@prod+1,f
  6873     0690  307F               	movlw	127
  6874     0691  05B1               	andwf	i1___flmul@prod+2,f
  6875     0692  3000               	movlw	0
  6876     0693  05B2               	andwf	i1___flmul@prod+3,f
  6877     0694                     i1l3186:
  6878     0694  1C2E               	btfss	i1___flmul@bexp,0
  6879     0695  2E97               	goto	u562_21
  6880     0696  2E98               	goto	u562_20
  6881     0697                     u562_21:
  6882     0697  2E99               	goto	i1l3190
  6883     0698                     u562_20:
  6884     0698                     i1l3188:
  6885     0698  17B1               	bsf	i1___flmul@prod+2,7
  6886     0699                     i1l3190:
  6887     0699  082E               	movf	i1___flmul@bexp,w
  6888     069A  00F9               	movwf	??i1___flmul
  6889     069B  1003               	clrc
  6890     069C  0C79               	rrf	??i1___flmul,w
  6891     069D  00B2               	movwf	i1___flmul@prod+3
  6892     069E                     i1l611:
  6893     069E  0828               	movf	i1___flmul@sign,w
  6894     069F  00F9               	movwf	??i1___flmul
  6895     06A0  0879               	movf	??i1___flmul,w
  6896     06A1  04B2               	iorwf	i1___flmul@prod+3,f
  6897     06A2                     i1l3192:
  6898     06A2  0832               	movf	i1___flmul@prod+3,w
  6899     06A3  00A3               	movwf	?i1___flmul+3
  6900     06A4  0831               	movf	i1___flmul@prod+2,w
  6901     06A5  00A2               	movwf	?i1___flmul+2
  6902     06A6  0830               	movf	i1___flmul@prod+1,w
  6903     06A7  00A1               	movwf	?i1___flmul+1
  6904     06A8  082F               	movf	i1___flmul@prod,w
  6905     06A9  00A0               	movwf	?i1___flmul
  6906     06AA                     i1l599:
  6907     06AA  0008               	return
  6908     06AB                     __end_ofi1___flmul:
  6909                           
  6910                           	psect	text16
  6911     1285                     __ptext16:	
  6912 ;; *************** function i1__Umul8_16 *****************
  6913 ;; Defined at:
  6914 ;;		line 4 in file "C:\Program Files\Microchip\xc8\v2.40\pic\sources\c90\common\Umul8_16.c"
  6915 ;; Parameters:    Size  Location     Type
  6916 ;;  multiplier      1    wreg     unsigned char 
  6917 ;;  multiplicand    1    0[COMMON] unsigned char 
  6918 ;; Auto vars:     Size  Location     Type
  6919 ;;  multiplier      1    8[COMMON] unsigned char 
  6920 ;;  word_mpld       2    6[COMMON] unsigned int 
  6921 ;;  product         2    4[COMMON] unsigned int 
  6922 ;; Return value:  Size  Location     Type
  6923 ;;                  2    0[COMMON] unsigned int 
  6924 ;; Registers used:
  6925 ;;		wreg, status,2, status,0
  6926 ;; Tracked objects:
  6927 ;;		On entry : 0/0
  6928 ;;		On exit  : 0/0
  6929 ;;		Unchanged: 0/0
  6930 ;; Data sizes:     COMMON   BANK0   BANK1   BANK3   BANK2
  6931 ;;      Params:         2       0       0       0       0
  6932 ;;      Locals:         5       0       0       0       0
  6933 ;;      Temps:          2       0       0       0       0
  6934 ;;      Totals:         9       0       0       0       0
  6935 ;;Total ram usage:        9 bytes
  6936 ;; Hardware stack levels used: 1
  6937 ;; This function calls:
  6938 ;;		Nothing
  6939 ;; This function is called by:
  6940 ;;		i1___flmul
  6941 ;; This function uses a non-reentrant model
  6942 ;;
  6943                           
  6944     1285                     i1__Umul8_16:	
  6945                           ;psect for function i1__Umul8_16
  6946                           
  6947                           
  6948                           ;incstack = 0
  6949                           ; Regs used in i1__Umul8_16: [wreg+status,2+status,0]
  6950                           ;i1__Umul8_16@multiplier stored from wreg
  6951     1285  00F8               	movwf	i1__Umul8_16@multiplier
  6952     1286                     i1l2572:
  6953     1286  01F4               	clrf	i1__Umul8_16@product
  6954     1287  01F5               	clrf	i1__Umul8_16@product+1
  6955     1288                     i1l2574:
  6956     1288  0870               	movf	i1__Umul8_16@multiplicand,w
  6957     1289  00F2               	movwf	??i1__Umul8_16
  6958     128A  01F3               	clrf	??i1__Umul8_16+1
  6959     128B  0872               	movf	??i1__Umul8_16,w
  6960     128C  00F6               	movwf	i1__Umul8_16@word_mpld
  6961     128D  0873               	movf	??i1__Umul8_16+1,w
  6962     128E  00F7               	movwf	i1__Umul8_16@word_mpld+1
  6963     128F                     i1l2576:
  6964     128F  1C78               	btfss	i1__Umul8_16@multiplier,0
  6965     1290  2A92               	goto	u421_21
  6966     1291  2A93               	goto	u421_20
  6967     1292                     u421_21:
  6968     1292  2A99               	goto	i1l618
  6969     1293                     u421_20:
  6970     1293                     i1l2578:
  6971     1293  0876               	movf	i1__Umul8_16@word_mpld,w
  6972     1294  07F4               	addwf	i1__Umul8_16@product,f
  6973     1295  1803               	skipnc
  6974     1296  0AF5               	incf	i1__Umul8_16@product+1,f
  6975     1297  0877               	movf	i1__Umul8_16@word_mpld+1,w
  6976     1298  07F5               	addwf	i1__Umul8_16@product+1,f
  6977     1299                     i1l618:
  6978     1299  3001               	movlw	1
  6979     129A                     u422_25:
  6980     129A  1003               	clrc
  6981     129B  0DF6               	rlf	i1__Umul8_16@word_mpld,f
  6982     129C  0DF7               	rlf	i1__Umul8_16@word_mpld+1,f
  6983     129D  3EFF               	addlw	-1
  6984     129E  1D03               	skipz
  6985     129F  2A9A               	goto	u422_25
  6986     12A0  1003               	clrc
  6987     12A1  0CF8               	rrf	i1__Umul8_16@multiplier,f
  6988     12A2                     i1l2580:
  6989     12A2  0878               	movf	i1__Umul8_16@multiplier,w
  6990     12A3  1D03               	btfss	3,2
  6991     12A4  2AA6               	goto	u423_21
  6992     12A5  2AA7               	goto	u423_20
  6993     12A6                     u423_21:
  6994     12A6  2A8F               	goto	i1l2576
  6995     12A7                     u423_20:
  6996     12A7                     i1l2582:
  6997     12A7  0875               	movf	i1__Umul8_16@product+1,w
  6998     12A8  00F1               	movwf	?i1__Umul8_16+1
  6999     12A9  0874               	movf	i1__Umul8_16@product,w
  7000     12AA  00F0               	movwf	?i1__Umul8_16
  7001     12AB                     i1l620:
  7002     12AB  0008               	return
  7003     12AC                     __end_ofi1__Umul8_16:
  7004                           
  7005                           	psect	text17
  7006     162D                     __ptext17:	
  7007 ;; *************** function i1___fldiv *****************
  7008 ;; Defined at:
  7009 ;;		line 8 in file "C:\Program Files\Microchip\xc8\v2.40\pic\sources\c90\common\sprcdiv.c"
  7010 ;; Parameters:    Size  Location     Type
  7011 ;;  a               4   21[BANK0 ] unsigned int 
  7012 ;;  b               4   25[BANK0 ] unsigned int 
  7013 ;; Auto vars:     Size  Location     Type
  7014 ;;  grs             4   41[BANK0 ] unsigned long 
  7015 ;;  rem             4   34[BANK0 ] unsigned long 
  7016 ;;  new_exp         2   39[BANK0 ] int 
  7017 ;;  aexp            1   46[BANK0 ] unsigned char 
  7018 ;;  bexp            1   45[BANK0 ] unsigned char 
  7019 ;;  sign            1   38[BANK0 ] unsigned char 
  7020 ;; Return value:  Size  Location     Type
  7021 ;;                  4   21[BANK0 ] unsigned char 
  7022 ;; Registers used:
  7023 ;;		wreg, status,2, status,0, btemp+1
  7024 ;; Tracked objects:
  7025 ;;		On entry : 0/0
  7026 ;;		On exit  : 0/0
  7027 ;;		Unchanged: 0/0
  7028 ;; Data sizes:     COMMON   BANK0   BANK1   BANK3   BANK2
  7029 ;;      Params:         0       8       0       0       0
  7030 ;;      Locals:         0      13       0       0       0
  7031 ;;      Temps:          0       5       0       0       0
  7032 ;;      Totals:         0      26       0       0       0
  7033 ;;Total ram usage:       26 bytes
  7034 ;; Hardware stack levels used: 1
  7035 ;; This function calls:
  7036 ;;		Nothing
  7037 ;; This function is called by:
  7038 ;;		_PWM_DUTY
  7039 ;; This function uses a non-reentrant model
  7040 ;;
  7041                           
  7042     162D                     i1___fldiv:	
  7043                           ;psect for function i1___fldiv
  7044                           
  7045     162D                     i1l2914:	
  7046                           ;incstack = 0
  7047                           ; Regs used in i1___fldiv: [wreg+status,2+status,0+btemp+1]
  7048                           
  7049     162D  1283               	bcf	3,5	;RP0=0, select bank0
  7050     162E  1303               	bcf	3,6	;RP1=0, select bank0
  7051     162F  083C               	movf	i1___fldiv@b+3,w
  7052     1630  3980               	andlw	128
  7053     1631  00C6               	movwf	i1___fldiv@sign
  7054     1632                     i1l2916:
  7055     1632  083C               	movf	i1___fldiv@b+3,w
  7056     1633  00BD               	movwf	??i1___fldiv
  7057     1634  073D               	addwf	??i1___fldiv,w
  7058     1635  00CD               	movwf	i1___fldiv@bexp
  7059     1636                     i1l2918:
  7060     1636  1FBB               	btfss	i1___fldiv@b+2,7
  7061     1637  2E39               	goto	u497_21
  7062     1638  2E3A               	goto	u497_20
  7063     1639                     u497_21:
  7064     1639  2E3B               	goto	i1l2922
  7065     163A                     u497_20:
  7066     163A                     i1l2920:
  7067     163A  144D               	bsf	i1___fldiv@bexp,0
  7068     163B                     i1l2922:
  7069     163B  084D               	movf	i1___fldiv@bexp,w
  7070     163C  1903               	btfsc	3,2
  7071     163D  2E3F               	goto	u498_21
  7072     163E  2E40               	goto	u498_20
  7073     163F                     u498_21:
  7074     163F  2E50               	goto	i1l2932
  7075     1640                     u498_20:
  7076     1640                     i1l2924:
  7077     1640  0A4D               	incf	i1___fldiv@bexp,w
  7078     1641  1D03               	btfss	3,2
  7079     1642  2E44               	goto	u499_21
  7080     1643  2E45               	goto	u499_20
  7081     1644                     u499_21:
  7082     1644  2E4D               	goto	i1l2928
  7083     1645                     u499_20:
  7084     1645                     i1l2926:
  7085     1645  3000               	movlw	0
  7086     1646  00BC               	movwf	i1___fldiv@b+3
  7087     1647  3000               	movlw	0
  7088     1648  00BB               	movwf	i1___fldiv@b+2
  7089     1649  3000               	movlw	0
  7090     164A  00BA               	movwf	i1___fldiv@b+1
  7091     164B  3000               	movlw	0
  7092     164C  00B9               	movwf	i1___fldiv@b
  7093     164D                     i1l2928:
  7094     164D  17BB               	bsf	i1___fldiv@b+2,7
  7095     164E                     i1l2930:
  7096     164E  01BC               	clrf	i1___fldiv@b+3
  7097     164F  2E58               	goto	i1l2934
  7098     1650                     i1l2932:
  7099     1650  3000               	movlw	0
  7100     1651  00BC               	movwf	i1___fldiv@b+3
  7101     1652  3000               	movlw	0
  7102     1653  00BB               	movwf	i1___fldiv@b+2
  7103     1654  3000               	movlw	0
  7104     1655  00BA               	movwf	i1___fldiv@b+1
  7105     1656  3000               	movlw	0
  7106     1657  00B9               	movwf	i1___fldiv@b
  7107     1658                     i1l2934:
  7108     1658  0838               	movf	i1___fldiv@a+3,w
  7109     1659  3980               	andlw	128
  7110     165A  00BD               	movwf	??i1___fldiv
  7111     165B  083D               	movf	??i1___fldiv,w
  7112     165C  06C6               	xorwf	i1___fldiv@sign,f
  7113     165D                     i1l2936:
  7114     165D  0838               	movf	i1___fldiv@a+3,w
  7115     165E  00BD               	movwf	??i1___fldiv
  7116     165F  073D               	addwf	??i1___fldiv,w
  7117     1660  00CE               	movwf	i1___fldiv@aexp
  7118     1661                     i1l2938:
  7119     1661  1FB7               	btfss	i1___fldiv@a+2,7
  7120     1662  2E64               	goto	u500_21
  7121     1663  2E65               	goto	u500_20
  7122     1664                     u500_21:
  7123     1664  2E66               	goto	i1l2942
  7124     1665                     u500_20:
  7125     1665                     i1l2940:
  7126     1665  144E               	bsf	i1___fldiv@aexp,0
  7127     1666                     i1l2942:
  7128     1666  084E               	movf	i1___fldiv@aexp,w
  7129     1667  1903               	btfsc	3,2
  7130     1668  2E6A               	goto	u501_21
  7131     1669  2E6B               	goto	u501_20
  7132     166A                     u501_21:
  7133     166A  2E7B               	goto	i1l2952
  7134     166B                     u501_20:
  7135     166B                     i1l2944:
  7136     166B  0A4E               	incf	i1___fldiv@aexp,w
  7137     166C  1D03               	btfss	3,2
  7138     166D  2E6F               	goto	u502_21
  7139     166E  2E70               	goto	u502_20
  7140     166F                     u502_21:
  7141     166F  2E78               	goto	i1l2948
  7142     1670                     u502_20:
  7143     1670                     i1l2946:
  7144     1670  3000               	movlw	0
  7145     1671  00B8               	movwf	i1___fldiv@a+3
  7146     1672  3000               	movlw	0
  7147     1673  00B7               	movwf	i1___fldiv@a+2
  7148     1674  3000               	movlw	0
  7149     1675  00B6               	movwf	i1___fldiv@a+1
  7150     1676  3000               	movlw	0
  7151     1677  00B5               	movwf	i1___fldiv@a
  7152     1678                     i1l2948:
  7153     1678  17B7               	bsf	i1___fldiv@a+2,7
  7154     1679                     i1l2950:
  7155     1679  01B8               	clrf	i1___fldiv@a+3
  7156     167A  2E83               	goto	i1l559
  7157     167B                     i1l2952:
  7158     167B  3000               	movlw	0
  7159     167C  00B8               	movwf	i1___fldiv@a+3
  7160     167D  3000               	movlw	0
  7161     167E  00B7               	movwf	i1___fldiv@a+2
  7162     167F  3000               	movlw	0
  7163     1680  00B6               	movwf	i1___fldiv@a+1
  7164     1681  3000               	movlw	0
  7165     1682  00B5               	movwf	i1___fldiv@a
  7166     1683                     i1l559:
  7167     1683  0838               	movf	i1___fldiv@a+3,w
  7168     1684  0437               	iorwf	i1___fldiv@a+2,w
  7169     1685  0436               	iorwf	i1___fldiv@a+1,w
  7170     1686  0435               	iorwf	i1___fldiv@a,w
  7171     1687  1D03               	skipz
  7172     1688  2E8A               	goto	u503_21
  7173     1689  2E8B               	goto	u503_20
  7174     168A                     u503_21:
  7175     168A  2EA4               	goto	i1l2962
  7176     168B                     u503_20:
  7177     168B                     i1l2954:
  7178     168B  3000               	movlw	0
  7179     168C  00BC               	movwf	i1___fldiv@b+3
  7180     168D  3000               	movlw	0
  7181     168E  00BB               	movwf	i1___fldiv@b+2
  7182     168F  3000               	movlw	0
  7183     1690  00BA               	movwf	i1___fldiv@b+1
  7184     1691  3000               	movlw	0
  7185     1692  00B9               	movwf	i1___fldiv@b
  7186     1693  3080               	movlw	128
  7187     1694  04BB               	iorwf	i1___fldiv@b+2,f
  7188     1695  307F               	movlw	127
  7189     1696  04BC               	iorwf	i1___fldiv@b+3,f
  7190     1697                     i1l2956:
  7191     1697  0846               	movf	i1___fldiv@sign,w
  7192     1698  00BD               	movwf	??i1___fldiv
  7193     1699  083D               	movf	??i1___fldiv,w
  7194     169A  04BC               	iorwf	i1___fldiv@b+3,f
  7195     169B                     i1l2958:
  7196     169B  083C               	movf	i1___fldiv@b+3,w
  7197     169C  00B8               	movwf	?i1___fldiv+3
  7198     169D  083B               	movf	i1___fldiv@b+2,w
  7199     169E  00B7               	movwf	?i1___fldiv+2
  7200     169F  083A               	movf	i1___fldiv@b+1,w
  7201     16A0  00B6               	movwf	?i1___fldiv+1
  7202     16A1  0839               	movf	i1___fldiv@b,w
  7203     16A2  00B5               	movwf	?i1___fldiv
  7204     16A3  2FFF               	goto	i1l561
  7205     16A4                     i1l2962:
  7206     16A4  084D               	movf	i1___fldiv@bexp,w
  7207     16A5  1D03               	btfss	3,2
  7208     16A6  2EA8               	goto	u504_21
  7209     16A7  2EA9               	goto	u504_20
  7210     16A8                     u504_21:
  7211     16A8  2EB2               	goto	i1l2968
  7212     16A9                     u504_20:
  7213     16A9                     i1l2964:
  7214     16A9  3000               	movlw	0
  7215     16AA  00B8               	movwf	?i1___fldiv+3
  7216     16AB  3000               	movlw	0
  7217     16AC  00B7               	movwf	?i1___fldiv+2
  7218     16AD  3000               	movlw	0
  7219     16AE  00B6               	movwf	?i1___fldiv+1
  7220     16AF  3000               	movlw	0
  7221     16B0  00B5               	movwf	?i1___fldiv
  7222     16B1  2FFF               	goto	i1l561
  7223     16B2                     i1l2968:
  7224     16B2  084D               	movf	i1___fldiv@bexp,w
  7225     16B3  00BD               	movwf	??i1___fldiv
  7226     16B4  01BE               	clrf	??i1___fldiv+1
  7227     16B5  083E               	movf	??i1___fldiv+1,w
  7228     16B6  00C0               	movwf	??i1___fldiv+3
  7229     16B7  084E               	movf	i1___fldiv@aexp,w
  7230     16B8  023D               	subwf	??i1___fldiv,w
  7231     16B9  00BF               	movwf	??i1___fldiv+2
  7232     16BA  1C03               	skipc
  7233     16BB  03C0               	decf	??i1___fldiv+3,f
  7234     16BC  083F               	movf	??i1___fldiv+2,w
  7235     16BD  3E7F               	addlw	127
  7236     16BE  00C7               	movwf	i1___fldiv@new_exp
  7237     16BF  0840               	movf	??i1___fldiv+3,w
  7238     16C0  1803               	skipnc
  7239     16C1  3E01               	addlw	1
  7240     16C2  3E00               	addlw	0
  7241     16C3  00C8               	movwf	i1___fldiv@new_exp+1
  7242     16C4                     i1l2970:
  7243     16C4  083C               	movf	i1___fldiv@b+3,w
  7244     16C5  00C5               	movwf	i1___fldiv@rem+3
  7245     16C6  083B               	movf	i1___fldiv@b+2,w
  7246     16C7  00C4               	movwf	i1___fldiv@rem+2
  7247     16C8  083A               	movf	i1___fldiv@b+1,w
  7248     16C9  00C3               	movwf	i1___fldiv@rem+1
  7249     16CA  0839               	movf	i1___fldiv@b,w
  7250     16CB  00C2               	movwf	i1___fldiv@rem
  7251     16CC                     i1l2972:
  7252     16CC  3000               	movlw	0
  7253     16CD  00BC               	movwf	i1___fldiv@b+3
  7254     16CE  3000               	movlw	0
  7255     16CF  00BB               	movwf	i1___fldiv@b+2
  7256     16D0  3000               	movlw	0
  7257     16D1  00BA               	movwf	i1___fldiv@b+1
  7258     16D2  3000               	movlw	0
  7259     16D3  00B9               	movwf	i1___fldiv@b
  7260     16D4                     i1l2974:
  7261     16D4  3000               	movlw	0
  7262     16D5  00CC               	movwf	i1___fldiv@grs+3
  7263     16D6  3000               	movlw	0
  7264     16D7  00CB               	movwf	i1___fldiv@grs+2
  7265     16D8  3000               	movlw	0
  7266     16D9  00CA               	movwf	i1___fldiv@grs+1
  7267     16DA  3000               	movlw	0
  7268     16DB  00C9               	movwf	i1___fldiv@grs
  7269     16DC                     i1l2976:
  7270     16DC  01CE               	clrf	i1___fldiv@aexp
  7271     16DD  2F28               	goto	i1l2996
  7272     16DE                     i1l2978:
  7273     16DE  084E               	movf	i1___fldiv@aexp,w
  7274     16DF  1903               	btfsc	3,2
  7275     16E0  2EE2               	goto	u505_21
  7276     16E1  2EE3               	goto	u505_20
  7277     16E2                     u505_21:
  7278     16E2  2F03               	goto	i1l2988
  7279     16E3                     u505_20:
  7280     16E3                     i1l2980:
  7281     16E3  3001               	movlw	1
  7282     16E4  00BD               	movwf	??i1___fldiv
  7283     16E5                     u506_25:
  7284     16E5  1003               	clrc
  7285     16E6  0DC2               	rlf	i1___fldiv@rem,f
  7286     16E7  0DC3               	rlf	i1___fldiv@rem+1,f
  7287     16E8  0DC4               	rlf	i1___fldiv@rem+2,f
  7288     16E9  0DC5               	rlf	i1___fldiv@rem+3,f
  7289     16EA  0BBD               	decfsz	??i1___fldiv,f
  7290     16EB  2EE5               	goto	u506_25
  7291     16EC  3001               	movlw	1
  7292     16ED  00BD               	movwf	??i1___fldiv
  7293     16EE                     u507_25:
  7294     16EE  1003               	clrc
  7295     16EF  0DB9               	rlf	i1___fldiv@b,f
  7296     16F0  0DBA               	rlf	i1___fldiv@b+1,f
  7297     16F1  0DBB               	rlf	i1___fldiv@b+2,f
  7298     16F2  0DBC               	rlf	i1___fldiv@b+3,f
  7299     16F3  0BBD               	decfsz	??i1___fldiv,f
  7300     16F4  2EEE               	goto	u507_25
  7301     16F5                     i1l2982:
  7302     16F5  1FCC               	btfss	i1___fldiv@grs+3,7
  7303     16F6  2EF8               	goto	u508_21
  7304     16F7  2EF9               	goto	u508_20
  7305     16F8                     u508_21:
  7306     16F8  2EFA               	goto	i1l2986
  7307     16F9                     u508_20:
  7308     16F9                     i1l2984:
  7309     16F9  1439               	bsf	i1___fldiv@b,0
  7310     16FA                     i1l2986:
  7311     16FA  3001               	movlw	1
  7312     16FB  00BD               	movwf	??i1___fldiv
  7313     16FC                     u509_25:
  7314     16FC  1003               	clrc
  7315     16FD  0DC9               	rlf	i1___fldiv@grs,f
  7316     16FE  0DCA               	rlf	i1___fldiv@grs+1,f
  7317     16FF  0DCB               	rlf	i1___fldiv@grs+2,f
  7318     1700  0DCC               	rlf	i1___fldiv@grs+3,f
  7319     1701  0BBD               	decfsz	??i1___fldiv,f
  7320     1702  2EFC               	goto	u509_25
  7321     1703                     i1l2988:
  7322     1703  0838               	movf	i1___fldiv@a+3,w
  7323     1704  0245               	subwf	i1___fldiv@rem+3,w
  7324     1705  1D03               	skipz
  7325     1706  2F11               	goto	u510_25
  7326     1707  0837               	movf	i1___fldiv@a+2,w
  7327     1708  0244               	subwf	i1___fldiv@rem+2,w
  7328     1709  1D03               	skipz
  7329     170A  2F11               	goto	u510_25
  7330     170B  0836               	movf	i1___fldiv@a+1,w
  7331     170C  0243               	subwf	i1___fldiv@rem+1,w
  7332     170D  1D03               	skipz
  7333     170E  2F11               	goto	u510_25
  7334     170F  0835               	movf	i1___fldiv@a,w
  7335     1710  0242               	subwf	i1___fldiv@rem,w
  7336     1711                     u510_25:
  7337     1711  1C03               	skipc
  7338     1712  2F14               	goto	u510_21
  7339     1713  2F15               	goto	u510_20
  7340     1714                     u510_21:
  7341     1714  2F24               	goto	i1l2994
  7342     1715                     u510_20:
  7343     1715                     i1l2990:
  7344     1715  174C               	bsf	i1___fldiv@grs+3,6
  7345     1716                     i1l2992:
  7346     1716  0835               	movf	i1___fldiv@a,w
  7347     1717  02C2               	subwf	i1___fldiv@rem,f
  7348     1718  0836               	movf	i1___fldiv@a+1,w
  7349     1719  1C03               	skipc
  7350     171A  0F36               	incfsz	i1___fldiv@a+1,w
  7351     171B  02C3               	subwf	i1___fldiv@rem+1,f
  7352     171C  0837               	movf	i1___fldiv@a+2,w
  7353     171D  1C03               	skipc
  7354     171E  0F37               	incfsz	i1___fldiv@a+2,w
  7355     171F  02C4               	subwf	i1___fldiv@rem+2,f
  7356     1720  0838               	movf	i1___fldiv@a+3,w
  7357     1721  1C03               	skipc
  7358     1722  0F38               	incfsz	i1___fldiv@a+3,w
  7359     1723  02C5               	subwf	i1___fldiv@rem+3,f
  7360     1724                     i1l2994:
  7361     1724  3001               	movlw	1
  7362     1725  00BD               	movwf	??i1___fldiv
  7363     1726  083D               	movf	??i1___fldiv,w
  7364     1727  07CE               	addwf	i1___fldiv@aexp,f
  7365     1728                     i1l2996:
  7366     1728  301A               	movlw	26
  7367     1729  024E               	subwf	i1___fldiv@aexp,w
  7368     172A  1C03               	skipc
  7369     172B  2F2D               	goto	u511_21
  7370     172C  2F2E               	goto	u511_20
  7371     172D                     u511_21:
  7372     172D  2EDE               	goto	i1l2978
  7373     172E                     u511_20:
  7374     172E                     i1l2998:
  7375     172E  0845               	movf	i1___fldiv@rem+3,w
  7376     172F  0444               	iorwf	i1___fldiv@rem+2,w
  7377     1730  0443               	iorwf	i1___fldiv@rem+1,w
  7378     1731  0442               	iorwf	i1___fldiv@rem,w
  7379     1732  1903               	skipnz
  7380     1733  2F35               	goto	u512_21
  7381     1734  2F36               	goto	u512_20
  7382     1735                     u512_21:
  7383     1735  2F55               	goto	i1l3012
  7384     1736                     u512_20:
  7385     1736                     i1l3000:
  7386     1736  1449               	bsf	i1___fldiv@grs,0
  7387     1737  2F55               	goto	i1l3012
  7388     1738                     i1l3002:
  7389     1738  3001               	movlw	1
  7390     1739  00BD               	movwf	??i1___fldiv
  7391     173A                     u513_25:
  7392     173A  1003               	clrc
  7393     173B  0DB9               	rlf	i1___fldiv@b,f
  7394     173C  0DBA               	rlf	i1___fldiv@b+1,f
  7395     173D  0DBB               	rlf	i1___fldiv@b+2,f
  7396     173E  0DBC               	rlf	i1___fldiv@b+3,f
  7397     173F  0BBD               	decfsz	??i1___fldiv,f
  7398     1740  2F3A               	goto	u513_25
  7399     1741                     i1l3004:
  7400     1741  1FCC               	btfss	i1___fldiv@grs+3,7
  7401     1742  2F44               	goto	u514_21
  7402     1743  2F45               	goto	u514_20
  7403     1744                     u514_21:
  7404     1744  2F46               	goto	i1l3008
  7405     1745                     u514_20:
  7406     1745                     i1l3006:
  7407     1745  1439               	bsf	i1___fldiv@b,0
  7408     1746                     i1l3008:
  7409     1746  3001               	movlw	1
  7410     1747  00BD               	movwf	??i1___fldiv
  7411     1748                     u515_25:
  7412     1748  1003               	clrc
  7413     1749  0DC9               	rlf	i1___fldiv@grs,f
  7414     174A  0DCA               	rlf	i1___fldiv@grs+1,f
  7415     174B  0DCB               	rlf	i1___fldiv@grs+2,f
  7416     174C  0DCC               	rlf	i1___fldiv@grs+3,f
  7417     174D  0BBD               	decfsz	??i1___fldiv,f
  7418     174E  2F48               	goto	u515_25
  7419     174F                     i1l3010:
  7420     174F  30FF               	movlw	255
  7421     1750  07C7               	addwf	i1___fldiv@new_exp,f
  7422     1751  1803               	skipnc
  7423     1752  0AC8               	incf	i1___fldiv@new_exp+1,f
  7424     1753  30FF               	movlw	255
  7425     1754  07C8               	addwf	i1___fldiv@new_exp+1,f
  7426     1755                     i1l3012:
  7427     1755  1FBB               	btfss	i1___fldiv@b+2,7
  7428     1756  2F58               	goto	u516_21
  7429     1757  2F59               	goto	u516_20
  7430     1758                     u516_21:
  7431     1758  2F38               	goto	i1l3002
  7432     1759                     u516_20:
  7433     1759                     i1l3014:
  7434     1759  01CE               	clrf	i1___fldiv@aexp
  7435     175A                     i1l3016:
  7436     175A  1FCC               	btfss	i1___fldiv@grs+3,7
  7437     175B  2F5D               	goto	u517_21
  7438     175C  2F5E               	goto	u517_20
  7439     175D                     u517_21:
  7440     175D  2F7A               	goto	i1l3024
  7441     175E                     u517_20:
  7442     175E                     i1l3018:
  7443     175E  30FF               	movlw	255
  7444     175F  0549               	andwf	i1___fldiv@grs,w
  7445     1760  00BD               	movwf	??i1___fldiv
  7446     1761  30FF               	movlw	255
  7447     1762  054A               	andwf	i1___fldiv@grs+1,w
  7448     1763  00BE               	movwf	??i1___fldiv+1
  7449     1764  30FF               	movlw	255
  7450     1765  054B               	andwf	i1___fldiv@grs+2,w
  7451     1766  00BF               	movwf	??i1___fldiv+2
  7452     1767  307F               	movlw	127
  7453     1768  054C               	andwf	i1___fldiv@grs+3,w
  7454     1769  00C0               	movwf	??i1___fldiv+3
  7455     176A  0840               	movf	??i1___fldiv+3,w
  7456     176B  043F               	iorwf	??i1___fldiv+2,w
  7457     176C  043E               	iorwf	??i1___fldiv+1,w
  7458     176D  043D               	iorwf	??i1___fldiv,w
  7459     176E  1903               	skipnz
  7460     176F  2F71               	goto	u518_21
  7461     1770  2F72               	goto	u518_20
  7462     1771                     u518_21:
  7463     1771  2F75               	goto	i1l575
  7464     1772                     u518_20:
  7465     1772                     i1l3020:
  7466     1772  01CE               	clrf	i1___fldiv@aexp
  7467     1773  0ACE               	incf	i1___fldiv@aexp,f
  7468     1774  2F7A               	goto	i1l3024
  7469     1775                     i1l575:
  7470     1775  1C39               	btfss	i1___fldiv@b,0
  7471     1776  2F78               	goto	u519_21
  7472     1777  2F79               	goto	u519_20
  7473     1778                     u519_21:
  7474     1778  2F7A               	goto	i1l3024
  7475     1779                     u519_20:
  7476     1779  2F72               	goto	i1l3020
  7477     177A                     i1l3024:
  7478     177A  084E               	movf	i1___fldiv@aexp,w
  7479     177B  1903               	btfsc	3,2
  7480     177C  2F7E               	goto	u520_21
  7481     177D  2F7F               	goto	u520_20
  7482     177E                     u520_21:
  7483     177E  2FB0               	goto	i1l3034
  7484     177F                     u520_20:
  7485     177F                     i1l3026:
  7486     177F  3001               	movlw	1
  7487     1780  07B9               	addwf	i1___fldiv@b,f
  7488     1781  3000               	movlw	0
  7489     1782  1803               	skipnc
  7490     1783  3001               	movlw	1
  7491     1784  07BA               	addwf	i1___fldiv@b+1,f
  7492     1785  3000               	movlw	0
  7493     1786  1803               	skipnc
  7494     1787  3001               	movlw	1
  7495     1788  07BB               	addwf	i1___fldiv@b+2,f
  7496     1789  3000               	movlw	0
  7497     178A  1803               	skipnc
  7498     178B  3001               	movlw	1
  7499     178C  07BC               	addwf	i1___fldiv@b+3,f
  7500     178D                     i1l3028:
  7501     178D  1C3C               	btfss	i1___fldiv@b+3,0
  7502     178E  2F90               	goto	u521_21
  7503     178F  2F91               	goto	u521_20
  7504     1790                     u521_21:
  7505     1790  2FB0               	goto	i1l3034
  7506     1791                     u521_20:
  7507     1791                     i1l3030:
  7508     1791  0839               	movf	i1___fldiv@b,w
  7509     1792  00BD               	movwf	??i1___fldiv
  7510     1793  083A               	movf	i1___fldiv@b+1,w
  7511     1794  00BE               	movwf	??i1___fldiv+1
  7512     1795  083B               	movf	i1___fldiv@b+2,w
  7513     1796  00BF               	movwf	??i1___fldiv+2
  7514     1797  083C               	movf	i1___fldiv@b+3,w
  7515     1798  00C0               	movwf	??i1___fldiv+3
  7516     1799  3001               	movlw	1
  7517     179A  00C1               	movwf	??i1___fldiv+4
  7518     179B                     u522_25:
  7519     179B  0D40               	rlf	??i1___fldiv+3,w
  7520     179C  0CC0               	rrf	??i1___fldiv+3,f
  7521     179D  0CBF               	rrf	??i1___fldiv+2,f
  7522     179E  0CBE               	rrf	??i1___fldiv+1,f
  7523     179F  0CBD               	rrf	??i1___fldiv,f
  7524     17A0                     u522_20:
  7525     17A0  0BC1               	decfsz	??i1___fldiv+4,f
  7526     17A1  2F9B               	goto	u522_25
  7527     17A2  0840               	movf	??i1___fldiv+3,w
  7528     17A3  00BC               	movwf	i1___fldiv@b+3
  7529     17A4  083F               	movf	??i1___fldiv+2,w
  7530     17A5  00BB               	movwf	i1___fldiv@b+2
  7531     17A6  083E               	movf	??i1___fldiv+1,w
  7532     17A7  00BA               	movwf	i1___fldiv@b+1
  7533     17A8  083D               	movf	??i1___fldiv,w
  7534     17A9  00B9               	movwf	i1___fldiv@b
  7535     17AA                     i1l3032:
  7536     17AA  3001               	movlw	1
  7537     17AB  07C7               	addwf	i1___fldiv@new_exp,f
  7538     17AC  1803               	skipnc
  7539     17AD  0AC8               	incf	i1___fldiv@new_exp+1,f
  7540     17AE  3000               	movlw	0
  7541     17AF  07C8               	addwf	i1___fldiv@new_exp+1,f
  7542     17B0                     i1l3034:
  7543     17B0  0848               	movf	i1___fldiv@new_exp+1,w
  7544     17B1  3A80               	xorlw	128
  7545     17B2  00FF               	movwf	btemp+1
  7546     17B3  3080               	movlw	128
  7547     17B4  027F               	subwf	btemp+1,w
  7548     17B5  1D03               	skipz
  7549     17B6  2FB9               	goto	u523_25
  7550     17B7  30FF               	movlw	255
  7551     17B8  0247               	subwf	i1___fldiv@new_exp,w
  7552     17B9                     u523_25:
  7553     17B9  1C03               	skipc
  7554     17BA  2FBC               	goto	u523_21
  7555     17BB  2FBD               	goto	u523_20
  7556     17BC                     u523_21:
  7557     17BC  2FCB               	goto	i1l3038
  7558     17BD                     u523_20:
  7559     17BD                     i1l3036:
  7560     17BD  30FF               	movlw	255
  7561     17BE  1283               	bcf	3,5	;RP0=0, select bank0
  7562     17BF  1303               	bcf	3,6	;RP1=0, select bank0
  7563     17C0  00C7               	movwf	i1___fldiv@new_exp
  7564     17C1  3000               	movlw	0
  7565     17C2  00C8               	movwf	i1___fldiv@new_exp+1
  7566     17C3  3000               	movlw	0
  7567     17C4  00BC               	movwf	i1___fldiv@b+3
  7568     17C5  3000               	movlw	0
  7569     17C6  00BB               	movwf	i1___fldiv@b+2
  7570     17C7  3000               	movlw	0
  7571     17C8  00BA               	movwf	i1___fldiv@b+1
  7572     17C9  3000               	movlw	0
  7573     17CA  00B9               	movwf	i1___fldiv@b
  7574     17CB                     i1l3038:
  7575     17CB  1283               	bcf	3,5	;RP0=0, select bank0
  7576     17CC  1303               	bcf	3,6	;RP1=0, select bank0
  7577     17CD  0848               	movf	i1___fldiv@new_exp+1,w
  7578     17CE  3A80               	xorlw	128
  7579     17CF  00FF               	movwf	btemp+1
  7580     17D0  3080               	movlw	128
  7581     17D1  027F               	subwf	btemp+1,w
  7582     17D2  1D03               	skipz
  7583     17D3  2FD6               	goto	u524_25
  7584     17D4  3001               	movlw	1
  7585     17D5  0247               	subwf	i1___fldiv@new_exp,w
  7586     17D6                     u524_25:
  7587     17D6  1803               	skipnc
  7588     17D7  2FD9               	goto	u524_21
  7589     17D8  2FDA               	goto	u524_20
  7590     17D9                     u524_21:
  7591     17D9  2FE7               	goto	i1l581
  7592     17DA                     u524_20:
  7593     17DA                     i1l3040:
  7594     17DA  1283               	bcf	3,5	;RP0=0, select bank0
  7595     17DB  1303               	bcf	3,6	;RP1=0, select bank0
  7596     17DC  01C7               	clrf	i1___fldiv@new_exp
  7597     17DD  01C8               	clrf	i1___fldiv@new_exp+1
  7598     17DE                     i1l3042:
  7599     17DE  3000               	movlw	0
  7600     17DF  00BC               	movwf	i1___fldiv@b+3
  7601     17E0  3000               	movlw	0
  7602     17E1  00BB               	movwf	i1___fldiv@b+2
  7603     17E2  3000               	movlw	0
  7604     17E3  00BA               	movwf	i1___fldiv@b+1
  7605     17E4  3000               	movlw	0
  7606     17E5  00B9               	movwf	i1___fldiv@b
  7607     17E6                     i1l3044:
  7608     17E6  01C6               	clrf	i1___fldiv@sign
  7609     17E7                     i1l581:
  7610     17E7  1283               	bcf	3,5	;RP0=0, select bank0
  7611     17E8  1303               	bcf	3,6	;RP1=0, select bank0
  7612     17E9  0847               	movf	i1___fldiv@new_exp,w
  7613     17EA  00CD               	movwf	i1___fldiv@bexp
  7614     17EB                     i1l3046:
  7615     17EB  1C4D               	btfss	i1___fldiv@bexp,0
  7616     17EC  2FEE               	goto	u525_21
  7617     17ED  2FEF               	goto	u525_20
  7618     17EE                     u525_21:
  7619     17EE  2FF1               	goto	i1l3050
  7620     17EF                     u525_20:
  7621     17EF                     i1l3048:
  7622     17EF  17BB               	bsf	i1___fldiv@b+2,7
  7623     17F0  2FF5               	goto	i1l583
  7624     17F1                     i1l3050:
  7625     17F1  307F               	movlw	127
  7626     17F2  00BD               	movwf	??i1___fldiv
  7627     17F3  083D               	movf	??i1___fldiv,w
  7628     17F4  05BB               	andwf	i1___fldiv@b+2,f
  7629     17F5                     i1l583:
  7630     17F5  084D               	movf	i1___fldiv@bexp,w
  7631     17F6  00BD               	movwf	??i1___fldiv
  7632     17F7  1003               	clrc
  7633     17F8  0C3D               	rrf	??i1___fldiv,w
  7634     17F9  00BC               	movwf	i1___fldiv@b+3
  7635     17FA  0846               	movf	i1___fldiv@sign,w
  7636     17FB  00BD               	movwf	??i1___fldiv
  7637     17FC  083D               	movf	??i1___fldiv,w
  7638     17FD  04BC               	iorwf	i1___fldiv@b+3,f
  7639     17FE  2E9B               	goto	i1l2958
  7640     17FF                     i1l561:
  7641     17FF  0008               	return
  7642     1800                     __end_ofi1___fldiv:
  7643                           
  7644                           	psect	text18
  7645     08BE                     __ptext18:	
  7646 ;; *************** function i1___fladd *****************
  7647 ;; Defined at:
  7648 ;;		line 10 in file "C:\Program Files\Microchip\xc8\v2.40\pic\sources\c90\common\sprcadd.c"
  7649 ;; Parameters:    Size  Location     Type
  7650 ;;  b               4   47[BANK0 ] unsigned char 
  7651 ;;  a               4   51[BANK0 ] unsigned char 
  7652 ;; Auto vars:     Size  Location     Type
  7653 ;;  grs             1   66[BANK0 ] unsigned char 
  7654 ;;  bexp            1   65[BANK0 ] unsigned char 
  7655 ;;  aexp            1   64[BANK0 ] unsigned char 
  7656 ;;  signs           1   63[BANK0 ] unsigned char 
  7657 ;; Return value:  Size  Location     Type
  7658 ;;                  4   47[BANK0 ] unsigned char 
  7659 ;; Registers used:
  7660 ;;		wreg, status,2, status,0, btemp+1
  7661 ;; Tracked objects:
  7662 ;;		On entry : 0/0
  7663 ;;		On exit  : 0/0
  7664 ;;		Unchanged: 0/0
  7665 ;; Data sizes:     COMMON   BANK0   BANK1   BANK3   BANK2
  7666 ;;      Params:         0       8       0       0       0
  7667 ;;      Locals:         0       4       0       0       0
  7668 ;;      Temps:          0       8       0       0       0
  7669 ;;      Totals:         0      20       0       0       0
  7670 ;;Total ram usage:       20 bytes
  7671 ;; Hardware stack levels used: 1
  7672 ;; This function calls:
  7673 ;;		Nothing
  7674 ;; This function is called by:
  7675 ;;		_PWM_DUTY
  7676 ;; This function uses a non-reentrant model
  7677 ;;
  7678                           
  7679     08BE                     i1___fladd:	
  7680                           ;psect for function i1___fladd
  7681                           
  7682     08BE                     i1l2720:	
  7683                           ;incstack = 0
  7684                           ; Regs used in i1___fladd: [wreg+status,2+status,0+btemp+1]
  7685                           
  7686     08BE  1283               	bcf	3,5	;RP0=0, select bank0
  7687     08BF  1303               	bcf	3,6	;RP1=0, select bank0
  7688     08C0  0852               	movf	i1___fladd@b+3,w
  7689     08C1  3980               	andlw	128
  7690     08C2  00DF               	movwf	i1___fladd@signs
  7691     08C3                     i1l2722:
  7692     08C3  0852               	movf	i1___fladd@b+3,w
  7693     08C4  00D7               	movwf	??i1___fladd
  7694     08C5  0757               	addwf	??i1___fladd,w
  7695     08C6  00E1               	movwf	i1___fladd@bexp
  7696     08C7                     i1l2724:
  7697     08C7  1FD1               	btfss	i1___fladd@b+2,7
  7698     08C8  28CA               	goto	u451_21
  7699     08C9  28CB               	goto	u451_20
  7700     08CA                     u451_21:
  7701     08CA  28CC               	goto	i1l2728
  7702     08CB                     u451_20:
  7703     08CB                     i1l2726:
  7704     08CB  1461               	bsf	i1___fladd@bexp,0
  7705     08CC                     i1l2728:
  7706     08CC  0861               	movf	i1___fladd@bexp,w
  7707     08CD  1903               	btfsc	3,2
  7708     08CE  28D0               	goto	u452_21
  7709     08CF  28D1               	goto	u452_20
  7710     08D0                     u452_21:
  7711     08D0  28E1               	goto	i1l2738
  7712     08D1                     u452_20:
  7713     08D1                     i1l2730:
  7714     08D1  0A61               	incf	i1___fladd@bexp,w
  7715     08D2  1D03               	btfss	3,2
  7716     08D3  28D5               	goto	u453_21
  7717     08D4  28D6               	goto	u453_20
  7718     08D5                     u453_21:
  7719     08D5  28DE               	goto	i1l2734
  7720     08D6                     u453_20:
  7721     08D6                     i1l2732:
  7722     08D6  3000               	movlw	0
  7723     08D7  00D2               	movwf	i1___fladd@b+3
  7724     08D8  3000               	movlw	0
  7725     08D9  00D1               	movwf	i1___fladd@b+2
  7726     08DA  3000               	movlw	0
  7727     08DB  00D0               	movwf	i1___fladd@b+1
  7728     08DC  3000               	movlw	0
  7729     08DD  00CF               	movwf	i1___fladd@b
  7730     08DE                     i1l2734:
  7731     08DE  17D1               	bsf	i1___fladd@b+2,7
  7732     08DF                     i1l2736:
  7733     08DF  01D2               	clrf	i1___fladd@b+3
  7734     08E0  28E9               	goto	i1l2740
  7735     08E1                     i1l2738:
  7736     08E1  3000               	movlw	0
  7737     08E2  00D2               	movwf	i1___fladd@b+3
  7738     08E3  3000               	movlw	0
  7739     08E4  00D1               	movwf	i1___fladd@b+2
  7740     08E5  3000               	movlw	0
  7741     08E6  00D0               	movwf	i1___fladd@b+1
  7742     08E7  3000               	movlw	0
  7743     08E8  00CF               	movwf	i1___fladd@b
  7744     08E9                     i1l2740:
  7745     08E9  0856               	movf	i1___fladd@a+3,w
  7746     08EA  3980               	andlw	128
  7747     08EB  00E0               	movwf	i1___fladd@aexp
  7748     08EC                     i1l2742:
  7749     08EC  0860               	movf	i1___fladd@aexp,w
  7750     08ED  065F               	xorwf	i1___fladd@signs,w
  7751     08EE  1903               	skipnz
  7752     08EF  28F1               	goto	u454_21
  7753     08F0  28F2               	goto	u454_20
  7754     08F1                     u454_21:
  7755     08F1  28F3               	goto	i1l2746
  7756     08F2                     u454_20:
  7757     08F2                     i1l2744:
  7758     08F2  175F               	bsf	i1___fladd@signs,6
  7759     08F3                     i1l2746:
  7760     08F3  0856               	movf	i1___fladd@a+3,w
  7761     08F4  00D7               	movwf	??i1___fladd
  7762     08F5  0757               	addwf	??i1___fladd,w
  7763     08F6  00E0               	movwf	i1___fladd@aexp
  7764     08F7                     i1l2748:
  7765     08F7  1FD5               	btfss	i1___fladd@a+2,7
  7766     08F8  28FA               	goto	u455_21
  7767     08F9  28FB               	goto	u455_20
  7768     08FA                     u455_21:
  7769     08FA  28FC               	goto	i1l2752
  7770     08FB                     u455_20:
  7771     08FB                     i1l2750:
  7772     08FB  1460               	bsf	i1___fladd@aexp,0
  7773     08FC                     i1l2752:
  7774     08FC  0860               	movf	i1___fladd@aexp,w
  7775     08FD  1903               	btfsc	3,2
  7776     08FE  2900               	goto	u456_21
  7777     08FF  2901               	goto	u456_20
  7778     0900                     u456_21:
  7779     0900  2911               	goto	i1l2762
  7780     0901                     u456_20:
  7781     0901                     i1l2754:
  7782     0901  0A60               	incf	i1___fladd@aexp,w
  7783     0902  1D03               	btfss	3,2
  7784     0903  2905               	goto	u457_21
  7785     0904  2906               	goto	u457_20
  7786     0905                     u457_21:
  7787     0905  290E               	goto	i1l2758
  7788     0906                     u457_20:
  7789     0906                     i1l2756:
  7790     0906  3000               	movlw	0
  7791     0907  00D6               	movwf	i1___fladd@a+3
  7792     0908  3000               	movlw	0
  7793     0909  00D5               	movwf	i1___fladd@a+2
  7794     090A  3000               	movlw	0
  7795     090B  00D4               	movwf	i1___fladd@a+1
  7796     090C  3000               	movlw	0
  7797     090D  00D3               	movwf	i1___fladd@a
  7798     090E                     i1l2758:
  7799     090E  17D5               	bsf	i1___fladd@a+2,7
  7800     090F                     i1l2760:
  7801     090F  01D6               	clrf	i1___fladd@a+3
  7802     0910  2919               	goto	i1l503
  7803     0911                     i1l2762:
  7804     0911  3000               	movlw	0
  7805     0912  00D6               	movwf	i1___fladd@a+3
  7806     0913  3000               	movlw	0
  7807     0914  00D5               	movwf	i1___fladd@a+2
  7808     0915  3000               	movlw	0
  7809     0916  00D4               	movwf	i1___fladd@a+1
  7810     0917  3000               	movlw	0
  7811     0918  00D3               	movwf	i1___fladd@a
  7812     0919                     i1l503:
  7813     0919  0861               	movf	i1___fladd@bexp,w
  7814     091A  0260               	subwf	i1___fladd@aexp,w
  7815     091B  1803               	skipnc
  7816     091C  291E               	goto	u458_21
  7817     091D  291F               	goto	u458_20
  7818     091E                     u458_21:
  7819     091E  2945               	goto	i1l2798
  7820     091F                     u458_20:
  7821     091F                     i1l2764:
  7822     091F  1F5F               	btfss	i1___fladd@signs,6
  7823     0920  2922               	goto	u459_21
  7824     0921  2923               	goto	u459_20
  7825     0922                     u459_21:
  7826     0922  2927               	goto	i1l2768
  7827     0923                     u459_20:
  7828     0923                     i1l2766:
  7829     0923  3080               	movlw	128
  7830     0924  00D7               	movwf	??i1___fladd
  7831     0925  0857               	movf	??i1___fladd,w
  7832     0926  06DF               	xorwf	i1___fladd@signs,f
  7833     0927                     i1l2768:
  7834     0927  0861               	movf	i1___fladd@bexp,w
  7835     0928  00E2               	movwf	i1___fladd@grs
  7836     0929                     i1l2770:
  7837     0929  0860               	movf	i1___fladd@aexp,w
  7838     092A  00E1               	movwf	i1___fladd@bexp
  7839     092B                     i1l2772:
  7840     092B  0862               	movf	i1___fladd@grs,w
  7841     092C  00E0               	movwf	i1___fladd@aexp
  7842     092D                     i1l2774:
  7843     092D  084F               	movf	i1___fladd@b,w
  7844     092E  00E2               	movwf	i1___fladd@grs
  7845     092F                     i1l2776:
  7846     092F  0853               	movf	i1___fladd@a,w
  7847     0930  00CF               	movwf	i1___fladd@b
  7848     0931                     i1l2778:
  7849     0931  0862               	movf	i1___fladd@grs,w
  7850     0932  00D3               	movwf	i1___fladd@a
  7851     0933                     i1l2780:
  7852     0933  0850               	movf	i1___fladd@b+1,w
  7853     0934  00E2               	movwf	i1___fladd@grs
  7854     0935                     i1l2782:
  7855     0935  0854               	movf	i1___fladd@a+1,w
  7856     0936  00D0               	movwf	i1___fladd@b+1
  7857     0937                     i1l2784:
  7858     0937  0862               	movf	i1___fladd@grs,w
  7859     0938  00D4               	movwf	i1___fladd@a+1
  7860     0939                     i1l2786:
  7861     0939  0851               	movf	i1___fladd@b+2,w
  7862     093A  00E2               	movwf	i1___fladd@grs
  7863     093B                     i1l2788:
  7864     093B  0855               	movf	i1___fladd@a+2,w
  7865     093C  00D1               	movwf	i1___fladd@b+2
  7866     093D                     i1l2790:
  7867     093D  0862               	movf	i1___fladd@grs,w
  7868     093E  00D5               	movwf	i1___fladd@a+2
  7869     093F                     i1l2792:
  7870     093F  0852               	movf	i1___fladd@b+3,w
  7871     0940  00E2               	movwf	i1___fladd@grs
  7872     0941                     i1l2794:
  7873     0941  0856               	movf	i1___fladd@a+3,w
  7874     0942  00D2               	movwf	i1___fladd@b+3
  7875     0943                     i1l2796:
  7876     0943  0862               	movf	i1___fladd@grs,w
  7877     0944  00D6               	movwf	i1___fladd@a+3
  7878     0945                     i1l2798:
  7879     0945  01E2               	clrf	i1___fladd@grs
  7880     0946                     i1l2800:
  7881     0946  0860               	movf	i1___fladd@aexp,w
  7882     0947  00D7               	movwf	??i1___fladd
  7883     0948  01D8               	clrf	??i1___fladd+1
  7884     0949  0858               	movf	??i1___fladd+1,w
  7885     094A  00DA               	movwf	??i1___fladd+3
  7886     094B  0861               	movf	i1___fladd@bexp,w
  7887     094C  0257               	subwf	??i1___fladd,w
  7888     094D  00D9               	movwf	??i1___fladd+2
  7889     094E  1C03               	skipc
  7890     094F  03DA               	decf	??i1___fladd+3,f
  7891     0950  085A               	movf	??i1___fladd+3,w
  7892     0951  3A80               	xorlw	128
  7893     0952  00FF               	movwf	btemp+1
  7894     0953  3080               	movlw	128
  7895     0954  027F               	subwf	btemp+1,w
  7896     0955  1D03               	skipz
  7897     0956  2959               	goto	u460_25
  7898     0957  301A               	movlw	26
  7899     0958  0259               	subwf	??i1___fladd+2,w
  7900     0959                     u460_25:
  7901     0959  1C03               	skipc
  7902     095A  295C               	goto	u460_21
  7903     095B  295D               	goto	u460_20
  7904     095C                     u460_21:
  7905     095C  2994               	goto	i1l2816
  7906     095D                     u460_20:
  7907     095D                     i1l2802:
  7908     095D  1283               	bcf	3,5	;RP0=0, select bank0
  7909     095E  1303               	bcf	3,6	;RP1=0, select bank0
  7910     095F  0852               	movf	i1___fladd@b+3,w
  7911     0960  0451               	iorwf	i1___fladd@b+2,w
  7912     0961  0450               	iorwf	i1___fladd@b+1,w
  7913     0962  044F               	iorwf	i1___fladd@b,w
  7914     0963  1D03               	skipz
  7915     0964  2966               	goto	u461_21
  7916     0965  2968               	goto	u461_20
  7917     0966                     u461_21:
  7918     0966  3001               	movlw	1
  7919     0967  2969               	goto	u462_20
  7920     0968                     u461_20:
  7921     0968  3000               	movlw	0
  7922     0969                     u462_20:
  7923     0969  00E2               	movwf	i1___fladd@grs
  7924     096A  3000               	movlw	0
  7925     096B  00D2               	movwf	i1___fladd@b+3
  7926     096C  3000               	movlw	0
  7927     096D  00D1               	movwf	i1___fladd@b+2
  7928     096E  3000               	movlw	0
  7929     096F  00D0               	movwf	i1___fladd@b+1
  7930     0970  3000               	movlw	0
  7931     0971  00CF               	movwf	i1___fladd@b
  7932     0972  0860               	movf	i1___fladd@aexp,w
  7933     0973  00E1               	movwf	i1___fladd@bexp
  7934     0974  299C               	goto	i1l507
  7935     0975                     i1l509:
  7936     0975  1C62               	btfss	i1___fladd@grs,0
  7937     0976  2978               	goto	u463_21
  7938     0977  2979               	goto	u463_20
  7939     0978                     u463_21:
  7940     0978  2980               	goto	i1l2806
  7941     0979                     u463_20:
  7942     0979                     i1l2804:
  7943     0979  0862               	movf	i1___fladd@grs,w
  7944     097A  00D7               	movwf	??i1___fladd
  7945     097B  1003               	clrc
  7946     097C  0C57               	rrf	??i1___fladd,w
  7947     097D  3801               	iorlw	1
  7948     097E  00E2               	movwf	i1___fladd@grs
  7949     097F  2982               	goto	i1l2808
  7950     0980                     i1l2806:
  7951     0980  1003               	clrc
  7952     0981  0CE2               	rrf	i1___fladd@grs,f
  7953     0982                     i1l2808:
  7954     0982  1C4F               	btfss	i1___fladd@b,0
  7955     0983  2985               	goto	u464_21
  7956     0984  2986               	goto	u464_20
  7957     0985                     u464_21:
  7958     0985  2987               	goto	i1l2812
  7959     0986                     u464_20:
  7960     0986                     i1l2810:
  7961     0986  17E2               	bsf	i1___fladd@grs,7
  7962     0987                     i1l2812:
  7963     0987  3001               	movlw	1
  7964     0988  00D7               	movwf	??i1___fladd
  7965     0989                     u465_25:
  7966     0989  0D52               	rlf	i1___fladd@b+3,w
  7967     098A  0CD2               	rrf	i1___fladd@b+3,f
  7968     098B  0CD1               	rrf	i1___fladd@b+2,f
  7969     098C  0CD0               	rrf	i1___fladd@b+1,f
  7970     098D  0CCF               	rrf	i1___fladd@b,f
  7971     098E  0BD7               	decfsz	??i1___fladd& (0+127),f
  7972     098F  2989               	goto	u465_25
  7973     0990                     i1l2814:
  7974     0990  3001               	movlw	1
  7975     0991  00D7               	movwf	??i1___fladd
  7976     0992  0857               	movf	??i1___fladd,w
  7977     0993  07E1               	addwf	i1___fladd@bexp,f
  7978     0994                     i1l2816:
  7979     0994  1283               	bcf	3,5	;RP0=0, select bank0
  7980     0995  1303               	bcf	3,6	;RP1=0, select bank0
  7981     0996  0860               	movf	i1___fladd@aexp,w
  7982     0997  0261               	subwf	i1___fladd@bexp,w
  7983     0998  1C03               	skipc
  7984     0999  299B               	goto	u466_21
  7985     099A  299C               	goto	u466_20
  7986     099B                     u466_21:
  7987     099B  2975               	goto	i1l509
  7988     099C                     u466_20:
  7989     099C                     i1l507:
  7990     099C  1B5F               	btfsc	i1___fladd@signs,6
  7991     099D  299F               	goto	u467_21
  7992     099E  29A0               	goto	u467_20
  7993     099F                     u467_21:
  7994     099F  29E9               	goto	i1l2842
  7995     09A0                     u467_20:
  7996     09A0                     i1l2818:
  7997     09A0  0861               	movf	i1___fladd@bexp,w
  7998     09A1  1D03               	btfss	3,2
  7999     09A2  29A4               	goto	u468_21
  8000     09A3  29A5               	goto	u468_20
  8001     09A4                     u468_21:
  8002     09A4  29AE               	goto	i1l2824
  8003     09A5                     u468_20:
  8004     09A5                     i1l2820:
  8005     09A5  3000               	movlw	0
  8006     09A6  00D2               	movwf	?i1___fladd+3
  8007     09A7  3000               	movlw	0
  8008     09A8  00D1               	movwf	?i1___fladd+2
  8009     09A9  3000               	movlw	0
  8010     09AA  00D0               	movwf	?i1___fladd+1
  8011     09AB  3000               	movlw	0
  8012     09AC  00CF               	movwf	?i1___fladd
  8013     09AD  2B15               	goto	i1l516
  8014     09AE                     i1l2824:
  8015     09AE  0853               	movf	i1___fladd@a,w
  8016     09AF  07CF               	addwf	i1___fladd@b,f
  8017     09B0  0854               	movf	i1___fladd@a+1,w
  8018     09B1  1103               	clrz
  8019     09B2  1803               	skipnc
  8020     09B3  3E01               	addlw	1
  8021     09B4  1903               	skipnz
  8022     09B5  29B7               	goto	u469_21
  8023     09B6  07D0               	addwf	i1___fladd@b+1,f
  8024     09B7                     u469_21:
  8025     09B7  0855               	movf	i1___fladd@a+2,w
  8026     09B8  1103               	clrz
  8027     09B9  1803               	skipnc
  8028     09BA  3E01               	addlw	1
  8029     09BB  1903               	skipnz
  8030     09BC  29BE               	goto	u469_22
  8031     09BD  07D1               	addwf	i1___fladd@b+2,f
  8032     09BE                     u469_22:
  8033     09BE  0856               	movf	i1___fladd@a+3,w
  8034     09BF  1103               	clrz
  8035     09C0  1803               	skipnc
  8036     09C1  3E01               	addlw	1
  8037     09C2  1903               	skipnz
  8038     09C3  29C5               	goto	u469_23
  8039     09C4  07D2               	addwf	i1___fladd@b+3,f
  8040     09C5                     u469_23:
  8041     09C5                     i1l2826:
  8042     09C5  1C52               	btfss	i1___fladd@b+3,0
  8043     09C6  29C8               	goto	u470_21
  8044     09C7  29C9               	goto	u470_20
  8045     09C8                     u470_21:
  8046     09C8  2A9D               	goto	i1l2876
  8047     09C9                     u470_20:
  8048     09C9                     i1l2828:
  8049     09C9  1C62               	btfss	i1___fladd@grs,0
  8050     09CA  29CC               	goto	u471_21
  8051     09CB  29CD               	goto	u471_20
  8052     09CC                     u471_21:
  8053     09CC  29D4               	goto	i1l2832
  8054     09CD                     u471_20:
  8055     09CD                     i1l2830:
  8056     09CD  0862               	movf	i1___fladd@grs,w
  8057     09CE  00D7               	movwf	??i1___fladd
  8058     09CF  1003               	clrc
  8059     09D0  0C57               	rrf	??i1___fladd,w
  8060     09D1  3801               	iorlw	1
  8061     09D2  00E2               	movwf	i1___fladd@grs
  8062     09D3  29D6               	goto	i1l2834
  8063     09D4                     i1l2832:
  8064     09D4  1003               	clrc
  8065     09D5  0CE2               	rrf	i1___fladd@grs,f
  8066     09D6                     i1l2834:
  8067     09D6  1C4F               	btfss	i1___fladd@b,0
  8068     09D7  29D9               	goto	u472_21
  8069     09D8  29DA               	goto	u472_20
  8070     09D9                     u472_21:
  8071     09D9  29DB               	goto	i1l2838
  8072     09DA                     u472_20:
  8073     09DA                     i1l2836:
  8074     09DA  17E2               	bsf	i1___fladd@grs,7
  8075     09DB                     i1l2838:
  8076     09DB  3001               	movlw	1
  8077     09DC  00D7               	movwf	??i1___fladd
  8078     09DD                     u473_25:
  8079     09DD  0D52               	rlf	i1___fladd@b+3,w
  8080     09DE  0CD2               	rrf	i1___fladd@b+3,f
  8081     09DF  0CD1               	rrf	i1___fladd@b+2,f
  8082     09E0  0CD0               	rrf	i1___fladd@b+1,f
  8083     09E1  0CCF               	rrf	i1___fladd@b,f
  8084     09E2  0BD7               	decfsz	??i1___fladd& (0+127),f
  8085     09E3  29DD               	goto	u473_25
  8086     09E4                     i1l2840:
  8087     09E4  3001               	movlw	1
  8088     09E5  00D7               	movwf	??i1___fladd
  8089     09E6  0857               	movf	??i1___fladd,w
  8090     09E7  07E1               	addwf	i1___fladd@bexp,f
  8091     09E8  2A9D               	goto	i1l2876
  8092     09E9                     i1l2842:
  8093     09E9  0852               	movf	i1___fladd@b+3,w
  8094     09EA  3A80               	xorlw	128
  8095     09EB  00FF               	movwf	btemp+1
  8096     09EC  0856               	movf	i1___fladd@a+3,w
  8097     09ED  3A80               	xorlw	128
  8098     09EE  027F               	subwf	btemp+1,w
  8099     09EF  1D03               	skipz
  8100     09F0  29FB               	goto	u474_23
  8101     09F1  0855               	movf	i1___fladd@a+2,w
  8102     09F2  0251               	subwf	i1___fladd@b+2,w
  8103     09F3  1D03               	skipz
  8104     09F4  29FB               	goto	u474_23
  8105     09F5  0854               	movf	i1___fladd@a+1,w
  8106     09F6  0250               	subwf	i1___fladd@b+1,w
  8107     09F7  1D03               	skipz
  8108     09F8  29FB               	goto	u474_23
  8109     09F9  0853               	movf	i1___fladd@a,w
  8110     09FA  024F               	subwf	i1___fladd@b,w
  8111     09FB                     u474_23:
  8112     09FB  1803               	skipnc
  8113     09FC  29FE               	goto	u474_21
  8114     09FD  29FF               	goto	u474_20
  8115     09FE                     u474_21:
  8116     09FE  2A57               	goto	i1l2852
  8117     09FF                     u474_20:
  8118     09FF                     i1l2844:
  8119     09FF  30FF               	movlw	255
  8120     0A00  00D7               	movwf	??i1___fladd
  8121     0A01  30FF               	movlw	255
  8122     0A02  00D8               	movwf	??i1___fladd+1
  8123     0A03  30FF               	movlw	255
  8124     0A04  00D9               	movwf	??i1___fladd+2
  8125     0A05  30FF               	movlw	255
  8126     0A06  00DA               	movwf	??i1___fladd+3
  8127     0A07  0853               	movf	i1___fladd@a,w
  8128     0A08  00DB               	movwf	??i1___fladd+4
  8129     0A09  0854               	movf	i1___fladd@a+1,w
  8130     0A0A  00DC               	movwf	??i1___fladd+5
  8131     0A0B  0855               	movf	i1___fladd@a+2,w
  8132     0A0C  00DD               	movwf	??i1___fladd+6
  8133     0A0D  0856               	movf	i1___fladd@a+3,w
  8134     0A0E  00DE               	movwf	??i1___fladd+7
  8135     0A0F  084F               	movf	i1___fladd@b,w
  8136     0A10  02DB               	subwf	??i1___fladd+4,f
  8137     0A11  0850               	movf	i1___fladd@b+1,w
  8138     0A12  1C03               	skipc
  8139     0A13  0F50               	incfsz	i1___fladd@b+1,w
  8140     0A14  2A16               	goto	u475_21
  8141     0A15  2A17               	goto	u475_22
  8142     0A16                     u475_21:
  8143     0A16  02DC               	subwf	??i1___fladd+5,f
  8144     0A17                     u475_22:
  8145     0A17  0851               	movf	i1___fladd@b+2,w
  8146     0A18  1C03               	skipc
  8147     0A19  0F51               	incfsz	i1___fladd@b+2,w
  8148     0A1A  2A1C               	goto	u475_23
  8149     0A1B  2A1D               	goto	u475_24
  8150     0A1C                     u475_23:
  8151     0A1C  02DD               	subwf	??i1___fladd+6,f
  8152     0A1D                     u475_24:
  8153     0A1D  0852               	movf	i1___fladd@b+3,w
  8154     0A1E  1C03               	skipc
  8155     0A1F  0F52               	incfsz	i1___fladd@b+3,w
  8156     0A20  2A22               	goto	u475_25
  8157     0A21  2A23               	goto	u475_26
  8158     0A22                     u475_25:
  8159     0A22  02DE               	subwf	??i1___fladd+7,f
  8160     0A23                     u475_26:
  8161     0A23  085B               	movf	??i1___fladd+4,w
  8162     0A24  07D7               	addwf	??i1___fladd,f
  8163     0A25  085C               	movf	??i1___fladd+5,w
  8164     0A26  1803               	skipnc
  8165     0A27  0F5C               	incfsz	??i1___fladd+5,w
  8166     0A28  2A2A               	goto	u476_20
  8167     0A29  2A2B               	goto	u476_21
  8168     0A2A                     u476_20:
  8169     0A2A  07D8               	addwf	??i1___fladd+1,f
  8170     0A2B                     u476_21:
  8171     0A2B  085D               	movf	??i1___fladd+6,w
  8172     0A2C  1803               	skipnc
  8173     0A2D  0F5D               	incfsz	??i1___fladd+6,w
  8174     0A2E  2A30               	goto	u476_22
  8175     0A2F  2A31               	goto	u476_23
  8176     0A30                     u476_22:
  8177     0A30  07D9               	addwf	??i1___fladd+2,f
  8178     0A31                     u476_23:
  8179     0A31  085E               	movf	??i1___fladd+7,w
  8180     0A32  1803               	skipnc
  8181     0A33  0A5E               	incf	??i1___fladd+7,w
  8182     0A34  07DA               	addwf	??i1___fladd+3,f
  8183     0A35  085A               	movf	??i1___fladd+3,w
  8184     0A36  00D2               	movwf	i1___fladd@b+3
  8185     0A37  0859               	movf	??i1___fladd+2,w
  8186     0A38  00D1               	movwf	i1___fladd@b+2
  8187     0A39  0858               	movf	??i1___fladd+1,w
  8188     0A3A  00D0               	movwf	i1___fladd@b+1
  8189     0A3B  0857               	movf	??i1___fladd,w
  8190     0A3C  00CF               	movwf	i1___fladd@b
  8191     0A3D                     i1l2846:
  8192     0A3D  3080               	movlw	128
  8193     0A3E  00D7               	movwf	??i1___fladd
  8194     0A3F  0857               	movf	??i1___fladd,w
  8195     0A40  06DF               	xorwf	i1___fladd@signs,f
  8196     0A41  09E2               	comf	i1___fladd@grs,f
  8197     0A42  0AE2               	incf	i1___fladd@grs,f
  8198     0A43                     i1l2848:
  8199     0A43  0862               	movf	i1___fladd@grs,w
  8200     0A44  1D03               	btfss	3,2
  8201     0A45  2A47               	goto	u477_21
  8202     0A46  2A48               	goto	u477_20
  8203     0A47                     u477_21:
  8204     0A47  2A65               	goto	i1l524
  8205     0A48                     u477_20:
  8206     0A48                     i1l2850:
  8207     0A48  3001               	movlw	1
  8208     0A49  07CF               	addwf	i1___fladd@b,f
  8209     0A4A  3000               	movlw	0
  8210     0A4B  1803               	skipnc
  8211     0A4C  3001               	movlw	1
  8212     0A4D  07D0               	addwf	i1___fladd@b+1,f
  8213     0A4E  3000               	movlw	0
  8214     0A4F  1803               	skipnc
  8215     0A50  3001               	movlw	1
  8216     0A51  07D1               	addwf	i1___fladd@b+2,f
  8217     0A52  3000               	movlw	0
  8218     0A53  1803               	skipnc
  8219     0A54  3001               	movlw	1
  8220     0A55  07D2               	addwf	i1___fladd@b+3,f
  8221     0A56  2A65               	goto	i1l524
  8222     0A57                     i1l2852:
  8223     0A57  0853               	movf	i1___fladd@a,w
  8224     0A58  02CF               	subwf	i1___fladd@b,f
  8225     0A59  0854               	movf	i1___fladd@a+1,w
  8226     0A5A  1C03               	skipc
  8227     0A5B  0F54               	incfsz	i1___fladd@a+1,w
  8228     0A5C  02D0               	subwf	i1___fladd@b+1,f
  8229     0A5D  0855               	movf	i1___fladd@a+2,w
  8230     0A5E  1C03               	skipc
  8231     0A5F  0F55               	incfsz	i1___fladd@a+2,w
  8232     0A60  02D1               	subwf	i1___fladd@b+2,f
  8233     0A61  0856               	movf	i1___fladd@a+3,w
  8234     0A62  1C03               	skipc
  8235     0A63  0F56               	incfsz	i1___fladd@a+3,w
  8236     0A64  02D2               	subwf	i1___fladd@b+3,f
  8237     0A65                     i1l524:
  8238     0A65  0852               	movf	i1___fladd@b+3,w
  8239     0A66  0451               	iorwf	i1___fladd@b+2,w
  8240     0A67  0450               	iorwf	i1___fladd@b+1,w
  8241     0A68  044F               	iorwf	i1___fladd@b,w
  8242     0A69  1D03               	skipz
  8243     0A6A  2A6C               	goto	u478_21
  8244     0A6B  2A6D               	goto	u478_20
  8245     0A6C                     u478_21:
  8246     0A6C  2A99               	goto	i1l2874
  8247     0A6D                     u478_20:
  8248     0A6D                     i1l2854:
  8249     0A6D  0862               	movf	i1___fladd@grs,w
  8250     0A6E  1D03               	btfss	3,2
  8251     0A6F  2A71               	goto	u479_21
  8252     0A70  2A72               	goto	u479_20
  8253     0A71                     u479_21:
  8254     0A71  2A99               	goto	i1l2874
  8255     0A72                     u479_20:
  8256     0A72                     i1l2856:
  8257     0A72  3000               	movlw	0
  8258     0A73  00D2               	movwf	?i1___fladd+3
  8259     0A74  3000               	movlw	0
  8260     0A75  00D1               	movwf	?i1___fladd+2
  8261     0A76  3000               	movlw	0
  8262     0A77  00D0               	movwf	?i1___fladd+1
  8263     0A78  3000               	movlw	0
  8264     0A79  00CF               	movwf	?i1___fladd
  8265     0A7A  2B15               	goto	i1l516
  8266     0A7B                     i1l2860:
  8267     0A7B  3001               	movlw	1
  8268     0A7C  00D7               	movwf	??i1___fladd
  8269     0A7D                     u480_25:
  8270     0A7D  1003               	clrc
  8271     0A7E  0DCF               	rlf	i1___fladd@b,f
  8272     0A7F  0DD0               	rlf	i1___fladd@b+1,f
  8273     0A80  0DD1               	rlf	i1___fladd@b+2,f
  8274     0A81  0DD2               	rlf	i1___fladd@b+3,f
  8275     0A82  0BD7               	decfsz	??i1___fladd,f
  8276     0A83  2A7D               	goto	u480_25
  8277     0A84                     i1l2862:
  8278     0A84  1FE2               	btfss	i1___fladd@grs,7
  8279     0A85  2A87               	goto	u481_21
  8280     0A86  2A88               	goto	u481_20
  8281     0A87                     u481_21:
  8282     0A87  2A89               	goto	i1l528
  8283     0A88                     u481_20:
  8284     0A88                     i1l2864:
  8285     0A88  144F               	bsf	i1___fladd@b,0
  8286     0A89                     i1l528:
  8287     0A89  1C62               	btfss	i1___fladd@grs,0
  8288     0A8A  2A8C               	goto	u482_21
  8289     0A8B  2A8D               	goto	u482_20
  8290     0A8C                     u482_21:
  8291     0A8C  2A90               	goto	i1l2868
  8292     0A8D                     u482_20:
  8293     0A8D                     i1l2866:
  8294     0A8D  1403               	setc
  8295     0A8E  0DE2               	rlf	i1___fladd@grs,f
  8296     0A8F  2A92               	goto	i1l2870
  8297     0A90                     i1l2868:
  8298     0A90  1003               	clrc
  8299     0A91  0DE2               	rlf	i1___fladd@grs,f
  8300     0A92                     i1l2870:
  8301     0A92  0861               	movf	i1___fladd@bexp,w
  8302     0A93  1903               	btfsc	3,2
  8303     0A94  2A96               	goto	u483_21
  8304     0A95  2A97               	goto	u483_20
  8305     0A96                     u483_21:
  8306     0A96  2A99               	goto	i1l2874
  8307     0A97                     u483_20:
  8308     0A97                     i1l2872:
  8309     0A97  3001               	movlw	1
  8310     0A98  02E1               	subwf	i1___fladd@bexp,f
  8311     0A99                     i1l2874:
  8312     0A99  1FD1               	btfss	i1___fladd@b+2,7
  8313     0A9A  2A9C               	goto	u484_21
  8314     0A9B  2A9D               	goto	u484_20
  8315     0A9C                     u484_21:
  8316     0A9C  2A7B               	goto	i1l2860
  8317     0A9D                     u484_20:
  8318     0A9D                     i1l2876:
  8319     0A9D  01E0               	clrf	i1___fladd@aexp
  8320     0A9E                     i1l2878:
  8321     0A9E  1FE2               	btfss	i1___fladd@grs,7
  8322     0A9F  2AA1               	goto	u485_21
  8323     0AA0  2AA2               	goto	u485_20
  8324     0AA1                     u485_21:
  8325     0AA1  2AB0               	goto	i1l2886
  8326     0AA2                     u485_20:
  8327     0AA2                     i1l2880:
  8328     0AA2  0862               	movf	i1___fladd@grs,w
  8329     0AA3  397F               	andlw	127
  8330     0AA4  1903               	btfsc	3,2
  8331     0AA5  2AA7               	goto	u486_21
  8332     0AA6  2AA8               	goto	u486_20
  8333     0AA7                     u486_21:
  8334     0AA7  2AAB               	goto	i1l534
  8335     0AA8                     u486_20:
  8336     0AA8                     i1l2882:
  8337     0AA8  01E0               	clrf	i1___fladd@aexp
  8338     0AA9  0AE0               	incf	i1___fladd@aexp,f
  8339     0AAA  2AB0               	goto	i1l2886
  8340     0AAB                     i1l534:
  8341     0AAB  1C4F               	btfss	i1___fladd@b,0
  8342     0AAC  2AAE               	goto	u487_21
  8343     0AAD  2AAF               	goto	u487_20
  8344     0AAE                     u487_21:
  8345     0AAE  2AB0               	goto	i1l2886
  8346     0AAF                     u487_20:
  8347     0AAF  2AA8               	goto	i1l2882
  8348     0AB0                     i1l2886:
  8349     0AB0  0860               	movf	i1___fladd@aexp,w
  8350     0AB1  1903               	btfsc	3,2
  8351     0AB2  2AB4               	goto	u488_21
  8352     0AB3  2AB5               	goto	u488_20
  8353     0AB4                     u488_21:
  8354     0AB4  2AE9               	goto	i1l537
  8355     0AB5                     u488_20:
  8356     0AB5                     i1l2888:
  8357     0AB5  3001               	movlw	1
  8358     0AB6  07CF               	addwf	i1___fladd@b,f
  8359     0AB7  3000               	movlw	0
  8360     0AB8  1803               	skipnc
  8361     0AB9  3001               	movlw	1
  8362     0ABA  07D0               	addwf	i1___fladd@b+1,f
  8363     0ABB  3000               	movlw	0
  8364     0ABC  1803               	skipnc
  8365     0ABD  3001               	movlw	1
  8366     0ABE  07D1               	addwf	i1___fladd@b+2,f
  8367     0ABF  3000               	movlw	0
  8368     0AC0  1803               	skipnc
  8369     0AC1  3001               	movlw	1
  8370     0AC2  07D2               	addwf	i1___fladd@b+3,f
  8371     0AC3                     i1l2890:
  8372     0AC3  1C52               	btfss	i1___fladd@b+3,0
  8373     0AC4  2AC6               	goto	u489_21
  8374     0AC5  2AC7               	goto	u489_20
  8375     0AC6                     u489_21:
  8376     0AC6  2AE9               	goto	i1l537
  8377     0AC7                     u489_20:
  8378     0AC7                     i1l2892:
  8379     0AC7  084F               	movf	i1___fladd@b,w
  8380     0AC8  00D7               	movwf	??i1___fladd
  8381     0AC9  0850               	movf	i1___fladd@b+1,w
  8382     0ACA  00D8               	movwf	??i1___fladd+1
  8383     0ACB  0851               	movf	i1___fladd@b+2,w
  8384     0ACC  00D9               	movwf	??i1___fladd+2
  8385     0ACD  0852               	movf	i1___fladd@b+3,w
  8386     0ACE  00DA               	movwf	??i1___fladd+3
  8387     0ACF  3001               	movlw	1
  8388     0AD0  00DB               	movwf	??i1___fladd+4
  8389     0AD1                     u490_25:
  8390     0AD1  0D5A               	rlf	??i1___fladd+3,w
  8391     0AD2  0CDA               	rrf	??i1___fladd+3,f
  8392     0AD3  0CD9               	rrf	??i1___fladd+2,f
  8393     0AD4  0CD8               	rrf	??i1___fladd+1,f
  8394     0AD5  0CD7               	rrf	??i1___fladd,f
  8395     0AD6                     u490_20:
  8396     0AD6  0BDB               	decfsz	??i1___fladd+4,f
  8397     0AD7  2AD1               	goto	u490_25
  8398     0AD8  085A               	movf	??i1___fladd+3,w
  8399     0AD9  00D2               	movwf	i1___fladd@b+3
  8400     0ADA  0859               	movf	??i1___fladd+2,w
  8401     0ADB  00D1               	movwf	i1___fladd@b+2
  8402     0ADC  0858               	movf	??i1___fladd+1,w
  8403     0ADD  00D0               	movwf	i1___fladd@b+1
  8404     0ADE  0857               	movf	??i1___fladd,w
  8405     0ADF  00CF               	movwf	i1___fladd@b
  8406     0AE0  0A61               	incf	i1___fladd@bexp,w
  8407     0AE1  1903               	btfsc	3,2
  8408     0AE2  2AE4               	goto	u491_21
  8409     0AE3  2AE5               	goto	u491_20
  8410     0AE4                     u491_21:
  8411     0AE4  2AE9               	goto	i1l537
  8412     0AE5                     u491_20:
  8413     0AE5                     i1l2894:
  8414     0AE5  3001               	movlw	1
  8415     0AE6  00D7               	movwf	??i1___fladd
  8416     0AE7  0857               	movf	??i1___fladd,w
  8417     0AE8  07E1               	addwf	i1___fladd@bexp,f
  8418     0AE9                     i1l537:
  8419     0AE9  0A61               	incf	i1___fladd@bexp,w
  8420     0AEA  1903               	btfsc	3,2
  8421     0AEB  2AED               	goto	u492_21
  8422     0AEC  2AEE               	goto	u492_20
  8423     0AED                     u492_21:
  8424     0AED  2AF3               	goto	i1l2898
  8425     0AEE                     u492_20:
  8426     0AEE                     i1l2896:
  8427     0AEE  0861               	movf	i1___fladd@bexp,w
  8428     0AEF  1D03               	btfss	3,2
  8429     0AF0  2AF2               	goto	u493_21
  8430     0AF1  2AF3               	goto	u493_20
  8431     0AF2                     u493_21:
  8432     0AF2  2B01               	goto	i1l2904
  8433     0AF3                     u493_20:
  8434     0AF3                     i1l2898:
  8435     0AF3  3000               	movlw	0
  8436     0AF4  00D2               	movwf	i1___fladd@b+3
  8437     0AF5  3000               	movlw	0
  8438     0AF6  00D1               	movwf	i1___fladd@b+2
  8439     0AF7  3000               	movlw	0
  8440     0AF8  00D0               	movwf	i1___fladd@b+1
  8441     0AF9  3000               	movlw	0
  8442     0AFA  00CF               	movwf	i1___fladd@b
  8443     0AFB                     i1l2900:
  8444     0AFB  0861               	movf	i1___fladd@bexp,w
  8445     0AFC  1D03               	btfss	3,2
  8446     0AFD  2AFF               	goto	u494_21
  8447     0AFE  2B00               	goto	u494_20
  8448     0AFF                     u494_21:
  8449     0AFF  2B01               	goto	i1l2904
  8450     0B00                     u494_20:
  8451     0B00                     i1l2902:
  8452     0B00  01DF               	clrf	i1___fladd@signs
  8453     0B01                     i1l2904:
  8454     0B01  1C61               	btfss	i1___fladd@bexp,0
  8455     0B02  2B04               	goto	u495_21
  8456     0B03  2B05               	goto	u495_20
  8457     0B04                     u495_21:
  8458     0B04  2B07               	goto	i1l2908
  8459     0B05                     u495_20:
  8460     0B05                     i1l2906:
  8461     0B05  17D1               	bsf	i1___fladd@b+2,7
  8462     0B06  2B0B               	goto	i1l545
  8463     0B07                     i1l2908:
  8464     0B07  307F               	movlw	127
  8465     0B08  00D7               	movwf	??i1___fladd
  8466     0B09  0857               	movf	??i1___fladd,w
  8467     0B0A  05D1               	andwf	i1___fladd@b+2,f
  8468     0B0B                     i1l545:
  8469     0B0B  0861               	movf	i1___fladd@bexp,w
  8470     0B0C  00D7               	movwf	??i1___fladd
  8471     0B0D  1003               	clrc
  8472     0B0E  0C57               	rrf	??i1___fladd,w
  8473     0B0F  00D2               	movwf	i1___fladd@b+3
  8474     0B10                     i1l2910:
  8475     0B10  1FDF               	btfss	i1___fladd@signs,7
  8476     0B11  2B13               	goto	u496_21
  8477     0B12  2B14               	goto	u496_20
  8478     0B13                     u496_21:
  8479     0B13  2B15               	goto	i1l546
  8480     0B14                     u496_20:
  8481     0B14                     i1l2912:
  8482     0B14  17D2               	bsf	i1___fladd@b+3,7
  8483     0B15                     i1l546:
  8484     0B15                     i1l516:
  8485     0B15  0008               	return
  8486     0B16                     __end_ofi1___fladd:
  8487     007E                     btemp	set	126	;btemp
  8488     007E                     wtemp0	set	126
  8489                           
  8490                           	psect	idloc
  8491                           
  8492                           ;Config register IDLOC0 @ 0x2000
  8493                           ;	unspecified, using default values
  8494     2000                     	org	8192
  8495     2000  3FFF               	dw	16383
  8496                           
  8497                           ;Config register IDLOC1 @ 0x2001
  8498                           ;	unspecified, using default values
  8499     2001                     	org	8193
  8500     2001  3FFF               	dw	16383
  8501                           
  8502                           ;Config register IDLOC2 @ 0x2002
  8503                           ;	unspecified, using default values
  8504     2002                     	org	8194
  8505     2002  3FFF               	dw	16383
  8506                           
  8507                           ;Config register IDLOC3 @ 0x2003
  8508                           ;	unspecified, using default values
  8509     2003                     	org	8195
  8510     2003  3FFF               	dw	16383
  8511                           
  8512                           	psect	config
  8513                           
  8514                           ;Config register CONFIG1 @ 0x2007
  8515                           ;	Oscillator Selection bits
  8516                           ;	FOSC = INTRC_NOCLKOUT, INTOSCIO oscillator: I/O function on RA6/OSC2/CLKOUT pin, I/O f
      +                          unction on RA7/OSC1/CLKIN
  8517                           ;	Watchdog Timer Enable bit
  8518                           ;	WDTE = OFF, WDT disabled and can be enabled by SWDTEN bit of the WDTCON register
  8519                           ;	Power-up Timer Enable bit
  8520                           ;	PWRTE = OFF, PWRT disabled
  8521                           ;	RE3/MCLR pin function select bit
  8522                           ;	MCLRE = OFF, RE3/MCLR pin function is digital input, MCLR internally tied to VDD
  8523                           ;	Code Protection bit
  8524                           ;	CP = OFF, Program memory code protection is disabled
  8525                           ;	Data Code Protection bit
  8526                           ;	CPD = OFF, Data memory code protection is disabled
  8527                           ;	Brown Out Reset Selection bits
  8528                           ;	BOREN = OFF, BOR disabled
  8529                           ;	Internal External Switchover bit
  8530                           ;	IESO = OFF, Internal/External Switchover mode is disabled
  8531                           ;	Fail-Safe Clock Monitor Enabled bit
  8532                           ;	FCMEN = OFF, Fail-Safe Clock Monitor is disabled
  8533                           ;	Low Voltage Programming Enable bit
  8534                           ;	LVP = OFF, RB3 pin has digital I/O, HV on MCLR must be used for programming
  8535                           ;	In-Circuit Debugger Mode bit
  8536                           ;	DEBUG = 0x1, unprogramme  8537     2007                     	org	8199
  8538     2007  20D4               	dw	8404
  8539                           
  8540                           ;Config register CONFIG2 @ 0x2008
  8541                           ;	Brown-out Reset Selection bit
  8542                           ;	BOR4V = BOR40V, Brown-out Reset set to 4.0V
  8543                           ;	Flash Program Memory Self Write Enable bits
  8544                           ;	WRT = OFF, Write protection off
  8545     2008                     	org	8200
  8546     2008  3FFF               	dw	16383

Data Sizes:
    Strings     0
    Constant    0
    Data        0
    BSS         6
    Persistent  0
    Stack       0

Auto Spaces:
    Space          Size  Autos    Used
    COMMON           14     14      14
    BANK0            80     78      80
    BANK1            80     62      66
    BANK3            96     49      49
    BANK2            96      0       0

Pointer List with Targets:

    None.

Critical Paths under _main in COMMON

    None.

Critical Paths under _isr in COMMON

    _isr->___xxtofl
    _mapear->___awdiv
    ___awdiv->___wmul
    _PWM_DUTY->___xxtofl
    _PWM_DUTY->i1___flmul
    i1___fltol->i1___flmul
    i1___flmul->i1__Umul8_16
    i1___fldiv->i1___flmul
    i1___fladd->i1___flmul

Critical Paths under _main in BANK0

    None.

Critical Paths under _isr in BANK0

    _isr->_PWM_DUTY
    _mapear->___awdiv
    _PWM_DUTY->i1___fltol
    i1___fltol->i1___fladd
    i1___fldiv->i1___flmul
    i1___fladd->i1___fldiv

Critical Paths under _main in BANK1

    _PWM_SETUP->___fldiv
    ___fltol->___fldiv
    ___flmul->__Umul8_16
    ___fldiv->___flmul
    ___fladd->___fldiv

Critical Paths under _isr in BANK1

    _isr->_PWM_DUTY

Critical Paths under _main in BANK3

    _setup->_PWM_SETUP
    _PWM_SETUP->___fltol
    ___fltol->___fladd
    ___fladd->___fldiv

Critical Paths under _isr in BANK3

    None.

Critical Paths under _main in BANK2

    None.

Critical Paths under _isr in BANK2

    None.

Call Graph Tables:

 ---------------------------------------------------------------------------------
 (Depth) Function   	        Calls       Base Space   Used Autos Params    Refs
 ---------------------------------------------------------------------------------
 (0) _main                                                 1     1      0    7890
                                             48 BANK3      1     1      0
                              _setup
 ---------------------------------------------------------------------------------
 (1) _setup                                                0     0      0    7890
                          _PWM_SETUP
 ---------------------------------------------------------------------------------
 (2) _PWM_SETUP                                            5     1      4    7890
                                             43 BANK3      5     1      4
                            ___fladd
                            ___fldiv
                            ___flmul
                            ___fltol
 ---------------------------------------------------------------------------------
 (3) ___fltol                                             10     6      4     355
                                             33 BANK3     10     6      4
                            ___fladd (ARG)
                            ___fldiv (ARG)
                            ___flmul (ARG)
 ---------------------------------------------------------------------------------
 (3) ___flmul                                             26    18      8    2517
                                             23 BANK1     26    18      8
                          __Umul8_16
 ---------------------------------------------------------------------------------
 (4) __Umul8_16                                            9     7      2     799
                                             14 BANK1      9     7      2
 ---------------------------------------------------------------------------------
 (3) ___fldiv                                             26    18      8    1373
                                             49 BANK1     13     5      8
                                              0 BANK3     13    13      0
                            ___flmul (ARG)
 ---------------------------------------------------------------------------------
 (3) ___fladd                                             20    12      8    3372
                                             13 BANK3     20    12      8
                            ___fldiv (ARG)
                            ___flmul (ARG)
 ---------------------------------------------------------------------------------
 Estimated maximum stack depth 4
 ---------------------------------------------------------------------------------
 (Depth) Function   	        Calls       Base Space   Used Autos Params    Refs
 ---------------------------------------------------------------------------------
 (5) _isr                                                  7     7      0    7387
                                              7 BANK1      7     7      0
                           _PWM_DUTY
                           ___xxtofl
                             _mapear
 ---------------------------------------------------------------------------------
 (6) _mapear                                              12     2     10    1253
                                             11 COMMON     2     2      0
                                              4 BANK0     10     0     10
                            ___awdiv
                             ___wmul
 ---------------------------------------------------------------------------------
 (7) ___wmul                                               6     2      4     244
                                              0 COMMON     6     2      4
 ---------------------------------------------------------------------------------
 (7) ___awdiv                                              9     5      4     452
                                              6 COMMON     5     1      4
                                              0 BANK0      4     4      0
                             ___wmul (ARG)
 ---------------------------------------------------------------------------------
 (6) ___xxtofl                                            14    10      4     474
                                              0 COMMON    14    10      4
 ---------------------------------------------------------------------------------
 (6) _PWM_DUTY                                             8     4      4    5660
                                             77 BANK0      1     1      0
                                              0 BANK1      7     3      4
                           ___xxtofl (ARG)
                          i1___fladd
                          i1___fldiv
                          i1___flmul
                          i1___fltol
 ---------------------------------------------------------------------------------
 (7) i1___fltol                                           10     6      4     255
                                             67 BANK0     10     6      4
                          i1___fladd (ARG)
                          i1___fldiv (ARG)
                          i1___flmul (ARG)
 ---------------------------------------------------------------------------------
 (7) i1___flmul                                           26    18      8    1867
                                              9 COMMON     5     5      0
                                              0 BANK0     21    13      8
                        i1__Umul8_16
 ---------------------------------------------------------------------------------
 (8) i1__Umul8_16                                          9     7      2     349
                                              0 COMMON     9     7      2
 ---------------------------------------------------------------------------------
 (7) i1___fldiv                                           26    18      8    1173
                                             21 BANK0     26    18      8
                          i1___flmul (ARG)
 ---------------------------------------------------------------------------------
 (7) i1___fladd                                           20    12      8    2036
                                             47 BANK0     20    12      8
                          i1___fldiv (ARG)
                          i1___flmul (ARG)
 ---------------------------------------------------------------------------------
 Estimated maximum stack depth 8
 ---------------------------------------------------------------------------------

 Call Graph Graphs:

 _main (ROOT)
   _setup
     _PWM_SETUP
       ___fladd
         ___fldiv (ARG)
           ___flmul (ARG)
             __Umul8_16
         ___flmul (ARG)
       ___fldiv
       ___flmul
       ___fltol
         ___fladd (ARG)
         ___fldiv (ARG)
         ___flmul (ARG)

 _isr (ROOT)
   _PWM_DUTY
     ___xxtofl (ARG)
     i1___fladd (ARG)
       i1___fldiv (ARG)
         i1___flmul (ARG)
           i1__Umul8_16
       i1___flmul (ARG)
     i1___fldiv (ARG)
     i1___flmul (ARG)
     i1___fltol (ARG)
       i1___fladd (ARG)
       i1___fldiv (ARG)
       i1___flmul (ARG)
   ___xxtofl
   _mapear
     ___awdiv
       ___wmul (ARG)
     ___wmul

 Address spaces:
Name               Size   Autos  Total    Cost      Usage
BITCOMMON            E      0       0       0        0.0%
EEDATA             100      0       0       0        0.0%
NULL                 0      0       0       0        0.0%
CODE                 0      0       0       0        0.0%
COMMON               E      E       E       1      100.0%
BITSFR0              0      0       0       1        0.0%
SFR0                 0      0       0       1        0.0%
BITSFR1              0      0       0       2        0.0%
SFR1                 0      0       0       2        0.0%
STACK                0      0       0       2        0.0%
ABS                  0      0      D1       3        0.0%
BITBANK0            50      0       0       4        0.0%
BITSFR3              0      0       0       4        0.0%
SFR3                 0      0       0       4        0.0%
BANK0               50     4E      50       5      100.0%
BITSFR2              0      0       0       5        0.0%
SFR2                 0      0       0       5        0.0%
BITBANK1            50      0       0       6        0.0%
BANK1               50     3E      42       7       82.5%
BITBANK3            60      0       0       8        0.0%
BANK3               60     31      31       9       51.0%
BITBANK2            60      0       0      10        0.0%
BANK2               60      0       0      11        0.0%
DATA                 0      0      D1      12        0.0%


Microchip Technology PIC Macro Assembler V2.40 build 20220703182018 
Symbol Table                                                                                   Thu Apr 13 00:14:33 2023

            ___fldiv@aexp 019C              ___fldiv@bexp 019B                         _y 00E0  
             i1___fladd@a 0053               i1___fladd@b 004F              ___fldiv@sign 0194  
             i1___fldiv@a 0035               i1___fldiv@b 0039                        l89 07FA  
            ___awdiv@sign 0021               i1___flmul@a 0024               i1___flmul@b 0020  
     ___wmul@multiplicand 0072           mapear@nuevo_max 002C           mapear@nuevo_min 002A  
     __Umul8_16@word_mpld 00B4                       l112 15F9                       l114 15FD  
                     l118 162C                       l403 14BA                       l406 14CF  
                     l503 0B71                       l507 0BF4                       l611 0359  
                     l524 0CBD                       l516 0D6D                       l620 12D4  
                     l509 0BCD                       l605 02D5                       l534 0D03  
                     l528 0CE1                       l545 0D63                       l537 0D41  
                     l561 0FFF                       l546 0D6D                       l618 12C2  
                     l396 14CF                       l581 0FDB                       l583 0FED  
                     l575 0F5B                       l559 0DE6                       l599 0365  
                     _PR2 0092                       _isr 06AB              i1___fltol@f1 0063  
           i1___fladd@grs 0062              ___flmul@aexp 00C9              ___flmul@bexp 00CA  
            ___flmul@sign 00C4              ___flmul@temp 00CF              ___flmul@prod 00CB  
           i1___fldiv@grs 0049             i1___fldiv@rem 0042              ___fltol@exp1 01BA  
                    l2050 12B8                      l2300 0D8D                      l2052 12BC  
                    l2060 1458                      l2310 0DAA                      l2302 0D92  
                    l2054 12CB                      l2046 12AF                      l2070 1480  
                    l2062 1463                      l2400 0F60                      l2320 0DC9  
                    l2312 0DB1                      l2304 0D9C                      l2056 12D0  
                    l2048 12B1                      l2072 1488                      l2402 0F67  
                    l2410 0F9C                      l2330 0DEE                      l2322 0DCE  
                    l2314 0DB9                      l2306 0D9E                      l2090 14AF  
                    l2082 1496                      l2074 148A                      l2066 146C  
                    l2420 0FD8                      l2412 0FAB                      l2404 0F77  
                    l2340 0E12                      l2332 0DFA                      l2324 0DD8  
                    l2316 0DBF                      l2308 0DA0                      l2500 019B  
                    l2092 14BF                      l2076 148E                      l2084 14A8  
                    l2068 147F                      l2422 0FDF                      l2414 0FBB  
                    l2406 0F7B                      l2350 0E5D                      l2334 0E02  
                    l2326 0DDA                      l2318 0DC2                      l2510 0233  
                    l2502 01B2                      l2094 14C4                      l3400 0B4A  
                    l2424 0FE3                      l2416 0FCA                      l2408 0F94  
                    l2360 0E8C                      l2352 0E67                      l2344 0E1D  
                    l2328 0DDC                      l2520 02A1                      l2512 0259  
                    l2504 01CF                      l2440 002F                      l2432 0021  
                    l3410 0B59                      l3402 0B4B                      l2426 0FE7  
                    l2418 0FCE                      l2370 0EE7                      l2362 0E8F  
                    l2354 0E69                      l2346 0E3B                      l2338 0E0B  
                    l2290 0D6E                      l2530 02B9                      l2522 02A5  
                    l2514 0281                      l2506 01FA                      l2450 004B  
                    l2442 0034                      l2434 0026                      l3500 0C57  
                    l3420 0B77                      l3412 0B5E                      l3404 0B4F  
                    l2380 0F08                      l2356 0E6E                      l2364 0E9D  
                    l2372 0EEF                      l2348 0E53                      l2292 0D75  
                    l2540 02DA                      l2532 02BA                      l2524 02A6  
                    l2516 028A                      l2508 0208                      l2460 005E  
                    l2452 0050                      l2444 0039                      l2436 002A  
                    l3510 0CC5                      l3502 0C95                      l3430 0B85  
                    l3422 0B7B                      l3414 0B66                      l3406 0B53  
                    l2390 0F2D                      l2382 0F0E                      l2374 0EF5  
                    l2366 0EBE                      l2358 0E86                      l2294 0D7D  
                    l2542 02DF                      l2550 0310                      l2534 02BE  
                    l2526 02AF                      l2518 0298                      l2470 007A  
                    l2462 0063                      l2454 0054                      l2446 0041  
                    l2438 002E                      l3520 0CE0                      l3512 0CCA  
                    l3504 0C9B                      l3440 0B8F                      l3432 0B87  
                    l3424 0B7F                      l3416 0B67                      l3408 0B54  
                    l2392 0F30                      l2384 0F11                      l2376 0EFD  
                    l2368 0EBF                      l2296 0D83                      l2560 0343  
                    l2552 031D                      l2544 02ED                      l2536 02D2  
                    l2528 02B5                      l2480 00A3                      l2472 007F  
                    l2464 006B                      l2456 0058                      l2448 0043  
                    l3600 1623                      l3522 0CE5                      l3530 0CF1  
                    l3506 0CA0                      l3450 0B99                      l3442 0B91  
                    l3434 0B89                      l3426 0B81                      l3418 0B69  
                    l2394 0F34                      l2386 0F1F                      l2378 0EFF  
                    l2298 0D86                      l2562 034F                      l2554 0328  
                    l2546 02F1                      l2490 013C                      l2482 00BE  
                    l2466 006D                      l2458 0059                      l3602 1627  
                    l3610 079F                      l3524 0CE8                      l3516 0CD3  
                    l3508 0CAF                      l3532 0CF5                      l3460 0BD1  
                    l3452 0B9B                      l3444 0B93                      l3436 0B8B  
                    l3428 0B83                      l3380 0B1F                      l2396 0F56  
                    l2388 0F27                      l2564 0353                      l2556 0337  
                    l2548 030A                      l2492 0145                      l2484 00DA  
                    l2476 0088                      l2468 0075                      l3604 1628  
                    l3620 07B3                      l3612 07A3                      l3550 0D3D  
                    l3542 0D08                      l3534 0CF6                      l3526 0CEA  
                    l3518 0CDC                      l3470 0BE8                      l3462 0BD8  
                    l3446 0B95                      l3438 0B8D                      l3454 0B9D  
                    l3390 0B36                      l3382 0B23                      l2566 0354  
                    l2558 0341                      l2494 0153                      l2486 0104  
                    l2478 0096                      l3606 1629                      l3630 07BB  
                    l3622 07B4                      l3614 07A4                      l3560 0D59  
                    l3552 0D46                      l3544 0D0D                      l3536 0CFA  
                    l3528 0CEF                      l3480 0C06                      l3464 0BDA  
                    l3472 0BEC                      l3456 0B9E                      l3448 0B97  
                    l3392 0B37                      l3384 0B24                      l3376 0B16  
                    l2568 035D                      l2496 0170                      l2488 0120  
                    l3640 07CA                      l3632 07BF                      l3624 07B5  
                    l3616 07AF                      l3562 0D5D                      l3554 0D4B  
                    l3546 0D1B                      l3538 0D00                      l3490 0C2E  
                    l3482 0C1D                      l3474 0BF8                      l3466 0BDE  
                    l3458 0BB5                      l3386 0B29                      l3394 0B39  
                    l3378 0B1B                      l2498 017E                      l3570 157F  
                    l3650 07D6                      l3642 07CC                      l3634 07C2  
                    l3626 07B6                      l3618 07B2                      l3564 0D5F  
                    l3556 0D53                      l3548 0D1F                      l3492 0C32  
                    l3484 0C21                      l3476 0BFD                      l3468 0BDF  
                    l3396 0B41                      l3388 0B2E                      l3580 1605  
                    l3572 15F3                      l3660 07EA                      l3652 07D7  
                    l3644 07CD                      l3636 07C3                      l3628 07B7  
                    l3566 0D68                      l3558 0D58                      l3494 0C33  
                    l3486 0C25                      l3398 0B44                      l3590 1612  
                    l3582 1608                      l3574 15F6                      l3654 07D8  
                    l3646 07D0                      l3638 07C4                      l3670 138F  
                    l3568 0D6C                      l3496 0C3C                      l3488 0C2C  
                    l3592 1613                      l3584 160B                      l3576 15F8  
                    l3656 07D9                      l3648 07D3                      l3680 13BF  
                    l3672 1396                      l3664 1375                      l3498 0C41  
                    l3586 160D                      l3594 1617                      l3578 15FE  
                    l3658 07DA                      l3682 13C7                      l3674 13A3  
                    l3666 137A                      l3596 161D                      l3588 1611  
                    l3676 13AB                      l3684 13CB                      l3668 1387  
                    l3598 1620                      l3686 13D1                      l3678 13B2  
                    l3688 13D9                      ?_isr 0070                      _T0IF 005A  
                    u3000 148E                      u3001 148D                      u3010 1495  
                    u3011 1494                      u3030 14A7                      u3031 14A6  
                    u3040 14AE                      u4001 01C1                      u3041 14AD  
                    u3025 1497                      u4002 01C8                      u4011 01EC  
                    u4003 01CF                      u4012 01F3                      u3060 14BF  
                    u4021 0217                      u4013 01FA                      u3061 14BE  
                    u4110 02B9                      u4030 023F                      u4022 021E  
                    u3070 14C4                      u4111 02B8                      u4023 0225  
                    u3071 14C3                      u3055 14B1                      u4200 0353  
                    u4120 02BE                      u4201 0352                      u4121 02BD  
                    u4105 02A8                      u4041 024B                      u4130 02D2  
                    u4050 0267                      u4042 0252                      u4131 02D1  
                    u4043 0259                      u4035 023A                      u4140 02D9  
                    u4141 02D8                      u4061 0273                      u4150 02DF  
                    u4062 027A                      u4151 02DE                      u4063 0281  
                    u4055 0262                      u6000 0BC0                      u3600 0DEE  
                    u4160 02F1                      u6001 0BBE                      u3601 0DED  
                    u4161 02F0                      u6010 0BC1                      u3610 0E12  
                    u4170 0300                      u4090 02A5                      u3611 0E11  
                    u4091 02A4                      u4075 0283                      u6100 0C25  
                    u6020 0BD1                      u3700 0EFD                      u3620 0E6E  
                    u3540 0D83                      u4180 031D                      u6101 0C24  
                    u6021 0BD0                      u3701 0EFC                      u3621 0E6D  
                    u3541 0D82                      u4181 031C                      u4085 029A  
                    u6110 0C32                      u6030 0BDE                      u3550 0D8D  
                    u4190 0337                      u6111 0C31                      u6031 0BDD  
                    u3551 0D8C                      u4191 0336                      u4175 02FB  
                    u6200 0CE0                      u3800 0F8A                      u3720 0F0E  
                    u3560 0D92                      u6201 0CDF                      u3721 0F0D  
                    u3561 0D91                      u4185 0319                      u6210 0CE5  
                    u6130 0C57                      u6050 0BF4                      u3810 0FAB  
                    u3650 0E8C                      u3570 0DBF                      u6211 0CE4  
                    u6131 0C56                      u6051 0BF3                      u3811 0FAA  
                    u3715 0F01                      u3651 0E8B                      u3635 0E72  
                    u3571 0DBE                      u4195 0333                      u6300 0D3D  
                    u6220 0CEF                      u6060 0BF8                      u3820 0FCA  
                    u3740 0F2D                      u3580 0DC9                      u3900 007A  
                    u6301 0D3C                      u6221 0CEE                      u6141 0C6E  
                    u6133 0C53                      u6125 0C35                      u6061 0BF7  
                    u6045 0BE1                      u3821 0FC9                      u3805 0F85  
                    u3741 0F2C                      u3645 0E7F                      u3581 0DC8  
                    u3901 0079                      u6310 0D46                      u6230 0CF5  
                    u6150 0C82                      u6142 0C6F                      u6070 0BFD  
                    u3830 0FE3                      u3750 0F34                      u3670 0EBE  
                    u3590 0DCE                      u2950 12BC                      u3910 007F  
                    u6311 0D45                      u6231 0CF4                      u6151 0C83  
                    u6143 0C74                      u6071 0BFC                      u3831 0FE2  
                    u3815 0FA7                      u3751 0F33                      u3735 0F14  
                    u3671 0EBD                      u3591 0DCD                      u2951 12BB  
                    u3911 007E                      u6320 0D4B                      u6240 0CFA  
                    u6160 0CA0                      u6152 0C88                      u6144 0C75  
                    u3760 0F56                      u3680 0EE3                      u3840 002E  
                    u6400 13A3                      u6321 0D4A                      u6241 0CF9  
                    u6161 0C9F                      u6153 0C89                      u6145 0C7A  
                    u6081 0C0F                      u3825 0FC6                      u3761 0F55  
                    u3665 0E92                      u3921 00CC                      u3841 002D  
                    u6401 13A2                      u6330 0D58                      u6250 0D00  
                    u6170 0CC5                      u6146 0C7B                      u6090 0C21  
                    u6082 0C16                      u3770 0F5F                      u3690 0EF5  
                    u2970 12D0                      u3922 00D3                      u3850 0034  
                    u6410 13BF                      u6331 0D57                      u6251 0CFF  
                    u6171 0CC4                      u6091 0C20                      u6083 0C1D  
                    u3771 0F5E                      u3691 0EF4                      u3675 0EBA  
                    u2971 12CF                      u3931 00E8                      u3923 00DA  
                    u3851 0033                      u6411 13BE                      u6340 0D5D  
                    u6260 0D07                      u6180 0CCA                      u3780 0F67  
                    u3932 00EF                      u3860 0039                      u2980 1463  
                    u6420 13D1                      i1l61 06D6                      u6341 0D5C  
                    u6261 0D06                      u6181 0CC9                      u3781 0F66  
                    u3685 0ECC                      u2965 12C3                      u3941 0112  
                    u3933 00F6                      u3861 0038                      u2981 1462  
                    u6421 13D0                      u6350 0D6C                      u6270 0D0D  
                    u3790 0F7B                      u3686 0ECF                      u3942 0119  
                    u3870 0058                      u2990 147A                      u6351 0D6B  
                    u6271 0D0C                      u3791 0F7A                      u3687 0ED6  
                    u3951 012E                      u3943 0120                      u3871 0057  
                    u6280 0D1F                      u3688 0ED9                      u3952 0135  
                    u3880 005E                      u6360 15FD                      u6281 0D1E  
                    u3689 0EE0                      u3953 013C                      u3881 005D  
                    u6361 15FC                      u6290 0D2E                      u3890 0063  
                    u6370 1605                      u6195 0CD5                      u3971 0162  
                    u3891 0062                      u2995 1475                      u6371 1604  
                    u5900 0B23                      u3972 0169                      u6380 161D  
                    i1l69 0794                      u5901 0B22                      u3981 018D  
                    u3973 0170                      u3965 013E                      u6381 161C  
                    u6437 138B                      i1l86 130B                      u5910 0B29  
                    u3982 0194                      u6390 1387                      u6295 0D29  
                    u5911 0B28                      u3983 019B                      u6447 13A7  
                    u6391 1386                      u5920 0B2E                      u5921 0B2D  
                    u6457 13C3                      u5930 0B4A                      u5931 0B49  
                    u3995 019D                      u6467 13D5                      u5940 0B53  
                    u5941 0B52                      u5950 0B59                      u5951 0B58  
                    u5960 0B5E                      u5961 0B5D                      u5970 0B77  
                    u5971 0B76                      u5980 0B7B                      u5981 0B7A  
                    u5990 0BB5                      u5991 0BB4                      u5995 0BB1  
                    _TMR0 0001                      _main 1375             i1___flmul@grs 0029  
                    btemp 007E            i1___fladd@aexp 0060            i1___fladd@bexp 0061  
                    start 0010         mapear@nuevo_valor 007B           ___fldiv@new_exp 0195  
                   ??_isr 00A7            i1___fldiv@aexp 004E            i1___fldiv@bexp 004D  
          i1___fldiv@sign 0046             ___fltol@sign1 01B9           __end_of___fladd 0D6E  
                   ?_main 0070           __end_of___fldiv 1000           __end_of___awdiv 1375  
         __end_of___flmul 0366           __end_of___fltol 14D0                     _ANSEL 0188  
         ___awdiv@divisor 0076                     i1l210 126C                     i1l124 157B  
                   i1l212 1284                     i1l403 1442                     i1l406 1457  
                   i1l503 0919                     i1l507 099C                     i1l611 069E  
                   i1l363 1374                     i1l524 0A65                     i1l516 0B15  
                   i1l620 12AB                     i1l509 0975                     i1l605 061A  
                   i1l534 0AAB                     i1l528 0A89                     i1l545 0B0B  
                   i1l537 0AE9                     i1l561 17FF                     i1l546 0B15  
                   i1l618 1299                     i1l643 0828                     i1l396 1457  
                   i1l581 17E7                     i1l645 08BD                     i1l583 17F5  
                   i1l575 1775                     i1l559 1683                     i1l656 0887  
                   i1l657 0893                     i1l649 086B                     i1l599 06AA  
         ___awdiv@counter 0020                     _PORTA 0005                     _PORTB 0006  
                   _PORTC 0007                     _TRISA 0085                     _TRISB 0086  
                   _TRISC 0087                     _cont0 006E            i1___flmul@aexp 002D  
          i1___flmul@bexp 002E            i1___flmul@sign 0028            i1___flmul@temp 0033  
          i1___flmul@prod 002F                     _setup 079F          __end_of_PWM_DUTY 157C  
                   pclath 000A            i1___fltol@exp1 006C              PWM_DUTY@duty 00A0  
                   status 0003                     wtemp0 007E           i1___fladd@signs 005F  
             mapear@valor 0024           __initialization 0013              __end_of_main 13E0  
                  ??_main 01C0                    _ADRESH 001E                    _CCPR1L 0015  
                  _CCPR2L 001B          ___awdiv@dividend 0078                    ?_setup 0070  
                  _ANSELH 0189                    i1l3000 1736                    i1l3010 174F  
                  i1l3002 1738                    i1l3020 1772                    i1l3004 1741  
                  i1l3012 1755                    i1l3100 03CD                    i1l3030 1791  
                  i1l3014 1759                    i1l3006 1745                    i1l3110 0449  
                  i1l3102 03DB                    i1l3040 17DA                    i1l3032 17AA  
                  i1l3024 177A                    i1l3016 175A                    i1l3008 1746  
                  i1l3120 04B5                    i1l3112 0465                    i1l3104 03E8  
                  i1l3200 1544                    i1l3050 17F1                    i1l3042 17DE  
                  i1l3026 177F                    i1l3034 17B0                    i1l3018 175E  
                  i1l3130 053F                    i1l3122 04C3                    i1l3114 0481  
                  i1l3106 0403                    i1l3210 156D                    i1l3202 1548  
                  i1l3044 17E6                    i1l3036 17BD                    i1l3028 178D  
                  i1l3140 05CF                    i1l3132 054D                    i1l3124 04E0  
                  i1l3116 048A                    i1l3108 041F                    i1l3060 036F  
                  i1l3204 1556                    i1l3300 087D                    i1l3046 17EB  
                  i1l3038 17CB                    i1l3150 05F4                    i1l3142 05DD  
                  i1l3134 0578                    i1l3126 04F7                    i1l3118 0498  
                  i1l3070 0386                    i1l3062 0373                    i1l3206 155C  
                  i1l3310 08B0                    i1l3302 0881                    i1l3214 12D5  
                  i1l3048 17EF                    i1l3160 0617                    i1l3144 05E6  
                  i1l3152 05FA                    i1l3136 059E                    i1l3128 0514  
                  i1l3080 039D                    i1l3072 0388                    i1l3064 0374  
                  i1l3056 0366                    i1l3208 1560                    i1l3312 08B4  
                  i1l3304 088B                    i1l3216 1307                    i1l3320 06AF  
                  i1l3170 0636                    i1l3154 05FE                    i1l3146 05EA  
                  i1l3138 05C6                    i1l3090 03B2                    i1l3082 039E  
                  i1l3074 0390                    i1l3066 0379                    i1l3058 036B  
                  i1l3314 08B5                    i1l3306 0895                    i1l3330 06E1  
                  i1l3322 06B8                    i1l3180 067C                    i1l3172 064F  
                  i1l3164 061F                    i1l3156 05FF                    i1l3148 05EB  
                  i1l3092 03BA                    i1l3084 03A3                    i1l3076 0395  
                  i1l3068 037E                    i1l2700 1416                    i1l3308 08AB  
                  i1l3340 0727                    i1l3324 06BA                    i1l3332 06E2  
                  i1l3190 0699                    i1l3182 0686                    i1l3166 0624  
                  i1l3174 0655                    i1l3158 0603                    i1l3094 03BF  
                  i1l3086 03A8                    i1l3078 0399                    i1l2630 1266  
                  i1l3342 074F                    i1l3334 06E7                    i1l3326 06D2  
                  i1l3318 06AB                    i1l2800 0946                    i1l2720 08BE  
                  i1l3192 06A2                    i1l3184 0688                    i1l3176 0662  
                  i1l3168 0632                    i1l3096 03C4                    i1l3088 03B0  
                  i1l3280 0820                    i1l2640 130C                    i1l2632 1273  
                  i1l3344 075C                    i1l3336 06F2                    i1l3328 06D9  
                  i1l2810 0986                    i1l2802 095D                    i1l2730 08D1  
                  i1l2722 08C3                    i1l3186 0694                    i1l3178 066D  
                  i1l2714 1437                    i1l2706 141E                    i1l3290 0849  
                  i1l3282 0830                    i1l3274 0807                    i1l2650 131E  
                  i1l2642 130F                    i1l2634 127A                    i1l2626 1260  
                  i1l3346 078D                    i1l3338 071A                    i1l2900 0AFB  
                  i1l2820 09A5                    i1l2812 0987                    i1l2804 0979  
                  i1l2740 08E9                    i1l2732 08D6                    i1l2724 08C7  
                  i1l2580 12A2                    i1l2572 1286                    i1l3188 0698  
                  i1l2716 1447                    i1l2708 1430                    i1l3196 14D3  
                  i1l3292 0850                    i1l3276 080C                    i1l2660 1332  
                  i1l2652 1323                    i1l2644 1313                    i1l2636 1280  
                  i1l2628 1262                    i1l3348 0791                    i1l2910 0B10  
                  i1l2902 0B00                    i1l2830 09CD                    i1l2814 0990  
                  i1l2806 0980                    i1l2750 08FB                    i1l2742 08EC  
                  i1l2734 08DE                    i1l2726 08CB                    i1l2582 12A7  
                  i1l2574 1288                    i1l2718 144C                    i1l3198 153F  
                  i1l3294 0854                    i1l3286 0839                    i1l3278 0810  
                  i1l2670 1358                    i1l2662 1339                    i1l2654 1327  
                  i1l2646 1318                    i1l2912 0B14                    i1l2904 0B01  
                  i1l2840 09E4                    i1l2832 09D4                    i1l2824 09AE  
                  i1l2808 0982                    i1l2816 0994                    i1l2760 090F  
                  i1l2752 08FC                    i1l2744 08F2                    i1l2736 08DF  
                  i1l2728 08CC                    i1l2920 163A                    i1l2576 128F  
                  i1l3296 0862                    i1l3288 083C                    i1l2680 1370  
                  i1l2672 1359                    i1l2664 133D                    i1l2656 1329  
                  i1l2648 131A                    i1l2906 0B05                    i1l2850 0A48  
                  i1l2834 09D6                    i1l2826 09C5                    i1l2818 09A0  
                  i1l2842 09E9                    i1l2770 0929                    i1l2754 0901  
                  i1l2762 0911                    i1l2746 08F3                    i1l2738 08E1  
                  i1l2930 164E                    i1l2922 163B                    i1l2914 162D  
                  i1l2578 1293                    i1l2690 13F4                    i1l3298 0872  
                  i1l2674 1360                    i1l2666 1341                    i1l2658 132F  
                  i1l2908 0B07                    i1l2860 0A7B                    i1l2844 09FF  
                  i1l2852 0A57                    i1l2836 09DA                    i1l2828 09C9  
                  i1l2780 0933                    i1l2772 092B                    i1l2764 091F  
                  i1l2756 0906                    i1l2748 08F7                    i1l2940 1665  
                  i1l2924 1640                    i1l2932 1650                    i1l2916 1632  
                  i1l2692 1407                    i1l2684 13E0                    i1l2668 1352  
                  i1l2676 1366                    i1l2870 0A92                    i1l2862 0A84  
                  i1l2854 0A6D                    i1l2846 0A3D                    i1l2838 09DB  
                  i1l2790 093D                    i1l2782 0935                    i1l2774 092D  
                  i1l2766 0923                    i1l2758 090E                    i1l2950 1679  
                  i1l2942 1666                    i1l2934 1658                    i1l2926 1645  
                  i1l2918 1636                    i1l2694 1408                    i1l2686 13EB  
                  i1l2678 136B                    i1l2880 0AA2                    i1l2872 0A97  
                  i1l2864 0A88                    i1l2856 0A72                    i1l2848 0A43  
                  i1l2792 093F                    i1l2784 0937                    i1l2776 092F  
                  i1l2768 0927                    i1l2944 166B                    i1l2952 167B  
                  i1l2936 165D                    i1l2928 164D                    i1l2696 1410  
                  i1l2890 0AC3                    i1l2882 0AA8                    i1l2866 0A8D  
                  i1l2874 0A99                    i1l2794 0941                    i1l2786 0939  
                  i1l2778 0931                    i1l2970 16C4                    i1l2954 168B  
                  i1l2962 16A4                    i1l2946 1670                    i1l2938 1661  
                  i1l2698 1412                    i1l2892 0AC7                    i1l2868 0A90  
                  i1l2876 0A9D                    i1l2796 0943                    i1l2788 093B  
                  i1l2980 16E3                    i1l2972 16CC                    i1l2964 16A9  
                  i1l2956 1697                    i1l2948 1678                    i1l2894 0AE5  
                  i1l2886 0AB0                    i1l2878 0A9E                    i1l2798 0945  
                  i1l2990 1715                    i1l2982 16F5                    i1l2974 16D4  
                  i1l2958 169B                    i1l2896 0AEE                    i1l2888 0AB5  
                  i1l2992 1716                    i1l2984 16F9                    i1l2976 16DC  
                  i1l2968 16B2                    i1l2898 0AF3                    i1l2994 1724  
                  i1l2986 16FA                    i1l2978 16DE                    i1l2988 1703  
                  i1l2996 1728                    i1l2998 172E                    u500_20 1665  
                  u500_21 1664                    u501_20 166B                    u421_20 1293  
                  u501_21 166A                    u421_21 1292                    u510_20 1715  
                  u502_20 1670                    u430_20 1280                    u510_21 1714  
                  u502_21 166F                    u430_21 127F                    u510_25 1711  
                  u422_25 129A                    u511_20 172E                    u503_20 168B  
                  u423_20 12A7                    u431_20 1313                    u511_21 172D  
                  u503_21 168A                    u423_21 12A6                    u431_21 1312  
                  u520_20 177F                    u512_20 1736                    u504_20 16A9  
                  u440_20 136B                    u432_20 131E                    u520_21 177E  
                  u512_21 1735                    u504_21 16A8                    u440_21 136A  
                  u432_21 131D                    u521_20 1791                    u505_20 16E3  
                  u441_20 13EB                    u433_20 132F                    u521_21 1790  
                  u505_21 16E2                    u441_21 13EA                    u433_21 132E  
                  u513_25 173A                    u522_20 17A0                    u514_20 1745  
                  u530_20 03A3                    u450_20 144C                    u442_20 1402  
                  u514_21 1744                    u530_21 03A2                    u450_21 144B  
                  u522_25 179B                    u506_25 16E5                    u442_25 13FD  
                  u434_25 1333                    u451_20 08CB                    u523_20 17BD  
                  u531_20 03A8                    u443_20 1416                    u435_20 1341  
                  u427_20 1266                    u451_21 08CA                    u523_21 17BC  
                  u531_21 03A7                    u443_21 1415                    u435_21 1340  
                  u427_21 1265                    u523_25 17B9                    u515_25 1748  
                  u507_25 16EE                    u460_20 095D                    u452_20 08D1  
                  u524_20 17DA                    u516_20 1759                    u508_20 16F9  
                  u532_20 03BF                    u444_20 141D                    u460_21 095C  
                  u452_21 08D0                    u524_21 17D9                    u516_21 1758  
                  u508_21 16F8                    u540_21 04D2                    u532_21 03BE  
                  u444_21 141C                    u540_22 04D9                    u540_23 04E0  
                  u460_25 0959                    u524_25 17D6                    u436_25 1342  
                  u428_25 126D                    u461_20 0968                    u453_20 08D6  
                  u525_20 17EF                    u517_20 175E                    u533_20 03C4  
                  u437_20 1352                    u461_21 0966                    u453_21 08D5  
                  u525_21 17EE                    u517_21 175D                    u533_21 03C3  
                  u437_21 1351                    u509_25 16FC                    u541_25 04E2  
                  u445_25 141F                    u437_25 134E                    u429_25 1274  
                  u470_20 09C9                    u462_20 0969                    u454_20 08F2  
                  u518_20 1772                    u526_20 0373                    u446_20 142F  
                  u470_21 09C8                    u454_21 08F1                    u518_21 1771  
                  u542_21 0506                    u534_21 0411                    u526_21 0372  
                  u446_21 142E                    u542_22 050D                    u534_22 0418  
                  u542_23 0514                    u534_23 041F                    u550_25 05DF  
                  u438_25 135A                    u471_20 09CD                    u463_20 0979  
                  u455_20 08FB                    u519_20 1779                    u551_20 05EA  
                  u527_20 0379                    u447_20 1436                    u439_20 1366  
                  u471_21 09CC                    u463_21 0978                    u455_21 08FA  
                  u519_21 1778                    u551_21 05E9                    u543_21 0531  
                  u535_21 042D                    u527_21 0378                    u447_21 1435  
                  u439_21 1365                    u543_22 0538                    u535_22 0434  
                  u543_23 053F                    u535_23 043B                    u472_20 09DA  
                  u464_20 0986                    u456_20 0901                    u560_20 0662  
                  u528_20 037E                    u472_21 09D9                    u464_21 0985  
                  u456_21 0900                    u560_21 0661                    u544_21 055C  
                  u536_21 0457                    u528_21 037D                    u544_22 0563  
                  u536_22 045E                    u544_23 056A                    u536_23 0465  
                  u480_25 0A7D                    u560_25 065E                    u552_25 05ED  
                  u448_25 1439                    u481_20 0A88                    u457_20 0906  
                  u561_20 067C                    u553_20 05FE                    u545_20 0584  
                  u529_20 039D                    u449_20 1447                    u481_21 0A87  
                  u457_21 0905                    u561_21 067B                    u553_21 05FD  
                  u537_21 0473                    u529_21 039C                    u449_21 1446  
                  u537_22 047A                    u537_23 0481                    u473_25 09DD  
                  u465_25 0989                    u561_25 0678                    u545_25 057F  
                  u490_20 0AD6                    u482_20 0A8D                    u474_20 09FF  
                  u466_20 099C                    u458_20 091F                    u562_20 0698  
                  u554_20 0603                    u482_21 0A8C                    u474_21 09FE  
                  u466_21 099B                    u458_21 091E                    u562_21 0697  
                  u554_21 0602                    u546_21 0590                    u546_22 0597  
                  u474_23 09FB                    u546_23 059E                    u490_25 0AD1  
                  u538_25 0483                    u570_25 0863                    u491_20 0AE5  
                  u483_20 0A97                    u467_20 09A0                    u459_20 0923  
                  u555_20 0617                    u547_20 05AC                    u563_20 1544  
                  u571_20 0871                    u491_21 0AE4                    u483_21 0A96  
                  u475_21 0A16                    u467_21 099F                    u459_21 0922  
                  u555_21 0616                    u539_21 04A7                    u563_21 1543  
                  u571_21 0870                    u475_22 0A17                    u539_22 04AE  
                  u475_23 0A1C                    u539_23 04B5                    u475_24 0A1D  
                  u475_25 0A22                    u547_25 05A7                    u475_26 0A23  
                  u492_20 0AEE                    u484_20 0A9D                    u476_20 0A2A  
                  u468_20 09A5                    u556_20 061E                    u564_20 155C  
                  u580_20 06B8                    u492_21 0AED                    u484_21 0A9C  
                  u476_21 0A2B                    u468_21 09A4                    u556_21 061D  
                  u548_21 05B8                    u564_21 155B                    u580_21 06B7  
                  u476_22 0A30                    u548_22 05BF                    u476_23 0A31  
                  u548_23 05C6                    u572_25 0876                    u493_20 0AF3  
                  u485_20 0AA2                    u477_20 0A48                    u557_20 0624  
                  u573_20 0881                    u565_20 080C                    u581_20 06D2  
                  u493_21 0AF2                    u485_21 0AA1                    u477_21 0A47  
                  u469_21 09B7                    u557_21 0623                    u573_21 0880  
                  u565_21 080B                    u581_21 06D1                    u469_22 09BE  
                  u469_23 09C5                    u549_25 05C8                    u581_25 06CE  
                  u494_20 0B00                    u486_20 0AA8                    u478_20 0A6D  
                  u558_20 0636                    u574_20 0887                    u566_20 0810  
                  u582_20 06E7                    u494_21 0AFF                    u486_21 0AA7  
                  u478_21 0A6C                    u558_21 0635                    u574_21 0886  
                  u566_21 080F                    u582_21 06E6                    u495_20 0B05  
                  u487_20 0AAF                    u479_20 0A72                    u559_20 0645  
                  u575_20 088B                    u567_20 0830                    u583_20 06F2  
                  u495_21 0B04                    u487_21 0AAE                    u479_21 0A71  
                  u575_21 088A                    u567_21 082F                    u583_21 06F1  
                  u559_25 0640                    u496_20 0B14                    u488_20 0AB5  
                  u576_20 08A0                    u584_20 0727                    u496_21 0B13  
                  u488_21 0AB4                    u584_21 0726                    u576_25 089B  
                  u568_25 0841                    u489_20 0AC7                    u497_20 163A  
                  u577_20 08B0                    u569_20 084F                    u585_20 075C  
                  u489_21 0AC6                    u497_21 1639                    u577_21 08AF  
                  u569_21 084E                    u585_21 075B                    u498_20 1640  
                  u578_20 08B4                    u498_21 163F                    u578_21 08B3  
                  u499_20 1645                    u579_20 06AF                    u499_21 1644  
                  u579_21 06AE          __end_of___xxtofl 08BE                 ??___fladd 01A5  
                  ___wmul 1260                 ??___fldiv 00D9                 ??___awdiv 007A  
               ??___flmul 00BF                 ??___fltol 01B5                    _mapear 12D5  
        ___awdiv@quotient 0022         __end_of_PWM_SETUP 162D         __end_ofi1___fladd 0B16  
       __end_ofi1___fldiv 1800         __end_ofi1___flmul 06AB         __end_ofi1___fltol 1458  
                  saved_w 007E           i1___fltol@sign1 006B              ___xxtofl@arg 007A  
            ___xxtofl@exp 0079              ___xxtofl@val 0070   __end_of__initialization 001D  
              ___fltol@f1 01B1              ?i1__Umul8_16 0070            __pcstackCOMMON 0070  
           __end_of_setup 07FB                 ?_PWM_DUTY 00A0            _OPTION_REGbits 0081  
        PWM_SETUP@channel 01BF                   ??_setup 00DE                __pbssBANK0 006E  
              __pbssBANK1 00DE         __end_of__Umul8_16 12D5                __pmaintext 1375  
                 ?___wmul 0070                __pintentry 0004                   _CCP1CON 0017  
                 _CCP2CON 001D                   ?_mapear 0024                ??_PWM_DUTY 006D  
               ?___xxtofl 0070       i1__Umul8_16@product 0074                   ___fladd 0B16  
                 ___fldiv 0D6E                   ___awdiv 130C                   ___flmul 0021  
                 ___fltol 1458                   __ptext1 079F                   __ptext2 157C  
                 __ptext3 1458                   __ptext4 0021                   __ptext5 12AC  
                 __ptext6 0D6E                   __ptext7 0B16                   __ptext8 06AB  
                 __ptext9 12D5                 _T2CONbits 0012                ??___xxtofl 0074  
    end_of_initialization 001D     i1__Umul8_16@word_mpld 0076                 _PORTCbits 0007  
             ___fladd@grs 01B0             ___xxtofl@sign 0078                 _TRISCbits 0087  
               _PWM_SETUP 157C                 i1___fladd 08BE                 i1___fldiv 162D  
               i1___flmul 0366               ___fldiv@grs 0197                 i1___fltol 13E0  
             ___fldiv@rem 0190               ___flmul@grs 00C5               _CCP1CONbits 0017  
             _CCP2CONbits 001D       PWM_SETUP@periodo_ms 01BB            __end_of___wmul 1285  
          __end_of_mapear 130C       start_initialization 0013                ?_PWM_SETUP 01BB  
              ?i1___fladd 004F                ?i1___fldiv 0035               __end_of_isr 079F  
              ?i1___flmul 0020                ?i1___fltol 0063                  ??___wmul 0074  
               __Umul8_16 12AC                  ??_mapear 007B                 ___fladd@a 01A1  
               ___fladd@b 019D                 ___fldiv@a 00D1                 ___fldiv@b 00D5  
               ___flmul@a 00BB                 ___flmul@b 00B7                 ___latbits 0002  
           __pcstackBANK0 0020             __pcstackBANK1 00A0             __pcstackBANK3 0190  
       i1___fldiv@new_exp 0047  i1__Umul8_16@multiplicand 0070                  ?___fladd 019D  
                ?___fldiv 00D1                  ?___awdiv 0076                  ?___flmul 00B7  
                ?___fltol 01B1                ?__Umul8_16 00AE                 _manualPWM 00DE  
             ??_PWM_SETUP 00DE               ??i1___fladd 0057               ??i1___fldiv 003D  
             ??i1___flmul 0079               ??i1___fltol 0067         interrupt_function 0004  
          ___wmul@product 0074                  _PIE1bits 008C                  _PIR1bits 000C  
                _PWM_DUTY 14D0                _ADCON0bits 001F                _ADCON1bits 009F  
       ___wmul@multiplier 0070             ??i1__Umul8_16 0072               ??__Umul8_16 00B0  
                ___xxtofl 0806                  __ptext10 1260                  __ptext11 130C  
                __ptext12 0806                  __ptext13 14D0                  __ptext14 13E0  
                __ptext15 0366                  __ptext16 1285                  __ptext17 162D  
                __ptext18 08BE       __end_ofi1__Umul8_16 12AC                _INTCONbits 000B  
        PWM_DUTY@duty_var 00A5                  intlevel1 0000    i1__Umul8_16@multiplier 0078  
              _OSCCONbits 008F           PWM_DUTY@channel 00A4    __Umul8_16@multiplicand 00AE  
           ___fladd@signs 01AD              ___fladd@aexp 01AE              ___fladd@bexp 01AF  
    __Umul8_16@multiplier 00B6           mapear@rango_max 0028           mapear@rango_min 0026  
             i1__Umul8_16 1285         __Umul8_16@product 00B2  
