

Microchip MPLAB XC8 Assembler V2.40 build 20220703182018 
                                                                                               Wed May 31 18:04:22 2023

Microchip MPLAB XC8 C Compiler v2.40 (Free license) build 20220703182018 Og1 
     1                           	processor	16F887
     2                           	pagewidth 120
     3                           	opt	flic
     4                           	psect	cinit,global,class=CODE,merge=1,delta=2
     5                           	psect	bssBANK0,global,class=BANK0,space=1,delta=1,noexec
     6                           	psect	clrtext,global,class=CODE,delta=2
     7                           	psect	cstackCOMMON,global,class=COMMON,space=1,delta=1,noexec
     8                           	psect	cstackBANK0,global,class=BANK0,space=1,delta=1,noexec
     9                           	psect	maintext,global,class=CODE,split=1,delta=2
    10                           	psect	text1,local,class=CODE,merge=1,delta=2
    11                           	psect	text2,local,class=CODE,merge=1,delta=2
    12                           	psect	text3,local,class=CODE,merge=1,delta=2
    13                           	psect	text4,local,class=CODE,merge=1,delta=2
    14                           	psect	intentry,global,class=CODE,delta=2
    15                           	psect	text5,local,class=CODE,merge=1,delta=2
    16                           	psect	text6,local,class=CODE,merge=1,delta=2,group=1
    17                           	psect	text7,local,class=CODE,merge=1,delta=2,group=1
    18                           	psect	text8,local,class=CODE,merge=1,delta=2
    19                           	psect	text9,local,class=CODE,merge=1,delta=2
    20                           	psect	idloc,global,abs,ovrld,class=IDLOC,space=5,delta=2,noexec
    21                           	psect	config,global,abs,ovrld,class=CONFIG,space=4,delta=2,noexec
    22                           	dabs	1,0x7E,2
    23     0000                     
    24                           ; Version 2.40
    25                           ; Generated 17/11/2021 GMT
    26                           ; 
    27                           ; Copyright © 2021, Microchip Technology Inc. and its subsidiaries ("Microchip")
    28                           ; All rights reserved.
    29                           ; 
    30                           ; This software is developed by Microchip Technology Inc. and its subsidiaries ("Microch
      +                          ip").
    31                           ; 
    32                           ; Redistribution and use in source and binary forms, with or without modification, are
    33                           ; permitted provided that the following conditions are met:
    34                           ; 
    35                           ;     1. Redistributions of source code must retain the above copyright notice, this lis
      +                          t of
    36                           ;        conditions and the following disclaimer.
    37                           ; 
    38                           ;     2. Redistributions in binary form must reproduce the above copyright notice, this 
      +                          list
    39                           ;        of conditions and the following disclaimer in the documentation and/or other
    40                           ;        materials provided with the distribution. Publication is not required when
    41                           ;        this file is used in an embedded application.
    42                           ; 
    43                           ;     3. Microchip's name may not be used to endorse or promote products derived from th
      +                          is
    44                           ;        software without specific prior written permission.
    45                           ; 
    46                           ; THIS SOFTWARE IS PROVIDED BY MICROCHIP "AS IS" AND ANY EXPRESS OR IMPLIED WARRANTIES,
    47                           ; INCLUDING, BUT NOT LIMITED TO, THE IMPLIED WARRANTIES OF MERCHANTABILITY AND FITNESS F
      +                          OR
    48                           ; PURPOSE ARE DISCLAIMED.  IN NO EVENT SHALL MICROCHIP BE LIABLE FOR ANY DIRECT, INDIREC
      +                          T,
    49                           ; INCIDENTAL, SPECIAL, EXEMPLARY, OR CONSEQUENTIAL DAMAGES (INCLUDING BUT NOT LIMITED TO
    50                           ; PROCUREMENT OF SUBSTITUTE GOODS OR SERVICES; LOSS OF USE, DATA OR PROFITS; OR BUSINESS
    51                           ; INTERRUPTION) HOWSOEVER CAUSED AND ON ANY THEORY OF LIABILITY, WHETHER IN CONTRACT, ST
      +                          RICT
    52                           ; LIABILITY, OR TORT (INCLUDING NEGLIGENCE OR OTHERWISE) ARISING IN ANY WAY OUT OF THE U
      +                          SE OF
    53                           ; THIS SOFTWARE, EVEN IF ADVISED OF THE POSSIBILITY OF SUCH DAMAGE.
    54                           ; 
    55                           ; 
    56                           ; Code-generator required, PIC16F887 Definitions
    57                           ; 
    58                           ; SFR Addresses
    59     0000                     	;# 
    60     0001                     	;# 
    61     0002                     	;# 
    62     0003                     	;# 
    63     0004                     	;# 
    64     0005                     	;# 
    65     0006                     	;# 
    66     0007                     	;# 
    67     0008                     	;# 
    68     0009                     	;# 
    69     000A                     	;# 
    70     000B                     	;# 
    71     000C                     	;# 
    72     000D                     	;# 
    73     000E                     	;# 
    74     000E                     	;# 
    75     000F                     	;# 
    76     0010                     	;# 
    77     0011                     	;# 
    78     0012                     	;# 
    79     0013                     	;# 
    80     0014                     	;# 
    81     0015                     	;# 
    82     0015                     	;# 
    83     0016                     	;# 
    84     0017                     	;# 
    85     0018                     	;# 
    86     0019                     	;# 
    87     001A                     	;# 
    88     001B                     	;# 
    89     001B                     	;# 
    90     001C                     	;# 
    91     001D                     	;# 
    92     001E                     	;# 
    93     001F                     	;# 
    94     0081                     	;# 
    95     0085                     	;# 
    96     0086                     	;# 
    97     0087                     	;# 
    98     0088                     	;# 
    99     0089                     	;# 
   100     008C                     	;# 
   101     008D                     	;# 
   102     008E                     	;# 
   103     008F                     	;# 
   104     0090                     	;# 
   105     0091                     	;# 
   106     0092                     	;# 
   107     0093                     	;# 
   108     0093                     	;# 
   109     0093                     	;# 
   110     0094                     	;# 
   111     0095                     	;# 
   112     0096                     	;# 
   113     0097                     	;# 
   114     0098                     	;# 
   115     0099                     	;# 
   116     009A                     	;# 
   117     009B                     	;# 
   118     009C                     	;# 
   119     009D                     	;# 
   120     009E                     	;# 
   121     009F                     	;# 
   122     0105                     	;# 
   123     0107                     	;# 
   124     0108                     	;# 
   125     0109                     	;# 
   126     010C                     	;# 
   127     010C                     	;# 
   128     010D                     	;# 
   129     010E                     	;# 
   130     010F                     	;# 
   131     0185                     	;# 
   132     0187                     	;# 
   133     0188                     	;# 
   134     0189                     	;# 
   135     018C                     	;# 
   136     018D                     	;# 
   137     0000                     	;# 
   138     0001                     	;# 
   139     0002                     	;# 
   140     0003                     	;# 
   141     0004                     	;# 
   142     0005                     	;# 
   143     0006                     	;# 
   144     0007                     	;# 
   145     0008                     	;# 
   146     0009                     	;# 
   147     000A                     	;# 
   148     000B                     	;# 
   149     000C                     	;# 
   150     000D                     	;# 
   151     000E                     	;# 
   152     000E                     	;# 
   153     000F                     	;# 
   154     0010                     	;# 
   155     0011                     	;# 
   156     0012                     	;# 
   157     0013                     	;# 
   158     0014                     	;# 
   159     0015                     	;# 
   160     0015                     	;# 
   161     0016                     	;# 
   162     0017                     	;# 
   163     0018                     	;# 
   164     0019                     	;# 
   165     001A                     	;# 
   166     001B                     	;# 
   167     001B                     	;# 
   168     001C                     	;# 
   169     001D                     	;# 
   170     001E                     	;# 
   171     001F                     	;# 
   172     0081                     	;# 
   173     0085                     	;# 
   174     0086                     	;# 
   175     0087                     	;# 
   176     0088                     	;# 
   177     0089                     	;# 
   178     008C                     	;# 
   179     008D                     	;# 
   180     008E                     	;# 
   181     008F                     	;# 
   182     0090                     	;# 
   183     0091                     	;# 
   184     0092                     	;# 
   185     0093                     	;# 
   186     0093                     	;# 
   187     0093                     	;# 
   188     0094                     	;# 
   189     0095                     	;# 
   190     0096                     	;# 
   191     0097                     	;# 
   192     0098                     	;# 
   193     0099                     	;# 
   194     009A                     	;# 
   195     009B                     	;# 
   196     009C                     	;# 
   197     009D                     	;# 
   198     009E                     	;# 
   199     009F                     	;# 
   200     0105                     	;# 
   201     0107                     	;# 
   202     0108                     	;# 
   203     0109                     	;# 
   204     010C                     	;# 
   205     010C                     	;# 
   206     010D                     	;# 
   207     010E                     	;# 
   208     010F                     	;# 
   209     0185                     	;# 
   210     0187                     	;# 
   211     0188                     	;# 
   212     0189                     	;# 
   213     018C                     	;# 
   214     018D                     	;# 
   215     001A                     _RCREG	set	26
   216     0019                     _TXREG	set	25
   217     001E                     _ADRESH	set	30
   218     0009                     _PORTE	set	9
   219     0008                     _PORTD	set	8
   220     0007                     _PORTC	set	7
   221     0006                     _PORTB	set	6
   222     0005                     _PORTA	set	5
   223     000B                     _INTCONbits	set	11
   224     0018                     _RCSTAbits	set	24
   225     000C                     _PIR1bits	set	12
   226     0012                     _T2CONbits	set	18
   227     0012                     _T2CON	set	18
   228     0001                     _TMR0	set	1
   229     001F                     _ADCON0	set	31
   230     0015                     _CCPR1L	set	21
   231     0030                     _RB0	set	48
   232     00FB                     _CHS1	set	251
   233     00FA                     _CHS0	set	250
   234     0066                     _ADIF	set	102
   235     0042                     _RD2	set	66
   236     0041                     _RD1	set	65
   237     0040                     _RD0	set	64
   238     005D                     _TMR0IE	set	93
   239     005E                     _PEIE	set	94
   240     005F                     _GIE	set	95
   241     0061                     _TMR2IF	set	97
   242     00BA                     _CCP1M2	set	186
   243     00BB                     _CCP1M3	set	187
   244     005A                     _TMR0IF	set	90
   245     00BC                     _DC1B0	set	188
   246     00BD                     _DC1B1	set	189
   247     00F9                     _GO	set	249
   248     002F                     _RA7	set	47
   249     002E                     _RA6	set	46
   250     0031                     _RB1	set	49
   251     009E                     _ADRESL	set	158
   252     0096                     _IOCBbits	set	150
   253     0095                     _WPUBbits	set	149
   254     009A                     _SPBRGH	set	154
   255     0099                     _SPBRG	set	153
   256     0098                     _TXSTAbits	set	152
   257     008C                     _PIE1bits	set	140
   258     0092                     _PR2	set	146
   259     0087                     _TRISCbits	set	135
   260     0081                     _OPTION_REGbits	set	129
   261     009F                     _ADCON1bits	set	159
   262     008F                     _OSCCON	set	143
   263     0089                     _TRISE	set	137
   264     0088                     _TRISD	set	136
   265     0087                     _TRISC	set	135
   266     0086                     _TRISB	set	134
   267     0085                     _TRISA	set	133
   268     0466                     _ADIE	set	1126
   269     040D                     _T0CS	set	1037
   270     040B                     _PSA	set	1035
   271     010C                     _EEDAT	set	268
   272     010D                     _EEADR	set	269
   273     018D                     _EECON2	set	397
   274     018C                     _EECON1bits	set	396
   275     0187                     _BAUDCTLbits	set	391
   276     0189                     _ANSELH	set	393
   277     0188                     _ANSEL	set	392
   278                           
   279                           	psect	cinit
   280     0011                     start_initialization:	
   281                           ; #config settings
   282                           
   283     0011                     __initialization:
   284                           
   285                           ; Clear objects allocated to BANK0
   286     0011  1383               	bcf	3,7	;select IRP bank0
   287     0012  3020               	movlw	low __pbssBANK0
   288     0013  0084               	movwf	4
   289     0014  303C               	movlw	low (__pbssBANK0+28)
   290     0015  120A  118A  2717  120A  118A  	fcall	clear_ram0
   291     001A                     end_of_initialization:	
   292                           ;End of C runtime variable initialization code
   293                           
   294     001A                     __end_of__initialization:
   295     001A  0183               	clrf	3
   296     001B  120A  118A  2CF7   	ljmp	_main	;jump to C main() function
   297                           
   298                           	psect	bssBANK0
   299     0020                     __pbssBANK0:
   300     0020                     _cont:
   301     0020                     	ds	2
   302     0022                     _temp3:
   303     0022                     	ds	2
   304     0024                     _temp2:
   305     0024                     	ds	2
   306     0026                     _temp1:
   307     0026                     	ds	2
   308     0028                     _temp0:
   309     0028                     	ds	2
   310     002A                     _conPot3:
   311     002A                     	ds	2
   312     002C                     _conPot2:
   313     002C                     	ds	2
   314     002E                     _conPot1:
   315     002E                     	ds	2
   316     0030                     _conPot0:
   317     0030                     	ds	2
   318     0032                     _pot3:
   319     0032                     	ds	2
   320     0034                     _pot2:
   321     0034                     	ds	2
   322     0036                     _pot1:
   323     0036                     	ds	2
   324     0038                     _pot0:
   325     0038                     	ds	2
   326     003A                     _botonPrevState:
   327     003A                     	ds	1
   328     003B                     _servo:
   329     003B                     	ds	1
   330                           
   331                           	psect	clrtext
   332     0717                     clear_ram0:	
   333                           ;	Called with FSR containing the base address, and
   334                           ;	W with the last address+1
   335                           
   336     0717  0064               	clrwdt	;clear the watchdog before getting into this loop
   337     0718                     clrloop0:
   338     0718  0180               	clrf	0	;clear RAM location pointed to by FSR
   339     0719  0A84               	incf	4,f	;increment pointer
   340     071A  0604               	xorwf	4,w	;XOR with final address
   341     071B  1903               	btfsc	3,2	;have we reached the end yet?
   342     071C  3400               	retlw	0	;all done for this memory range, return
   343     071D  0604               	xorwf	4,w	;XOR again to restore value
   344     071E  2F18               	goto	clrloop0	;do the next byte
   345                           
   346                           	psect	cstackCOMMON
   347     0070                     __pcstackCOMMON:
   348     0070                     ?_setup:
   349     0070                     ?_delay_pulse:	
   350                           ; 1 bytes @ 0x0
   351                           
   352     0070                     ?_isr:	
   353                           ; 1 bytes @ 0x0
   354                           
   355     0070                     ?_main:	
   356                           ; 1 bytes @ 0x0
   357                           
   358     0070                     ?_concat_bits:	
   359                           ; 2 bytes @ 0x0
   360                           
   361     0070                     ?___wmul:	
   362                           ; 2 bytes @ 0x0
   363                           
   364     0070                     concat_bits@x:	
   365                           ; 2 bytes @ 0x0
   366                           
   367     0070                     delay_pulse@time:	
   368                           ; 2 bytes @ 0x0
   369                           
   370     0070                     ___wmul@multiplier:	
   371                           ; 2 bytes @ 0x0
   372                           
   373                           
   374                           ; 2 bytes @ 0x0
   375     0070                     	ds	2
   376     0072                     ??_delay_pulse:
   377     0072                     concat_bits@y:	
   378                           ; 1 bytes @ 0x2
   379                           
   380     0072                     ___wmul@multiplicand:	
   381                           ; 2 bytes @ 0x2
   382                           
   383                           
   384                           ; 2 bytes @ 0x2
   385     0072                     	ds	2
   386     0074                     ??_concat_bits:
   387     0074                     ??___wmul:	
   388                           ; 1 bytes @ 0x4
   389                           
   390     0074                     ___wmul@product:	
   391                           ; 1 bytes @ 0x4
   392                           
   393                           
   394                           ; 2 bytes @ 0x4
   395     0074                     	ds	2
   396     0076                     ?___lwdiv:
   397     0076                     ___lwdiv@divisor:	
   398                           ; 2 bytes @ 0x6
   399                           
   400                           
   401                           ; 2 bytes @ 0x6
   402     0076                     	ds	2
   403     0078                     concat_bits@z:
   404     0078                     ___lwdiv@dividend:	
   405                           ; 2 bytes @ 0x8
   406                           
   407                           
   408                           ; 2 bytes @ 0x8
   409     0078                     	ds	2
   410     007A                     ??___lwdiv:
   411                           
   412                           ; 1 bytes @ 0xA
   413     007A                     	ds	1
   414     007B                     ___lwdiv@quotient:
   415                           
   416                           ; 2 bytes @ 0xB
   417     007B                     	ds	2
   418     007D                     ___lwdiv@counter:
   419                           
   420                           ; 1 bytes @ 0xD
   421     007D                     	ds	1
   422     007E                     ??_mapear:
   423                           
   424                           	psect	cstackBANK0
   425     003C                     __pcstackBANK0:	
   426                           ; 1 bytes @ 0xE
   427                           
   428     003C                     ?_mapear:
   429     003C                     mapear@valor:	
   430                           ; 2 bytes @ 0x0
   431                           
   432                           
   433                           ; 2 bytes @ 0x0
   434     003C                     	ds	2
   435     003E                     mapear@rango_min:
   436                           
   437                           ; 2 bytes @ 0x2
   438     003E                     	ds	2
   439     0040                     mapear@rango_max:
   440                           
   441                           ; 2 bytes @ 0x4
   442     0040                     	ds	2
   443     0042                     mapear@nuevo_min:
   444                           
   445                           ; 2 bytes @ 0x6
   446     0042                     	ds	2
   447     0044                     mapear@nuevo_max:
   448                           
   449                           ; 2 bytes @ 0x8
   450     0044                     	ds	2
   451     0046                     mapear@nuevo_valor:
   452                           
   453                           ; 2 bytes @ 0xA
   454     0046                     	ds	2
   455     0048                     ??_isr:
   456                           
   457                           ; 1 bytes @ 0xC
   458     0048                     	ds	6
   459     004E                     ??_setup:
   460     004E                     ?_writeEEPROM:	
   461                           ; 1 bytes @ 0x12
   462                           
   463     004E                     ?_readEEPROM:	
   464                           ; 1 bytes @ 0x12
   465                           
   466     004E                     writeEEPROM@data:	
   467                           ; 2 bytes @ 0x12
   468                           
   469     004E                     readEEPROM@adress:	
   470                           ; 2 bytes @ 0x12
   471                           
   472                           
   473                           ; 2 bytes @ 0x12
   474     004E                     	ds	2
   475     0050                     ??_readEEPROM:
   476     0050                     writeEEPROM@adress:	
   477                           ; 1 bytes @ 0x14
   478                           
   479                           
   480                           ; 2 bytes @ 0x14
   481     0050                     	ds	2
   482     0052                     ??_writeEEPROM:
   483                           
   484                           ; 1 bytes @ 0x16
   485     0052                     	ds	2
   486     0054                     ??_main:
   487                           
   488                           ; 1 bytes @ 0x18
   489     0054                     	ds	2
   490                           
   491                           	psect	maintext
   492     04F7                     __pmaintext:	
   493 ;;
   494 ;;Main: autosize = 0, tempsize = 2, incstack = 0, save=0
   495 ;;
   496 ;; *************** function _main *****************
   497 ;; Defined at:
   498 ;;		line 67 in file "protest5.c"
   499 ;; Parameters:    Size  Location     Type
   500 ;;		None
   501 ;; Auto vars:     Size  Location     Type
   502 ;;		None
   503 ;; Return value:  Size  Location     Type
   504 ;;                  2  168[None  ] int 
   505 ;; Registers used:
   506 ;;		wreg, status,2, status,0, pclath, cstack
   507 ;; Tracked objects:
   508 ;;		On entry : B00/0
   509 ;;		On exit  : 0/0
   510 ;;		Unchanged: 0/0
   511 ;; Data sizes:     COMMON   BANK0   BANK1   BANK3   BANK2
   512 ;;      Params:         0       0       0       0       0
   513 ;;      Locals:         0       0       0       0       0
   514 ;;      Temps:          0       2       0       0       0
   515 ;;      Totals:         0       2       0       0       0
   516 ;;Total ram usage:        2 bytes
   517 ;; Hardware stack levels required when called: 4
   518 ;; This function calls:
   519 ;;		_readEEPROM
   520 ;;		_setup
   521 ;;		_writeEEPROM
   522 ;; This function is called by:
   523 ;;		Startup code after reset
   524 ;; This function uses a non-reentrant model
   525 ;;
   526                           
   527     04F7                     _main:	
   528                           ;psect for function _main
   529                           
   530     04F7                     l1526:	
   531                           ;incstack = 0
   532                           ; Regs used in _main: [wreg+status,2+status,0+pclath+cstack]
   533                           
   534                           
   535                           ;protest5.c: 68:     setup();
   536     04F7  120A  118A  259B  120A  118A  	fcall	_setup
   537     04FC                     l1528:
   538                           
   539                           ;protest5.c: 72:         if(RB1 == 0){
   540     04FC  1283               	bcf	3,5	;RP0=0, select bank0
   541     04FD  1303               	bcf	3,6	;RP1=0, select bank0
   542     04FE  1886               	btfsc	6,1	;volatile
   543     04FF  2D01               	goto	u951
   544     0500  2D02               	goto	u950
   545     0501                     u951:
   546     0501  2D04               	goto	l170
   547     0502                     u950:
   548     0502                     l1530:
   549                           
   550                           ;protest5.c: 73:             botonPrevState = 1;
   551     0502  01BA               	clrf	_botonPrevState
   552     0503  0ABA               	incf	_botonPrevState,f
   553     0504                     l170:	
   554                           ;protest5.c: 74:         }
   555                           
   556                           
   557                           ;protest5.c: 75:         if(RB1 == 1 && botonPrevState == 1){
   558     0504  1C86               	btfss	6,1	;volatile
   559     0505  2D07               	goto	u961
   560     0506  2D08               	goto	u960
   561     0507                     u961:
   562     0507  2D1E               	goto	l1538
   563     0508                     u960:
   564     0508                     l1532:
   565     0508  033A               	decf	_botonPrevState,w
   566     0509  1D03               	btfss	3,2
   567     050A  2D0C               	goto	u971
   568     050B  2D0D               	goto	u970
   569     050C                     u971:
   570     050C  2D1E               	goto	l1538
   571     050D                     u970:
   572     050D                     l1534:
   573                           
   574                           ;protest5.c: 76:             writeEEPROM(pot0, 0x04);
   575     050D  0839               	movf	_pot0+1,w
   576     050E  00CF               	movwf	writeEEPROM@data+1
   577     050F  0838               	movf	_pot0,w
   578     0510  00CE               	movwf	writeEEPROM@data
   579     0511  3004               	movlw	4
   580     0512  00D0               	movwf	writeEEPROM@adress
   581     0513  3000               	movlw	0
   582     0514  00D1               	movwf	writeEEPROM@adress+1
   583     0515  120A  118A  2687  120A  118A  	fcall	_writeEEPROM
   584     051A                     l1536:
   585                           
   586                           ;protest5.c: 80:             botonPrevState = 1;
   587     051A  1283               	bcf	3,5	;RP0=0, select bank0
   588     051B  1303               	bcf	3,6	;RP1=0, select bank0
   589     051C  01BA               	clrf	_botonPrevState
   590     051D  0ABA               	incf	_botonPrevState,f
   591     051E                     l1538:
   592                           
   593                           ;protest5.c: 83:         temp0 = readEEPROM(0x04);
   594     051E  3004               	movlw	4
   595     051F  00CE               	movwf	readEEPROM@adress
   596     0520  3000               	movlw	0
   597     0521  00CF               	movwf	readEEPROM@adress+1
   598     0522  120A  118A  26F2  120A  118A  	fcall	_readEEPROM
   599     0527  1283               	bcf	3,5	;RP0=0, select bank0
   600     0528  1303               	bcf	3,6	;RP1=0, select bank0
   601     0529  084F               	movf	?_readEEPROM+1,w
   602     052A  00A9               	movwf	_temp0+1
   603     052B  084E               	movf	?_readEEPROM,w
   604     052C  00A8               	movwf	_temp0
   605     052D                     l1540:
   606                           
   607                           ;protest5.c: 84:         temp1 = readEEPROM(0x05);
   608     052D  3005               	movlw	5
   609     052E  00CE               	movwf	readEEPROM@adress
   610     052F  3000               	movlw	0
   611     0530  00CF               	movwf	readEEPROM@adress+1
   612     0531  120A  118A  26F2  120A  118A  	fcall	_readEEPROM
   613     0536  1283               	bcf	3,5	;RP0=0, select bank0
   614     0537  1303               	bcf	3,6	;RP1=0, select bank0
   615     0538  084F               	movf	?_readEEPROM+1,w
   616     0539  00A7               	movwf	_temp1+1
   617     053A  084E               	movf	?_readEEPROM,w
   618     053B  00A6               	movwf	_temp1
   619     053C                     l1542:
   620                           
   621                           ;protest5.c: 85:         temp2 = readEEPROM(0x06);
   622     053C  3006               	movlw	6
   623     053D  00CE               	movwf	readEEPROM@adress
   624     053E  3000               	movlw	0
   625     053F  00CF               	movwf	readEEPROM@adress+1
   626     0540  120A  118A  26F2  120A  118A  	fcall	_readEEPROM
   627     0545  1283               	bcf	3,5	;RP0=0, select bank0
   628     0546  1303               	bcf	3,6	;RP1=0, select bank0
   629     0547  084F               	movf	?_readEEPROM+1,w
   630     0548  00A5               	movwf	_temp2+1
   631     0549  084E               	movf	?_readEEPROM,w
   632     054A  00A4               	movwf	_temp2
   633     054B                     l1544:
   634                           
   635                           ;protest5.c: 86:         temp3 = readEEPROM(0x07);
   636     054B  3007               	movlw	7
   637     054C  00CE               	movwf	readEEPROM@adress
   638     054D  3000               	movlw	0
   639     054E  00CF               	movwf	readEEPROM@adress+1
   640     054F  120A  118A  26F2  120A  118A  	fcall	_readEEPROM
   641     0554  1283               	bcf	3,5	;RP0=0, select bank0
   642     0555  1303               	bcf	3,6	;RP1=0, select bank0
   643     0556  084F               	movf	?_readEEPROM+1,w
   644     0557  00A3               	movwf	_temp3+1
   645     0558  084E               	movf	?_readEEPROM,w
   646     0559  00A2               	movwf	_temp3
   647     055A                     l1546:
   648                           
   649                           ;protest5.c: 88:         if(RA6 == 1 && RA7 == 1){
   650     055A  1F05               	btfss	5,6	;volatile
   651     055B  2D5D               	goto	u981
   652     055C  2D5E               	goto	u980
   653     055D                     u981:
   654     055D  2D72               	goto	l1552
   655     055E                     u980:
   656     055E                     l1548:
   657     055E  1F85               	btfss	5,7	;volatile
   658     055F  2D61               	goto	u991
   659     0560  2D62               	goto	u990
   660     0561                     u991:
   661     0561  2D72               	goto	l1552
   662     0562                     u990:
   663     0562                     l1550:
   664                           
   665                           ;protest5.c: 89:             pot0 = temp0;
   666     0562  0829               	movf	_temp0+1,w
   667     0563  00B9               	movwf	_pot0+1
   668     0564  0828               	movf	_temp0,w
   669     0565  00B8               	movwf	_pot0
   670                           
   671                           ;protest5.c: 90:             pot1 = temp1;
   672     0566  0827               	movf	_temp1+1,w
   673     0567  00B7               	movwf	_pot1+1
   674     0568  0826               	movf	_temp1,w
   675     0569  00B6               	movwf	_pot1
   676                           
   677                           ;protest5.c: 91:             pot2 = temp2;
   678     056A  0825               	movf	_temp2+1,w
   679     056B  00B5               	movwf	_pot2+1
   680     056C  0824               	movf	_temp2,w
   681     056D  00B4               	movwf	_pot2
   682                           
   683                           ;protest5.c: 92:             pot3 = temp3;
   684     056E  0823               	movf	_temp3+1,w
   685     056F  00B3               	movwf	_pot3+1
   686     0570  0822               	movf	_temp3,w
   687     0571  00B2               	movwf	_pot3
   688     0572                     l1552:
   689                           
   690                           ;protest5.c: 95:         GO = 1;
   691     0572  149F               	bsf	31,1	;volatile
   692                           
   693                           ;protest5.c: 96:         _delay((unsigned long)((50)*(4000000/4000.0)));
   694     0573  3041               	movlw	65
   695     0574  1283               	bcf	3,5	;RP0=0, select bank0
   696     0575  1303               	bcf	3,6	;RP1=0, select bank0
   697     0576  00D5               	movwf	??_main+1
   698     0577  30ED               	movlw	237
   699     0578  00D4               	movwf	??_main
   700     0579                     u1617:
   701     0579  0BD4               	decfsz	??_main,f
   702     057A  2D79               	goto	u1617
   703     057B  0BD5               	decfsz	??_main+1,f
   704     057C  2D79               	goto	u1617
   705     057D  2D7E               	nop2
   706     057E                     l1554:
   707                           
   708                           ;protest5.c: 97:         DC1B1 = (uint8_t) pot0 & 2;
   709     057E  1283               	bcf	3,5	;RP0=0, select bank0
   710     057F  1303               	bcf	3,6	;RP1=0, select bank0
   711     0580  1297               	bcf	23,5	;volatile
   712     0581                     l1556:
   713                           
   714                           ;protest5.c: 98:         DC1B0 = (uint8_t) pot0 & 1;
   715     0581  1838               	btfsc	_pot0,0
   716     0582  2D84               	goto	u1001
   717     0583  2D88               	goto	u1000
   718     0584                     u1001:
   719     0584  1283               	bcf	3,5	;RP0=0, select bank0
   720     0585  1303               	bcf	3,6	;RP1=0, select bank0
   721     0586  1617               	bsf	23,4	;volatile
   722     0587  2D8B               	goto	u1014
   723     0588                     u1000:
   724     0588  1283               	bcf	3,5	;RP0=0, select bank0
   725     0589  1303               	bcf	3,6	;RP1=0, select bank0
   726     058A  1217               	bcf	23,4	;volatile
   727     058B                     u1014:
   728     058B                     l1558:
   729                           
   730                           ;protest5.c: 99:         CCPR1L = (uint8_t)(pot0 >> 2);
   731     058B  0839               	movf	_pot0+1,w
   732     058C  00D5               	movwf	??_main+1
   733     058D  0838               	movf	_pot0,w
   734     058E  00D4               	movwf	??_main
   735     058F  1003               	clrc
   736     0590  0CD5               	rrf	??_main+1,f
   737     0591  0CD4               	rrf	??_main,f
   738     0592  1003               	clrc
   739     0593  0CD5               	rrf	??_main+1,f
   740     0594  0CD4               	rrf	??_main,f
   741     0595  0854               	movf	??_main,w
   742     0596  0095               	movwf	21	;volatile
   743     0597  2CFC               	goto	l1528
   744     0598  120A  118A  280E   	ljmp	start
   745     059B                     __end_of_main:
   746                           
   747                           	psect	text1
   748     0687                     __ptext1:	
   749 ;; *************** function _writeEEPROM *****************
   750 ;; Defined at:
   751 ;;		line 189 in file "protest5.c"
   752 ;; Parameters:    Size  Location     Type
   753 ;;  data            2   18[BANK0 ] unsigned int 
   754 ;;  adress          2   20[BANK0 ] unsigned int 
   755 ;; Auto vars:     Size  Location     Type
   756 ;;		None
   757 ;; Return value:  Size  Location     Type
   758 ;;                  1    wreg      void 
   759 ;; Registers used:
   760 ;;		wreg
   761 ;; Tracked objects:
   762 ;;		On entry : 0/0
   763 ;;		On exit  : 0/0
   764 ;;		Unchanged: 0/0
   765 ;; Data sizes:     COMMON   BANK0   BANK1   BANK3   BANK2
   766 ;;      Params:         0       4       0       0       0
   767 ;;      Locals:         0       0       0       0       0
   768 ;;      Temps:          0       2       0       0       0
   769 ;;      Totals:         0       6       0       0       0
   770 ;;Total ram usage:        6 bytes
   771 ;; Hardware stack levels used: 1
   772 ;; Hardware stack levels required when called: 3
   773 ;; This function calls:
   774 ;;		Nothing
   775 ;; This function is called by:
   776 ;;		_main
   777 ;; This function uses a non-reentrant model
   778 ;;
   779                           
   780     0687                     _writeEEPROM:	
   781                           ;psect for function _writeEEPROM
   782                           
   783     0687                     l1482:	
   784                           ;incstack = 0
   785                           ; Regs used in _writeEEPROM: [wreg]
   786                           
   787                           
   788                           ;protest5.c: 190:     EEADR = adress;
   789     0687  1283               	bcf	3,5	;RP0=0, select bank0
   790     0688  1303               	bcf	3,6	;RP1=0, select bank0
   791     0689  0850               	movf	writeEEPROM@adress,w
   792     068A  1283               	bcf	3,5	;RP0=0, select bank2
   793     068B  1703               	bsf	3,6	;RP1=1, select bank2
   794     068C  008D               	movwf	13	;volatile
   795                           
   796                           ;protest5.c: 191:     EEDAT = data;
   797     068D  1283               	bcf	3,5	;RP0=0, select bank0
   798     068E  1303               	bcf	3,6	;RP1=0, select bank0
   799     068F  084E               	movf	writeEEPROM@data,w
   800     0690  1283               	bcf	3,5	;RP0=0, select bank2
   801     0691  1703               	bsf	3,6	;RP1=1, select bank2
   802     0692  008C               	movwf	12	;volatile
   803     0693                     l1484:
   804                           
   805                           ;protest5.c: 195:     EECON1bits.EEPGD = 0;
   806     0693  1683               	bsf	3,5	;RP0=1, select bank3
   807     0694  1703               	bsf	3,6	;RP1=1, select bank3
   808     0695  138C               	bcf	12,7	;volsfr
   809     0696                     l1486:
   810                           
   811                           ;protest5.c: 196:     EECON1bits.WREN = 1;
   812     0696  150C               	bsf	12,2	;volsfr
   813                           
   814                           ;protest5.c: 197:     _delay((unsigned long)((50)*(4000000/4000.0)));
   815     0697  3041               	movlw	65
   816     0698  1283               	bcf	3,5	;RP0=0, select bank0
   817     0699  1303               	bcf	3,6	;RP1=0, select bank0
   818     069A  00D3               	movwf	??_writeEEPROM+1
   819     069B  30ED               	movlw	237
   820     069C  00D2               	movwf	??_writeEEPROM
   821     069D                     u1627:
   822     069D  0BD2               	decfsz	??_writeEEPROM,f
   823     069E  2E9D               	goto	u1627
   824     069F  0BD3               	decfsz	??_writeEEPROM+1,f
   825     06A0  2E9D               	goto	u1627
   826     06A1  2EA2               	nop2
   827     06A2                     l1488:
   828                           
   829                           ;protest5.c: 199:     INTCONbits.GIE = 0;
   830     06A2  138B               	bcf	11,7	;volatile
   831                           
   832                           ;protest5.c: 201:     EECON2 = 0x55;
   833     06A3  3055               	movlw	85
   834     06A4  1683               	bsf	3,5	;RP0=1, select bank3
   835     06A5  1703               	bsf	3,6	;RP1=1, select bank3
   836     06A6  008D               	movwf	13	;volsfr
   837                           
   838                           ;protest5.c: 202:     EECON2 = 0xAA;
   839     06A7  30AA               	movlw	170
   840     06A8  008D               	movwf	13	;volsfr
   841     06A9                     l1490:
   842                           
   843                           ;protest5.c: 203:     EECON1bits.WR = 1;
   844     06A9  148C               	bsf	12,1	;volsfr
   845     06AA                     l1492:
   846                           
   847                           ;protest5.c: 205:     INTCONbits.GIE = 1;
   848     06AA  178B               	bsf	11,7	;volatile
   849     06AB                     l1494:
   850                           
   851                           ;protest5.c: 206:     EECON1bits.WREN = 0;
   852     06AB  110C               	bcf	12,2	;volsfr
   853     06AC                     l187:
   854     06AC  0008               	return
   855     06AD                     __end_of_writeEEPROM:
   856                           
   857                           	psect	text2
   858     059B                     __ptext2:	
   859 ;; *************** function _setup *****************
   860 ;; Defined at:
   861 ;;		line 110 in file "protest5.c"
   862 ;; Parameters:    Size  Location     Type
   863 ;;		None
   864 ;; Auto vars:     Size  Location     Type
   865 ;;		None
   866 ;; Return value:  Size  Location     Type
   867 ;;                  1    wreg      void 
   868 ;; Registers used:
   869 ;;		wreg, status,2, status,0
   870 ;; Tracked objects:
   871 ;;		On entry : 0/0
   872 ;;		On exit  : 0/0
   873 ;;		Unchanged: 0/0
   874 ;; Data sizes:     COMMON   BANK0   BANK1   BANK3   BANK2
   875 ;;      Params:         0       0       0       0       0
   876 ;;      Locals:         0       0       0       0       0
   877 ;;      Temps:          0       1       0       0       0
   878 ;;      Totals:         0       1       0       0       0
   879 ;;Total ram usage:        1 bytes
   880 ;; Hardware stack levels used: 1
   881 ;; Hardware stack levels required when called: 3
   882 ;; This function calls:
   883 ;;		Nothing
   884 ;; This function is called by:
   885 ;;		_main
   886 ;; This function uses a non-reentrant model
   887 ;;
   888                           
   889     059B                     _setup:	
   890                           ;psect for function _setup
   891                           
   892     059B                     l1378:	
   893                           ;incstack = 0
   894                           ; Regs used in _setup: [wreg+status,2+status,0]
   895                           
   896                           
   897                           ;protest5.c: 111:     ANSEL = 0b00001111;
   898     059B  300F               	movlw	15
   899     059C  1683               	bsf	3,5	;RP0=1, select bank3
   900     059D  1703               	bsf	3,6	;RP1=1, select bank3
   901     059E  0088               	movwf	8	;volatile
   902     059F                     l1380:
   903                           
   904                           ;protest5.c: 112:     ANSELH = 0;
   905     059F  0189               	clrf	9	;volatile
   906     05A0                     l1382:
   907                           
   908                           ;protest5.c: 113:     TRISA = 0b00001111;
   909     05A0  300F               	movlw	15
   910     05A1  1683               	bsf	3,5	;RP0=1, select bank1
   911     05A2  1303               	bcf	3,6	;RP1=0, select bank1
   912     05A3  0085               	movwf	5	;volatile
   913     05A4                     l1384:
   914                           
   915                           ;protest5.c: 114:     TRISB = 0b00000011;
   916     05A4  3003               	movlw	3
   917     05A5  0086               	movwf	6	;volatile
   918     05A6                     l1386:
   919                           
   920                           ;protest5.c: 115:     TRISC = 128;
   921     05A6  3080               	movlw	128
   922     05A7  0087               	movwf	7	;volatile
   923                           
   924                           ;protest5.c: 116:     TRISD = 0;
   925     05A8  0188               	clrf	8	;volatile
   926                           
   927                           ;protest5.c: 117:     TRISE = 0;
   928     05A9  0189               	clrf	9	;volatile
   929     05AA                     l1388:
   930                           
   931                           ;protest5.c: 119:     OSCCON = 0b01100000;
   932     05AA  3060               	movlw	96
   933     05AB  008F               	movwf	15	;volatile
   934     05AC                     l1390:
   935                           
   936                           ;protest5.c: 121:     ADCON1bits.ADFM = 0;
   937     05AC  139F               	bcf	31,7	;volatile
   938     05AD                     l1392:
   939                           
   940                           ;protest5.c: 122:     ADCON0 = 0b01000001;
   941     05AD  3041               	movlw	65
   942     05AE  1283               	bcf	3,5	;RP0=0, select bank0
   943     05AF  1303               	bcf	3,6	;RP1=0, select bank0
   944     05B0  009F               	movwf	31	;volatile
   945     05B1                     l1394:
   946                           
   947                           ;protest5.c: 124:     TMR0 = 8;
   948     05B1  3008               	movlw	8
   949     05B2  0081               	movwf	1	;volatile
   950     05B3                     l1396:
   951                           
   952                           ;protest5.c: 125:     OPTION_REGbits.PS = 0b101;
   953     05B3  1683               	bsf	3,5	;RP0=1, select bank1
   954     05B4  1303               	bcf	3,6	;RP1=0, select bank1
   955     05B5  0801               	movf	1,w	;volatile
   956     05B6  39F8               	andlw	-8
   957     05B7  3805               	iorlw	5
   958     05B8  0081               	movwf	1	;volatile
   959     05B9                     l1398:
   960                           
   961                           ;protest5.c: 126:     PSA = 0;
   962     05B9  1181               	bcf	1,3	;volatile
   963     05BA                     l1400:
   964                           
   965                           ;protest5.c: 127:     T0CS = 0;
   966     05BA  1281               	bcf	1,5	;volatile
   967     05BB                     l1402:
   968                           
   969                           ;protest5.c: 128:     TMR0IF = 0;
   970     05BB  110B               	bcf	11,2	;volatile
   971     05BC                     l1404:
   972                           
   973                           ;protest5.c: 130:     TRISCbits.TRISC2 = 1;
   974     05BC  1507               	bsf	7,2	;volatile
   975     05BD                     l1406:
   976                           
   977                           ;protest5.c: 131:     PR2 = 249;
   978     05BD  30F9               	movlw	249
   979     05BE  0092               	movwf	18	;volatile
   980     05BF                     l1408:
   981                           
   982                           ;protest5.c: 132:     CCP1M3 = 1;
   983     05BF  1283               	bcf	3,5	;RP0=0, select bank0
   984     05C0  1303               	bcf	3,6	;RP1=0, select bank0
   985     05C1  1597               	bsf	23,3	;volatile
   986     05C2                     l1410:
   987                           
   988                           ;protest5.c: 133:     CCP1M2 = 1;
   989     05C2  1517               	bsf	23,2	;volatile
   990     05C3                     l1412:
   991                           
   992                           ;protest5.c: 134:     CCPR1L = 0;
   993     05C3  0195               	clrf	21	;volatile
   994     05C4                     l1414:
   995                           
   996                           ;protest5.c: 136:     TMR2IF = 0;
   997     05C4  108C               	bcf	12,1	;volatile
   998     05C5                     l1416:
   999                           
  1000                           ;protest5.c: 137:     T2CON = 3;
  1001     05C5  3003               	movlw	3
  1002     05C6  0092               	movwf	18	;volatile
  1003     05C7                     l1418:
  1004                           
  1005                           ;protest5.c: 138:     T2CONbits.TMR2ON = 1;
  1006     05C7  1512               	bsf	18,2	;volatile
  1007     05C8                     l181:	
  1008                           ;protest5.c: 140:     }
  1009                           
  1010                           
  1011                           ;protest5.c: 139:     while(TMR2IF == 0){
  1012     05C8  1C8C               	btfss	12,1	;volatile
  1013     05C9  2DCB               	goto	u921
  1014     05CA  2DCC               	goto	u920
  1015     05CB                     u921:
  1016     05CB  2DC8               	goto	l181
  1017     05CC                     u920:
  1018     05CC                     l1420:
  1019                           
  1020                           ;protest5.c: 141:     TRISC = 128;
  1021     05CC  3080               	movlw	128
  1022     05CD  1683               	bsf	3,5	;RP0=1, select bank1
  1023     05CE  1303               	bcf	3,6	;RP1=0, select bank1
  1024     05CF  0087               	movwf	7	;volatile
  1025     05D0                     l1422:
  1026                           
  1027                           ;protest5.c: 143:     GIE = 1;
  1028     05D0  178B               	bsf	11,7	;volatile
  1029     05D1                     l1424:
  1030                           
  1031                           ;protest5.c: 144:     PEIE = 1;
  1032     05D1  170B               	bsf	11,6	;volatile
  1033     05D2                     l1426:
  1034                           
  1035                           ;protest5.c: 145:     TMR0IE = 1;
  1036     05D2  168B               	bsf	11,5	;volatile
  1037     05D3                     l1428:
  1038                           
  1039                           ;protest5.c: 146:     ADIE = 1;
  1040     05D3  170C               	bsf	12,6	;volatile
  1041     05D4                     l1430:
  1042                           
  1043                           ;protest5.c: 147:     PIR1bits.RCIF = 0;
  1044     05D4  1283               	bcf	3,5	;RP0=0, select bank0
  1045     05D5  1303               	bcf	3,6	;RP1=0, select bank0
  1046     05D6  128C               	bcf	12,5	;volatile
  1047     05D7                     l1432:
  1048                           
  1049                           ;protest5.c: 148:     PIE1bits.RCIE = 1;
  1050     05D7  1683               	bsf	3,5	;RP0=1, select bank1
  1051     05D8  1303               	bcf	3,6	;RP1=0, select bank1
  1052     05D9  168C               	bsf	12,5	;volatile
  1053                           
  1054                           ;protest5.c: 149:     _delay((unsigned long)((50)*(4000000/4000000.0)));
  1055     05DA  300F               	movlw	15
  1056     05DB  1283               	bcf	3,5	;RP0=0, select bank0
  1057     05DC  1303               	bcf	3,6	;RP1=0, select bank0
  1058     05DD  00CE               	movwf	??_setup
  1059     05DE                     u1637:
  1060     05DE  0BCE               	decfsz	??_setup,f
  1061     05DF  2DDE               	goto	u1637
  1062     05E0  2DE1               	nop2
  1063     05E1                     l1434:
  1064                           
  1065                           ;protest5.c: 152:     TXSTAbits.SYNC = 0;
  1066     05E1  1683               	bsf	3,5	;RP0=1, select bank1
  1067     05E2  1303               	bcf	3,6	;RP1=0, select bank1
  1068     05E3  1218               	bcf	24,4	;volatile
  1069     05E4                     l1436:
  1070                           
  1071                           ;protest5.c: 153:     TXSTAbits.BRGH = 1;
  1072     05E4  1518               	bsf	24,2	;volatile
  1073     05E5                     l1438:
  1074                           
  1075                           ;protest5.c: 155:     BAUDCTLbits.BRG16 = 1;
  1076     05E5  1683               	bsf	3,5	;RP0=1, select bank3
  1077     05E6  1703               	bsf	3,6	;RP1=1, select bank3
  1078     05E7  1587               	bsf	7,3	;volatile
  1079                           
  1080                           ;protest5.c: 157:     SPBRG = 103;
  1081     05E8  3067               	movlw	103
  1082     05E9  1683               	bsf	3,5	;RP0=1, select bank1
  1083     05EA  1303               	bcf	3,6	;RP1=0, select bank1
  1084     05EB  0099               	movwf	25	;volatile
  1085     05EC                     l1440:
  1086                           
  1087                           ;protest5.c: 158:     SPBRGH = 0;
  1088     05EC  019A               	clrf	26	;volatile
  1089     05ED                     l1442:
  1090                           
  1091                           ;protest5.c: 160:     RCSTAbits.SPEN = 1;
  1092     05ED  1283               	bcf	3,5	;RP0=0, select bank0
  1093     05EE  1303               	bcf	3,6	;RP1=0, select bank0
  1094     05EF  1798               	bsf	24,7	;volatile
  1095     05F0                     l1444:
  1096                           
  1097                           ;protest5.c: 161:     RCSTAbits.RX9 = 0;
  1098     05F0  1318               	bcf	24,6	;volatile
  1099     05F1                     l1446:
  1100                           
  1101                           ;protest5.c: 162:     RCSTAbits.CREN = 1;
  1102     05F1  1618               	bsf	24,4	;volatile
  1103     05F2                     l1448:
  1104                           
  1105                           ;protest5.c: 164:     TXSTAbits.TXEN = 1;
  1106     05F2  1683               	bsf	3,5	;RP0=1, select bank1
  1107     05F3  1303               	bcf	3,6	;RP1=0, select bank1
  1108     05F4  1698               	bsf	24,5	;volatile
  1109     05F5                     l1450:
  1110                           
  1111                           ;protest5.c: 166:     OPTION_REGbits.nRBPU = 0;
  1112     05F5  1381               	bcf	1,7	;volatile
  1113     05F6                     l1452:
  1114                           
  1115                           ;protest5.c: 167:     WPUBbits.WPUB0 = 1;
  1116     05F6  1415               	bsf	21,0	;volatile
  1117     05F7                     l1454:
  1118                           
  1119                           ;protest5.c: 168:     WPUBbits.WPUB1 = 1;
  1120     05F7  1495               	bsf	21,1	;volatile
  1121     05F8                     l1456:
  1122                           
  1123                           ;protest5.c: 171:     INTCONbits.RBIE = 1;
  1124     05F8  158B               	bsf	11,3	;volatile
  1125     05F9                     l1458:
  1126                           
  1127                           ;protest5.c: 172:     INTCONbits.RBIF = 0;
  1128     05F9  100B               	bcf	11,0	;volatile
  1129     05FA                     l1460:
  1130                           
  1131                           ;protest5.c: 173:     IOCBbits.IOCB0 = 1;
  1132     05FA  1416               	bsf	22,0	;volatile
  1133     05FB                     l1462:
  1134                           
  1135                           ;protest5.c: 174:     IOCBbits.IOCB1 = 1;
  1136     05FB  1496               	bsf	22,1	;volatile
  1137     05FC                     l1464:
  1138                           
  1139                           ;protest5.c: 177:     PIR1bits.RCIF = 0;
  1140     05FC  1283               	bcf	3,5	;RP0=0, select bank0
  1141     05FD  1303               	bcf	3,6	;RP1=0, select bank0
  1142     05FE  128C               	bcf	12,5	;volatile
  1143     05FF                     l1466:
  1144                           
  1145                           ;protest5.c: 178:     PIE1bits.RCIE = 1;
  1146     05FF  1683               	bsf	3,5	;RP0=1, select bank1
  1147     0600  1303               	bcf	3,6	;RP1=0, select bank1
  1148     0601  168C               	bsf	12,5	;volatile
  1149     0602                     l1468:
  1150                           
  1151                           ;protest5.c: 179:     INTCONbits.PEIE = 1;
  1152     0602  170B               	bsf	11,6	;volatile
  1153     0603                     l1470:
  1154                           
  1155                           ;protest5.c: 180:     INTCONbits.GIE = 1;
  1156     0603  178B               	bsf	11,7	;volatile
  1157     0604                     l1472:
  1158                           
  1159                           ;protest5.c: 182:     PORTA = 0;
  1160     0604  1283               	bcf	3,5	;RP0=0, select bank0
  1161     0605  1303               	bcf	3,6	;RP1=0, select bank0
  1162     0606  0185               	clrf	5	;volatile
  1163     0607                     l1474:
  1164                           
  1165                           ;protest5.c: 183:     PORTB = 0;
  1166     0607  0186               	clrf	6	;volatile
  1167     0608                     l1476:
  1168                           
  1169                           ;protest5.c: 184:     PORTC = 0;
  1170     0608  0187               	clrf	7	;volatile
  1171     0609                     l1478:
  1172                           
  1173                           ;protest5.c: 185:     PORTD = 0;
  1174     0609  0188               	clrf	8	;volatile
  1175     060A                     l1480:
  1176                           
  1177                           ;protest5.c: 186:     PORTE = 0;
  1178     060A  0189               	clrf	9	;volatile
  1179     060B                     l184:
  1180     060B  0008               	return
  1181     060C                     __end_of_setup:
  1182                           
  1183                           	psect	text3
  1184     06F2                     __ptext3:	
  1185 ;; *************** function _readEEPROM *****************
  1186 ;; Defined at:
  1187 ;;		line 209 in file "protest5.c"
  1188 ;; Parameters:    Size  Location     Type
  1189 ;;  adress          2   18[BANK0 ] unsigned int 
  1190 ;; Auto vars:     Size  Location     Type
  1191 ;;		None
  1192 ;; Return value:  Size  Location     Type
  1193 ;;                  2   18[BANK0 ] unsigned int 
  1194 ;; Registers used:
  1195 ;;		wreg
  1196 ;; Tracked objects:
  1197 ;;		On entry : 0/0
  1198 ;;		On exit  : 0/0
  1199 ;;		Unchanged: 0/0
  1200 ;; Data sizes:     COMMON   BANK0   BANK1   BANK3   BANK2
  1201 ;;      Params:         0       2       0       0       0
  1202 ;;      Locals:         0       0       0       0       0
  1203 ;;      Temps:          0       2       0       0       0
  1204 ;;      Totals:         0       4       0       0       0
  1205 ;;Total ram usage:        4 bytes
  1206 ;; Hardware stack levels used: 1
  1207 ;; Hardware stack levels required when called: 3
  1208 ;; This function calls:
  1209 ;;		Nothing
  1210 ;; This function is called by:
  1211 ;;		_main
  1212 ;; This function uses a non-reentrant model
  1213 ;;
  1214                           
  1215     06F2                     _readEEPROM:	
  1216                           ;psect for function _readEEPROM
  1217                           
  1218     06F2                     l1496:	
  1219                           ;incstack = 0
  1220                           ; Regs used in _readEEPROM: [wreg]
  1221                           
  1222                           
  1223                           ;protest5.c: 210:     EEADR = adress;
  1224     06F2  1283               	bcf	3,5	;RP0=0, select bank0
  1225     06F3  1303               	bcf	3,6	;RP1=0, select bank0
  1226     06F4  084E               	movf	readEEPROM@adress,w
  1227     06F5  1283               	bcf	3,5	;RP0=0, select bank2
  1228     06F6  1703               	bsf	3,6	;RP1=1, select bank2
  1229     06F7  008D               	movwf	13	;volatile
  1230     06F8                     l1498:
  1231                           
  1232                           ;protest5.c: 211:     EECON1bits.EEPGD = 0;
  1233     06F8  1683               	bsf	3,5	;RP0=1, select bank3
  1234     06F9  1703               	bsf	3,6	;RP1=1, select bank3
  1235     06FA  138C               	bcf	12,7	;volsfr
  1236     06FB                     l1500:
  1237                           
  1238                           ;protest5.c: 212:     EECON1bits.RD = 1;
  1239     06FB  140C               	bsf	12,0	;volsfr
  1240                           
  1241                           ;protest5.c: 213:     return EEDAT;
  1242     06FC  1283               	bcf	3,5	;RP0=0, select bank2
  1243     06FD  1703               	bsf	3,6	;RP1=1, select bank2
  1244     06FE  080C               	movf	12,w	;volatile
  1245     06FF  1283               	bcf	3,5	;RP0=0, select bank0
  1246     0700  1303               	bcf	3,6	;RP1=0, select bank0
  1247     0701  00D0               	movwf	??_readEEPROM
  1248     0702  01D1               	clrf	??_readEEPROM+1
  1249     0703  0850               	movf	??_readEEPROM,w
  1250     0704  00CE               	movwf	?_readEEPROM
  1251     0705  0851               	movf	??_readEEPROM+1,w
  1252     0706  00CF               	movwf	?_readEEPROM+1
  1253     0707                     l190:
  1254     0707  0008               	return
  1255     0708                     __end_of_readEEPROM:
  1256                           
  1257                           	psect	text4
  1258     001E                     __ptext4:	
  1259 ;; *************** function _isr *****************
  1260 ;; Defined at:
  1261 ;;		line 229 in file "protest5.c"
  1262 ;; Parameters:    Size  Location     Type
  1263 ;;		None
  1264 ;; Auto vars:     Size  Location     Type
  1265 ;;		None
  1266 ;; Return value:  Size  Location     Type
  1267 ;;                  1    wreg      void 
  1268 ;; Registers used:
  1269 ;;		wreg, status,2, status,0, pclath, cstack
  1270 ;; Tracked objects:
  1271 ;;		On entry : 0/0
  1272 ;;		On exit  : 0/0
  1273 ;;		Unchanged: 0/0
  1274 ;; Data sizes:     COMMON   BANK0   BANK1   BANK3   BANK2
  1275 ;;      Params:         0       0       0       0       0
  1276 ;;      Locals:         0       0       0       0       0
  1277 ;;      Temps:          0       6       0       0       0
  1278 ;;      Totals:         0       6       0       0       0
  1279 ;;Total ram usage:        6 bytes
  1280 ;; Hardware stack levels used: 1
  1281 ;; Hardware stack levels required when called: 2
  1282 ;; This function calls:
  1283 ;;		_concat_bits
  1284 ;;		_delay_pulse
  1285 ;;		_mapear
  1286 ;; This function is called by:
  1287 ;;		Interrupt level 1
  1288 ;; This function uses a non-reentrant model
  1289 ;;
  1290                           
  1291     001E                     _isr:	
  1292                           ;psect for function _isr
  1293                           
  1294     001E                     i1l1560:
  1295                           
  1296                           ;protest5.c: 230:     if(TMR0IF){
  1297     001E  1D0B               	btfss	11,2	;volatile
  1298     001F  2821               	goto	u102_21
  1299     0020  2822               	goto	u102_20
  1300     0021                     u102_21:
  1301     0021  28A1               	goto	i1l1600
  1302     0022                     u102_20:
  1303     0022                     i1l1562:
  1304                           
  1305                           ;protest5.c: 231:         TMR0 = 8;
  1306     0022  3008               	movlw	8
  1307     0023  0081               	movwf	1	;volatile
  1308     0024                     i1l1564:
  1309                           
  1310                           ;protest5.c: 232:         OPTION_REGbits.PS = 0b101;
  1311     0024  1683               	bsf	3,5	;RP0=1, select bank1
  1312     0025  1303               	bcf	3,6	;RP1=0, select bank1
  1313     0026  0801               	movf	1,w	;volatile
  1314     0027  39F8               	andlw	-8
  1315     0028  3805               	iorlw	5
  1316     0029  0081               	movwf	1	;volatile
  1317     002A                     i1l1566:
  1318                           
  1319                           ;protest5.c: 233:         PSA = 0;
  1320     002A  1181               	bcf	1,3	;volatile
  1321     002B                     i1l1568:
  1322                           
  1323                           ;protest5.c: 235:         if(servo == 0){
  1324     002B  1283               	bcf	3,5	;RP0=0, select bank0
  1325     002C  1303               	bcf	3,6	;RP1=0, select bank0
  1326     002D  083B               	movf	_servo,w
  1327     002E  1D03               	btfss	3,2
  1328     002F  2831               	goto	u103_21
  1329     0030  2832               	goto	u103_20
  1330     0031                     u103_21:
  1331     0031  2854               	goto	i1l1578
  1332     0032                     u103_20:
  1333     0032                     i1l1570:
  1334                           
  1335                           ;protest5.c: 236:             RD0 = 1;
  1336     0032  1408               	bsf	8,0	;volatile
  1337     0033                     i1l1572:
  1338                           
  1339                           ;protest5.c: 237:             delay_pulse(40+(pot1>>3));
  1340     0033  0837               	movf	_pot1+1,w
  1341     0034  00C9               	movwf	??_isr+1
  1342     0035  0836               	movf	_pot1,w
  1343     0036  00C8               	movwf	??_isr
  1344     0037  1003               	clrc
  1345     0038  0CC9               	rrf	??_isr+1,f
  1346     0039  0CC8               	rrf	??_isr,f
  1347     003A  1003               	clrc
  1348     003B  0CC9               	rrf	??_isr+1,f
  1349     003C  0CC8               	rrf	??_isr,f
  1350     003D  1003               	clrc
  1351     003E  0CC9               	rrf	??_isr+1,f
  1352     003F  0CC8               	rrf	??_isr,f
  1353     0040  0848               	movf	??_isr,w
  1354     0041  3E28               	addlw	40
  1355     0042  00F0               	movwf	delay_pulse@time
  1356     0043  0849               	movf	??_isr+1,w
  1357     0044  1803               	skipnc
  1358     0045  3E01               	addlw	1
  1359     0046  3E00               	addlw	0
  1360     0047  00F1               	movwf	delay_pulse@time+1
  1361     0048  120A  118A  2708  120A  118A  	fcall	_delay_pulse
  1362     004D                     i1l1574:
  1363                           
  1364                           ;protest5.c: 238:             RD0 = 0;
  1365     004D  1283               	bcf	3,5	;RP0=0, select bank0
  1366     004E  1303               	bcf	3,6	;RP1=0, select bank0
  1367     004F  1008               	bcf	8,0	;volatile
  1368     0050                     i1l1576:
  1369                           
  1370                           ;protest5.c: 239:             servo++;
  1371     0050  3001               	movlw	1
  1372     0051  00C8               	movwf	??_isr
  1373     0052  0848               	movf	??_isr,w
  1374     0053  07BB               	addwf	_servo,f
  1375     0054                     i1l1578:
  1376                           
  1377                           ;protest5.c: 241:         if(servo == 1){
  1378     0054  033B               	decf	_servo,w
  1379     0055  1D03               	btfss	3,2
  1380     0056  2858               	goto	u104_21
  1381     0057  2859               	goto	u104_20
  1382     0058                     u104_21:
  1383     0058  287B               	goto	i1l1588
  1384     0059                     u104_20:
  1385     0059                     i1l1580:
  1386                           
  1387                           ;protest5.c: 242:             RD1 = 1;
  1388     0059  1488               	bsf	8,1	;volatile
  1389     005A                     i1l1582:
  1390                           
  1391                           ;protest5.c: 243:             delay_pulse(40+(pot2>>3));
  1392     005A  0835               	movf	_pot2+1,w
  1393     005B  00C9               	movwf	??_isr+1
  1394     005C  0834               	movf	_pot2,w
  1395     005D  00C8               	movwf	??_isr
  1396     005E  1003               	clrc
  1397     005F  0CC9               	rrf	??_isr+1,f
  1398     0060  0CC8               	rrf	??_isr,f
  1399     0061  1003               	clrc
  1400     0062  0CC9               	rrf	??_isr+1,f
  1401     0063  0CC8               	rrf	??_isr,f
  1402     0064  1003               	clrc
  1403     0065  0CC9               	rrf	??_isr+1,f
  1404     0066  0CC8               	rrf	??_isr,f
  1405     0067  0848               	movf	??_isr,w
  1406     0068  3E28               	addlw	40
  1407     0069  00F0               	movwf	delay_pulse@time
  1408     006A  0849               	movf	??_isr+1,w
  1409     006B  1803               	skipnc
  1410     006C  3E01               	addlw	1
  1411     006D  3E00               	addlw	0
  1412     006E  00F1               	movwf	delay_pulse@time+1
  1413     006F  120A  118A  2708  120A  118A  	fcall	_delay_pulse
  1414     0074                     i1l1584:
  1415                           
  1416                           ;protest5.c: 244:             RD1 = 0;
  1417     0074  1283               	bcf	3,5	;RP0=0, select bank0
  1418     0075  1303               	bcf	3,6	;RP1=0, select bank0
  1419     0076  1088               	bcf	8,1	;volatile
  1420     0077                     i1l1586:
  1421                           
  1422                           ;protest5.c: 245:             servo++;
  1423     0077  3001               	movlw	1
  1424     0078  00C8               	movwf	??_isr
  1425     0079  0848               	movf	??_isr,w
  1426     007A  07BB               	addwf	_servo,f
  1427     007B                     i1l1588:
  1428                           
  1429                           ;protest5.c: 247:         if(servo == 2){
  1430     007B  3002               	movlw	2
  1431     007C  063B               	xorwf	_servo,w
  1432     007D  1D03               	btfss	3,2
  1433     007E  2880               	goto	u105_21
  1434     007F  2881               	goto	u105_20
  1435     0080                     u105_21:
  1436     0080  28A0               	goto	i1l1598
  1437     0081                     u105_20:
  1438     0081                     i1l1590:
  1439                           
  1440                           ;protest5.c: 248:             RD2 = 1;
  1441     0081  1508               	bsf	8,2	;volatile
  1442     0082                     i1l1592:
  1443                           
  1444                           ;protest5.c: 249:             delay_pulse(40+(pot3>>3));
  1445     0082  0833               	movf	_pot3+1,w
  1446     0083  00C9               	movwf	??_isr+1
  1447     0084  0832               	movf	_pot3,w
  1448     0085  00C8               	movwf	??_isr
  1449     0086  1003               	clrc
  1450     0087  0CC9               	rrf	??_isr+1,f
  1451     0088  0CC8               	rrf	??_isr,f
  1452     0089  1003               	clrc
  1453     008A  0CC9               	rrf	??_isr+1,f
  1454     008B  0CC8               	rrf	??_isr,f
  1455     008C  1003               	clrc
  1456     008D  0CC9               	rrf	??_isr+1,f
  1457     008E  0CC8               	rrf	??_isr,f
  1458     008F  0848               	movf	??_isr,w
  1459     0090  3E28               	addlw	40
  1460     0091  00F0               	movwf	delay_pulse@time
  1461     0092  0849               	movf	??_isr+1,w
  1462     0093  1803               	skipnc
  1463     0094  3E01               	addlw	1
  1464     0095  3E00               	addlw	0
  1465     0096  00F1               	movwf	delay_pulse@time+1
  1466     0097  120A  118A  2708  120A  118A  	fcall	_delay_pulse
  1467     009C                     i1l1594:
  1468                           
  1469                           ;protest5.c: 250:             RD2 = 0;
  1470     009C  1283               	bcf	3,5	;RP0=0, select bank0
  1471     009D  1303               	bcf	3,6	;RP1=0, select bank0
  1472     009E  1108               	bcf	8,2	;volatile
  1473     009F                     i1l1596:
  1474                           
  1475                           ;protest5.c: 251:             servo = 0;
  1476     009F  01BB               	clrf	_servo
  1477     00A0                     i1l1598:
  1478                           
  1479                           ;protest5.c: 253:         TMR0IF = 0;
  1480     00A0  110B               	bcf	11,2	;volatile
  1481     00A1                     i1l1600:
  1482                           
  1483                           ;protest5.c: 256:     if(ADIF == 1){
  1484     00A1  1F0C               	btfss	12,6	;volatile
  1485     00A2  28A4               	goto	u106_21
  1486     00A3  28A5               	goto	u106_20
  1487     00A4                     u106_21:
  1488     00A4  294B               	goto	i1l1638
  1489     00A5                     u106_20:
  1490     00A5                     i1l1602:
  1491                           
  1492                           ;protest5.c: 257:         if(RA6 == 0 && RA7 == 0){
  1493     00A5  1B05               	btfsc	5,6	;volatile
  1494     00A6  28A8               	goto	u107_21
  1495     00A7  28A9               	goto	u107_20
  1496     00A8                     u107_21:
  1497     00A8  294A               	goto	i1l1636
  1498     00A9                     u107_20:
  1499     00A9                     i1l1604:
  1500     00A9  1B85               	btfsc	5,7	;volatile
  1501     00AA  28AC               	goto	u108_21
  1502     00AB  28AD               	goto	u108_20
  1503     00AC                     u108_21:
  1504     00AC  294A               	goto	i1l1636
  1505     00AD                     u108_20:
  1506     00AD                     i1l1606:
  1507                           
  1508                           ;protest5.c: 258:             if(CHS0 == 0 && CHS1 == 0){
  1509     00AD  191F               	btfsc	31,2	;volatile
  1510     00AE  28B0               	goto	u109_21
  1511     00AF  28B1               	goto	u109_20
  1512     00B0                     u109_21:
  1513     00B0  28D4               	goto	i1l210
  1514     00B1                     u109_20:
  1515     00B1                     i1l1608:
  1516     00B1  199F               	btfsc	31,3	;volatile
  1517     00B2  28B4               	goto	u110_21
  1518     00B3  28B5               	goto	u110_20
  1519     00B4                     u110_21:
  1520     00B4  28D4               	goto	i1l210
  1521     00B5                     u110_20:
  1522     00B5                     i1l1610:
  1523                           
  1524                           ;protest5.c: 259:                 pot0 = concat_bits(ADRESH, ADRESL);
  1525     00B5  081E               	movf	30,w	;volatile
  1526     00B6  00C8               	movwf	??_isr
  1527     00B7  01C9               	clrf	??_isr+1
  1528     00B8  0848               	movf	??_isr,w
  1529     00B9  00F0               	movwf	concat_bits@x
  1530     00BA  0849               	movf	??_isr+1,w
  1531     00BB  00F1               	movwf	concat_bits@x+1
  1532     00BC  1683               	bsf	3,5	;RP0=1, select bank1
  1533     00BD  1303               	bcf	3,6	;RP1=0, select bank1
  1534     00BE  081E               	movf	30,w	;volatile
  1535     00BF  1283               	bcf	3,5	;RP0=0, select bank0
  1536     00C0  1303               	bcf	3,6	;RP1=0, select bank0
  1537     00C1  00CA               	movwf	??_isr+2
  1538     00C2  01CB               	clrf	??_isr+3
  1539     00C3  084A               	movf	??_isr+2,w
  1540     00C4  00F2               	movwf	concat_bits@y
  1541     00C5  084B               	movf	??_isr+3,w
  1542     00C6  00F3               	movwf	concat_bits@y+1
  1543     00C7  120A  118A  26D2  120A  118A  	fcall	_concat_bits
  1544     00CC  0871               	movf	?_concat_bits+1,w
  1545     00CD  1283               	bcf	3,5	;RP0=0, select bank0
  1546     00CE  1303               	bcf	3,6	;RP1=0, select bank0
  1547     00CF  00B9               	movwf	_pot0+1
  1548     00D0  0870               	movf	?_concat_bits,w
  1549     00D1  00B8               	movwf	_pot0
  1550     00D2                     i1l1612:
  1551                           
  1552                           ;protest5.c: 260:                 CHS0 = 1;
  1553     00D2  151F               	bsf	31,2	;volatile
  1554                           
  1555                           ;protest5.c: 261:             }else if(CHS0 == 1 && CHS1 == 0){
  1556     00D3  294A               	goto	i1l1636
  1557     00D4                     i1l210:
  1558     00D4  1D1F               	btfss	31,2	;volatile
  1559     00D5  28D7               	goto	u111_21
  1560     00D6  28D8               	goto	u111_20
  1561     00D7                     u111_21:
  1562     00D7  28FC               	goto	i1l212
  1563     00D8                     u111_20:
  1564     00D8                     i1l1614:
  1565     00D8  199F               	btfsc	31,3	;volatile
  1566     00D9  28DB               	goto	u112_21
  1567     00DA  28DC               	goto	u112_20
  1568     00DB                     u112_21:
  1569     00DB  28FC               	goto	i1l212
  1570     00DC                     u112_20:
  1571     00DC                     i1l1616:
  1572                           
  1573                           ;protest5.c: 262:                 pot1 = concat_bits(ADRESH, ADRESL);
  1574     00DC  081E               	movf	30,w	;volatile
  1575     00DD  00C8               	movwf	??_isr
  1576     00DE  01C9               	clrf	??_isr+1
  1577     00DF  0848               	movf	??_isr,w
  1578     00E0  00F0               	movwf	concat_bits@x
  1579     00E1  0849               	movf	??_isr+1,w
  1580     00E2  00F1               	movwf	concat_bits@x+1
  1581     00E3  1683               	bsf	3,5	;RP0=1, select bank1
  1582     00E4  1303               	bcf	3,6	;RP1=0, select bank1
  1583     00E5  081E               	movf	30,w	;volatile
  1584     00E6  1283               	bcf	3,5	;RP0=0, select bank0
  1585     00E7  1303               	bcf	3,6	;RP1=0, select bank0
  1586     00E8  00CA               	movwf	??_isr+2
  1587     00E9  01CB               	clrf	??_isr+3
  1588     00EA  084A               	movf	??_isr+2,w
  1589     00EB  00F2               	movwf	concat_bits@y
  1590     00EC  084B               	movf	??_isr+3,w
  1591     00ED  00F3               	movwf	concat_bits@y+1
  1592     00EE  120A  118A  26D2  120A  118A  	fcall	_concat_bits
  1593     00F3  0871               	movf	?_concat_bits+1,w
  1594     00F4  1283               	bcf	3,5	;RP0=0, select bank0
  1595     00F5  1303               	bcf	3,6	;RP1=0, select bank0
  1596     00F6  00B7               	movwf	_pot1+1
  1597     00F7  0870               	movf	?_concat_bits,w
  1598     00F8  00B6               	movwf	_pot1
  1599     00F9                     i1l1618:
  1600                           
  1601                           ;protest5.c: 263:                 CHS0 = 0;
  1602     00F9  111F               	bcf	31,2	;volatile
  1603     00FA                     i1l1620:
  1604                           
  1605                           ;protest5.c: 264:                 CHS1 = 1;
  1606     00FA  159F               	bsf	31,3	;volatile
  1607                           
  1608                           ;protest5.c: 265:             }else if(CHS0 == 0 && CHS1 == 1){
  1609     00FB  294A               	goto	i1l1636
  1610     00FC                     i1l212:
  1611     00FC  191F               	btfsc	31,2	;volatile
  1612     00FD  28FF               	goto	u113_21
  1613     00FE  2900               	goto	u113_20
  1614     00FF                     u113_21:
  1615     00FF  2922               	goto	i1l214
  1616     0100                     u113_20:
  1617     0100                     i1l1622:
  1618     0100  1D9F               	btfss	31,3	;volatile
  1619     0101  2903               	goto	u114_21
  1620     0102  2904               	goto	u114_20
  1621     0103                     u114_21:
  1622     0103  2922               	goto	i1l214
  1623     0104                     u114_20:
  1624     0104                     i1l1624:
  1625                           
  1626                           ;protest5.c: 266:                 pot2 = concat_bits(ADRESH, ADRESL);
  1627     0104  081E               	movf	30,w	;volatile
  1628     0105  00C8               	movwf	??_isr
  1629     0106  01C9               	clrf	??_isr+1
  1630     0107  0848               	movf	??_isr,w
  1631     0108  00F0               	movwf	concat_bits@x
  1632     0109  0849               	movf	??_isr+1,w
  1633     010A  00F1               	movwf	concat_bits@x+1
  1634     010B  1683               	bsf	3,5	;RP0=1, select bank1
  1635     010C  1303               	bcf	3,6	;RP1=0, select bank1
  1636     010D  081E               	movf	30,w	;volatile
  1637     010E  1283               	bcf	3,5	;RP0=0, select bank0
  1638     010F  1303               	bcf	3,6	;RP1=0, select bank0
  1639     0110  00CA               	movwf	??_isr+2
  1640     0111  01CB               	clrf	??_isr+3
  1641     0112  084A               	movf	??_isr+2,w
  1642     0113  00F2               	movwf	concat_bits@y
  1643     0114  084B               	movf	??_isr+3,w
  1644     0115  00F3               	movwf	concat_bits@y+1
  1645     0116  120A  118A  26D2  120A  118A  	fcall	_concat_bits
  1646     011B  0871               	movf	?_concat_bits+1,w
  1647     011C  1283               	bcf	3,5	;RP0=0, select bank0
  1648     011D  1303               	bcf	3,6	;RP1=0, select bank0
  1649     011E  00B5               	movwf	_pot2+1
  1650     011F  0870               	movf	?_concat_bits,w
  1651     0120  00B4               	movwf	_pot2
  1652     0121  28D2               	goto	i1l1612
  1653     0122                     i1l214:
  1654     0122  1D1F               	btfss	31,2	;volatile
  1655     0123  2925               	goto	u115_21
  1656     0124  2926               	goto	u115_20
  1657     0125                     u115_21:
  1658     0125  294A               	goto	i1l211
  1659     0126                     u115_20:
  1660     0126                     i1l1628:
  1661     0126  1D9F               	btfss	31,3	;volatile
  1662     0127  2929               	goto	u116_21
  1663     0128  292A               	goto	u116_20
  1664     0129                     u116_21:
  1665     0129  294A               	goto	i1l211
  1666     012A                     u116_20:
  1667     012A                     i1l1630:
  1668                           
  1669                           ;protest5.c: 269:                 pot3 = concat_bits(ADRESH, ADRESL);
  1670     012A  081E               	movf	30,w	;volatile
  1671     012B  00C8               	movwf	??_isr
  1672     012C  01C9               	clrf	??_isr+1
  1673     012D  0848               	movf	??_isr,w
  1674     012E  00F0               	movwf	concat_bits@x
  1675     012F  0849               	movf	??_isr+1,w
  1676     0130  00F1               	movwf	concat_bits@x+1
  1677     0131  1683               	bsf	3,5	;RP0=1, select bank1
  1678     0132  1303               	bcf	3,6	;RP1=0, select bank1
  1679     0133  081E               	movf	30,w	;volatile
  1680     0134  1283               	bcf	3,5	;RP0=0, select bank0
  1681     0135  1303               	bcf	3,6	;RP1=0, select bank0
  1682     0136  00CA               	movwf	??_isr+2
  1683     0137  01CB               	clrf	??_isr+3
  1684     0138  084A               	movf	??_isr+2,w
  1685     0139  00F2               	movwf	concat_bits@y
  1686     013A  084B               	movf	??_isr+3,w
  1687     013B  00F3               	movwf	concat_bits@y+1
  1688     013C  120A  118A  26D2  120A  118A  	fcall	_concat_bits
  1689     0141  0871               	movf	?_concat_bits+1,w
  1690     0142  1283               	bcf	3,5	;RP0=0, select bank0
  1691     0143  1303               	bcf	3,6	;RP1=0, select bank0
  1692     0144  00B3               	movwf	_pot3+1
  1693     0145  0870               	movf	?_concat_bits,w
  1694     0146  00B2               	movwf	_pot3
  1695     0147                     i1l1632:
  1696                           
  1697                           ;protest5.c: 270:                 CHS0 = 0;
  1698     0147  111F               	bcf	31,2	;volatile
  1699     0148                     i1l1634:
  1700                           
  1701                           ;protest5.c: 271:                 CHS1 = 0;
  1702     0148  119F               	bcf	31,3	;volatile
  1703     0149  294A               	goto	i1l1636
  1704     014A                     i1l211:
  1705     014A                     i1l1636:
  1706                           
  1707                           ;protest5.c: 274:         ADIF = 0;
  1708     014A  130C               	bcf	12,6	;volatile
  1709     014B                     i1l1638:
  1710                           
  1711                           ;protest5.c: 277:     if(PIR1bits.RCIF){
  1712     014B  1E8C               	btfss	12,5	;volatile
  1713     014C  294E               	goto	u117_21
  1714     014D  294F               	goto	u117_20
  1715     014E                     u117_21:
  1716     014E  2CB2               	goto	i1l1796
  1717     014F                     u117_20:
  1718     014F                     i1l1640:
  1719                           
  1720                           ;protest5.c: 278:         TXREG = RCREG;
  1721     014F  081A               	movf	26,w	;volatile
  1722     0150  0099               	movwf	25	;volatile
  1723     0151                     i1l1642:
  1724                           
  1725                           ;protest5.c: 279:         if(RA6 == 0 && RA7 == 1){
  1726     0151  1B05               	btfsc	5,6	;volatile
  1727     0152  2954               	goto	u118_21
  1728     0153  2955               	goto	u118_20
  1729     0154                     u118_21:
  1730     0154  2B01               	goto	i1l1718
  1731     0155                     u118_20:
  1732     0155                     i1l1644:
  1733     0155  1F85               	btfss	5,7	;volatile
  1734     0156  2958               	goto	u119_21
  1735     0157  2959               	goto	u119_20
  1736     0158                     u119_21:
  1737     0158  2B01               	goto	i1l1718
  1738     0159                     u119_20:
  1739     0159                     i1l1646:
  1740                           
  1741                           ;protest5.c: 280:             if(RCREG == 120){
  1742     0159  3078               	movlw	120
  1743     015A  061A               	xorwf	26,w	;volatile
  1744     015B  1D03               	btfss	3,2
  1745     015C  295E               	goto	u120_21
  1746     015D  295F               	goto	u120_20
  1747     015E                     u120_21:
  1748     015E  298E               	goto	i1l1656
  1749     015F                     u120_20:
  1750     015F                     i1l1648:
  1751                           
  1752                           ;protest5.c: 281:                 conPot1++;
  1753     015F  3001               	movlw	1
  1754     0160  07AE               	addwf	_conPot1,f
  1755     0161  1803               	skipnc
  1756     0162  0AAF               	incf	_conPot1+1,f
  1757     0163  3000               	movlw	0
  1758     0164  07AF               	addwf	_conPot1+1,f
  1759     0165                     i1l1650:
  1760                           
  1761                           ;protest5.c: 283:                 if(conPot1 == 19){
  1762     0165  3013               	movlw	19
  1763     0166  062E               	xorwf	_conPot1,w
  1764     0167  042F               	iorwf	_conPot1+1,w
  1765     0168  1D03               	btfss	3,2
  1766     0169  296B               	goto	u121_21
  1767     016A  296C               	goto	u121_20
  1768     016B                     u121_21:
  1769     016B  2970               	goto	i1l1654
  1770     016C                     u121_20:
  1771     016C                     i1l1652:
  1772                           
  1773                           ;protest5.c: 284:                     conPot1 = 18;
  1774     016C  3012               	movlw	18
  1775     016D  00AE               	movwf	_conPot1
  1776     016E  3000               	movlw	0
  1777     016F  00AF               	movwf	_conPot1+1
  1778     0170                     i1l1654:
  1779                           
  1780                           ;protest5.c: 286:                 pot1 = mapear(conPot1, 0, 18, 230, 800);
  1781     0170  082F               	movf	_conPot1+1,w
  1782     0171  00BD               	movwf	mapear@valor+1
  1783     0172  082E               	movf	_conPot1,w
  1784     0173  00BC               	movwf	mapear@valor
  1785     0174  3000               	movlw	0
  1786     0175  00BE               	movwf	mapear@rango_min
  1787     0176  00BF               	movwf	mapear@rango_min+1
  1788     0177  3012               	movlw	18
  1789     0178  00C0               	movwf	mapear@rango_max
  1790     0179  3000               	movlw	0
  1791     017A  00C1               	movwf	mapear@rango_max+1
  1792     017B  30E6               	movlw	230
  1793     017C  00C2               	movwf	mapear@nuevo_min
  1794     017D  3000               	movlw	0
  1795     017E  00C3               	movwf	mapear@nuevo_min+1
  1796     017F  3020               	movlw	32
  1797     0180  00C4               	movwf	mapear@nuevo_max
  1798     0181  3003               	movlw	3
  1799     0182  00C5               	movwf	mapear@nuevo_max+1
  1800     0183  120A  118A  2650  120A  118A  	fcall	_mapear
  1801     0188  1283               	bcf	3,5	;RP0=0, select bank0
  1802     0189  1303               	bcf	3,6	;RP1=0, select bank0
  1803     018A  083D               	movf	?_mapear+1,w
  1804     018B  00B7               	movwf	_pot1+1
  1805     018C  083C               	movf	?_mapear,w
  1806     018D  00B6               	movwf	_pot1
  1807     018E                     i1l1656:
  1808                           
  1809                           ;protest5.c: 288:             if(RCREG == 111){
  1810     018E  306F               	movlw	111
  1811     018F  061A               	xorwf	26,w	;volatile
  1812     0190  1D03               	btfss	3,2
  1813     0191  2993               	goto	u122_21
  1814     0192  2994               	goto	u122_20
  1815     0193                     u122_21:
  1816     0193  29C3               	goto	i1l1664
  1817     0194                     u122_20:
  1818     0194                     i1l1658:
  1819                           
  1820                           ;protest5.c: 289:                 conPot1--;
  1821     0194  3001               	movlw	1
  1822     0195  02AE               	subwf	_conPot1,f
  1823     0196  3000               	movlw	0
  1824     0197  1C03               	skipc
  1825     0198  03AF               	decf	_conPot1+1,f
  1826     0199  02AF               	subwf	_conPot1+1,f
  1827                           
  1828                           ;protest5.c: 290:                 if(conPot1 >= 256){
  1829     019A  3001               	movlw	1
  1830     019B  022F               	subwf	_conPot1+1,w
  1831     019C  3000               	movlw	0
  1832     019D  1903               	skipnz
  1833     019E  022E               	subwf	_conPot1,w
  1834     019F  1C03               	skipc
  1835     01A0  29A2               	goto	u123_21
  1836     01A1  29A3               	goto	u123_20
  1837     01A2                     u123_21:
  1838     01A2  29A5               	goto	i1l1662
  1839     01A3                     u123_20:
  1840     01A3                     i1l1660:
  1841                           
  1842                           ;protest5.c: 291:                     conPot1 = 0;
  1843     01A3  01AE               	clrf	_conPot1
  1844     01A4  01AF               	clrf	_conPot1+1
  1845     01A5                     i1l1662:
  1846                           
  1847                           ;protest5.c: 293:                 pot1 = mapear(conPot1, 0, 18, 230, 800);
  1848     01A5  082F               	movf	_conPot1+1,w
  1849     01A6  00BD               	movwf	mapear@valor+1
  1850     01A7  082E               	movf	_conPot1,w
  1851     01A8  00BC               	movwf	mapear@valor
  1852     01A9  3000               	movlw	0
  1853     01AA  00BE               	movwf	mapear@rango_min
  1854     01AB  00BF               	movwf	mapear@rango_min+1
  1855     01AC  3012               	movlw	18
  1856     01AD  00C0               	movwf	mapear@rango_max
  1857     01AE  3000               	movlw	0
  1858     01AF  00C1               	movwf	mapear@rango_max+1
  1859     01B0  30E6               	movlw	230
  1860     01B1  00C2               	movwf	mapear@nuevo_min
  1861     01B2  3000               	movlw	0
  1862     01B3  00C3               	movwf	mapear@nuevo_min+1
  1863     01B4  3020               	movlw	32
  1864     01B5  00C4               	movwf	mapear@nuevo_max
  1865     01B6  3003               	movlw	3
  1866     01B7  00C5               	movwf	mapear@nuevo_max+1
  1867     01B8  120A  118A  2650  120A  118A  	fcall	_mapear
  1868     01BD  1283               	bcf	3,5	;RP0=0, select bank0
  1869     01BE  1303               	bcf	3,6	;RP1=0, select bank0
  1870     01BF  083D               	movf	?_mapear+1,w
  1871     01C0  00B7               	movwf	_pot1+1
  1872     01C1  083C               	movf	?_mapear,w
  1873     01C2  00B6               	movwf	_pot1
  1874     01C3                     i1l1664:
  1875                           
  1876                           ;protest5.c: 295:             if(RCREG == 97){
  1877     01C3  3061               	movlw	97
  1878     01C4  061A               	xorwf	26,w	;volatile
  1879     01C5  1D03               	btfss	3,2
  1880     01C6  29C8               	goto	u124_21
  1881     01C7  29C9               	goto	u124_20
  1882     01C8                     u124_21:
  1883     01C8  29F8               	goto	i1l1674
  1884     01C9                     u124_20:
  1885     01C9                     i1l1666:
  1886                           
  1887                           ;protest5.c: 296:                 conPot0++;
  1888     01C9  3001               	movlw	1
  1889     01CA  07B0               	addwf	_conPot0,f
  1890     01CB  1803               	skipnc
  1891     01CC  0AB1               	incf	_conPot0+1,f
  1892     01CD  3000               	movlw	0
  1893     01CE  07B1               	addwf	_conPot0+1,f
  1894     01CF                     i1l1668:
  1895                           
  1896                           ;protest5.c: 298:                 if(conPot0 == 19){
  1897     01CF  3013               	movlw	19
  1898     01D0  0630               	xorwf	_conPot0,w
  1899     01D1  0431               	iorwf	_conPot0+1,w
  1900     01D2  1D03               	btfss	3,2
  1901     01D3  29D5               	goto	u125_21
  1902     01D4  29D6               	goto	u125_20
  1903     01D5                     u125_21:
  1904     01D5  29DA               	goto	i1l1672
  1905     01D6                     u125_20:
  1906     01D6                     i1l1670:
  1907                           
  1908                           ;protest5.c: 299:                     conPot0 = 18;
  1909     01D6  3012               	movlw	18
  1910     01D7  00B0               	movwf	_conPot0
  1911     01D8  3000               	movlw	0
  1912     01D9  00B1               	movwf	_conPot0+1
  1913     01DA                     i1l1672:
  1914                           
  1915                           ;protest5.c: 301:                 pot0 = mapear(conPot0, 0, 18, 230, 800);
  1916     01DA  0831               	movf	_conPot0+1,w
  1917     01DB  00BD               	movwf	mapear@valor+1
  1918     01DC  0830               	movf	_conPot0,w
  1919     01DD  00BC               	movwf	mapear@valor
  1920     01DE  3000               	movlw	0
  1921     01DF  00BE               	movwf	mapear@rango_min
  1922     01E0  00BF               	movwf	mapear@rango_min+1
  1923     01E1  3012               	movlw	18
  1924     01E2  00C0               	movwf	mapear@rango_max
  1925     01E3  3000               	movlw	0
  1926     01E4  00C1               	movwf	mapear@rango_max+1
  1927     01E5  30E6               	movlw	230
  1928     01E6  00C2               	movwf	mapear@nuevo_min
  1929     01E7  3000               	movlw	0
  1930     01E8  00C3               	movwf	mapear@nuevo_min+1
  1931     01E9  3020               	movlw	32
  1932     01EA  00C4               	movwf	mapear@nuevo_max
  1933     01EB  3003               	movlw	3
  1934     01EC  00C5               	movwf	mapear@nuevo_max+1
  1935     01ED  120A  118A  2650  120A  118A  	fcall	_mapear
  1936     01F2  1283               	bcf	3,5	;RP0=0, select bank0
  1937     01F3  1303               	bcf	3,6	;RP1=0, select bank0
  1938     01F4  083D               	movf	?_mapear+1,w
  1939     01F5  00B9               	movwf	_pot0+1
  1940     01F6  083C               	movf	?_mapear,w
  1941     01F7  00B8               	movwf	_pot0
  1942     01F8                     i1l1674:
  1943                           
  1944                           ;protest5.c: 303:             if(RCREG == 115){
  1945     01F8  3073               	movlw	115
  1946     01F9  061A               	xorwf	26,w	;volatile
  1947     01FA  1D03               	btfss	3,2
  1948     01FB  29FD               	goto	u126_21
  1949     01FC  29FE               	goto	u126_20
  1950     01FD                     u126_21:
  1951     01FD  2A2D               	goto	i1l1682
  1952     01FE                     u126_20:
  1953     01FE                     i1l1676:
  1954                           
  1955                           ;protest5.c: 304:                 conPot0--;
  1956     01FE  3001               	movlw	1
  1957     01FF  02B0               	subwf	_conPot0,f
  1958     0200  3000               	movlw	0
  1959     0201  1C03               	skipc
  1960     0202  03B1               	decf	_conPot0+1,f
  1961     0203  02B1               	subwf	_conPot0+1,f
  1962                           
  1963                           ;protest5.c: 305:                 if(conPot0 >= 256){
  1964     0204  3001               	movlw	1
  1965     0205  0231               	subwf	_conPot0+1,w
  1966     0206  3000               	movlw	0
  1967     0207  1903               	skipnz
  1968     0208  0230               	subwf	_conPot0,w
  1969     0209  1C03               	skipc
  1970     020A  2A0C               	goto	u127_21
  1971     020B  2A0D               	goto	u127_20
  1972     020C                     u127_21:
  1973     020C  2A0F               	goto	i1l1680
  1974     020D                     u127_20:
  1975     020D                     i1l1678:
  1976                           
  1977                           ;protest5.c: 306:                     conPot0 = 0;
  1978     020D  01B0               	clrf	_conPot0
  1979     020E  01B1               	clrf	_conPot0+1
  1980     020F                     i1l1680:
  1981                           
  1982                           ;protest5.c: 308:                 pot0 = mapear(conPot0, 0, 18, 230, 800);
  1983     020F  0831               	movf	_conPot0+1,w
  1984     0210  00BD               	movwf	mapear@valor+1
  1985     0211  0830               	movf	_conPot0,w
  1986     0212  00BC               	movwf	mapear@valor
  1987     0213  3000               	movlw	0
  1988     0214  00BE               	movwf	mapear@rango_min
  1989     0215  00BF               	movwf	mapear@rango_min+1
  1990     0216  3012               	movlw	18
  1991     0217  00C0               	movwf	mapear@rango_max
  1992     0218  3000               	movlw	0
  1993     0219  00C1               	movwf	mapear@rango_max+1
  1994     021A  30E6               	movlw	230
  1995     021B  00C2               	movwf	mapear@nuevo_min
  1996     021C  3000               	movlw	0
  1997     021D  00C3               	movwf	mapear@nuevo_min+1
  1998     021E  3020               	movlw	32
  1999     021F  00C4               	movwf	mapear@nuevo_max
  2000     0220  3003               	movlw	3
  2001     0221  00C5               	movwf	mapear@nuevo_max+1
  2002     0222  120A  118A  2650  120A  118A  	fcall	_mapear
  2003     0227  1283               	bcf	3,5	;RP0=0, select bank0
  2004     0228  1303               	bcf	3,6	;RP1=0, select bank0
  2005     0229  083D               	movf	?_mapear+1,w
  2006     022A  00B9               	movwf	_pot0+1
  2007     022B  083C               	movf	?_mapear,w
  2008     022C  00B8               	movwf	_pot0
  2009     022D                     i1l1682:
  2010                           
  2011                           ;protest5.c: 310:             if(RCREG == 113){
  2012     022D  3071               	movlw	113
  2013     022E  061A               	xorwf	26,w	;volatile
  2014     022F  1D03               	btfss	3,2
  2015     0230  2A32               	goto	u128_21
  2016     0231  2A33               	goto	u128_20
  2017     0232                     u128_21:
  2018     0232  2A62               	goto	i1l1692
  2019     0233                     u128_20:
  2020     0233                     i1l1684:
  2021                           
  2022                           ;protest5.c: 311:                 conPot2++;
  2023     0233  3001               	movlw	1
  2024     0234  07AC               	addwf	_conPot2,f
  2025     0235  1803               	skipnc
  2026     0236  0AAD               	incf	_conPot2+1,f
  2027     0237  3000               	movlw	0
  2028     0238  07AD               	addwf	_conPot2+1,f
  2029     0239                     i1l1686:
  2030                           
  2031                           ;protest5.c: 313:                 if(conPot2 == 19){
  2032     0239  3013               	movlw	19
  2033     023A  062C               	xorwf	_conPot2,w
  2034     023B  042D               	iorwf	_conPot2+1,w
  2035     023C  1D03               	btfss	3,2
  2036     023D  2A3F               	goto	u129_21
  2037     023E  2A40               	goto	u129_20
  2038     023F                     u129_21:
  2039     023F  2A44               	goto	i1l1690
  2040     0240                     u129_20:
  2041     0240                     i1l1688:
  2042                           
  2043                           ;protest5.c: 314:                     conPot2 = 18;
  2044     0240  3012               	movlw	18
  2045     0241  00AC               	movwf	_conPot2
  2046     0242  3000               	movlw	0
  2047     0243  00AD               	movwf	_conPot2+1
  2048     0244                     i1l1690:
  2049                           
  2050                           ;protest5.c: 316:                 pot2 = mapear(conPot2, 0, 18, 230, 800);
  2051     0244  082D               	movf	_conPot2+1,w
  2052     0245  00BD               	movwf	mapear@valor+1
  2053     0246  082C               	movf	_conPot2,w
  2054     0247  00BC               	movwf	mapear@valor
  2055     0248  3000               	movlw	0
  2056     0249  00BE               	movwf	mapear@rango_min
  2057     024A  00BF               	movwf	mapear@rango_min+1
  2058     024B  3012               	movlw	18
  2059     024C  00C0               	movwf	mapear@rango_max
  2060     024D  3000               	movlw	0
  2061     024E  00C1               	movwf	mapear@rango_max+1
  2062     024F  30E6               	movlw	230
  2063     0250  00C2               	movwf	mapear@nuevo_min
  2064     0251  3000               	movlw	0
  2065     0252  00C3               	movwf	mapear@nuevo_min+1
  2066     0253  3020               	movlw	32
  2067     0254  00C4               	movwf	mapear@nuevo_max
  2068     0255  3003               	movlw	3
  2069     0256  00C5               	movwf	mapear@nuevo_max+1
  2070     0257  120A  118A  2650  120A  118A  	fcall	_mapear
  2071     025C  1283               	bcf	3,5	;RP0=0, select bank0
  2072     025D  1303               	bcf	3,6	;RP1=0, select bank0
  2073     025E  083D               	movf	?_mapear+1,w
  2074     025F  00B5               	movwf	_pot2+1
  2075     0260  083C               	movf	?_mapear,w
  2076     0261  00B4               	movwf	_pot2
  2077     0262                     i1l1692:
  2078                           
  2079                           ;protest5.c: 318:             if(RCREG == 119){
  2080     0262  3077               	movlw	119
  2081     0263  061A               	xorwf	26,w	;volatile
  2082     0264  1D03               	btfss	3,2
  2083     0265  2A67               	goto	u130_21
  2084     0266  2A68               	goto	u130_20
  2085     0267                     u130_21:
  2086     0267  2A97               	goto	i1l1700
  2087     0268                     u130_20:
  2088     0268                     i1l1694:
  2089                           
  2090                           ;protest5.c: 319:                 conPot2--;
  2091     0268  3001               	movlw	1
  2092     0269  02AC               	subwf	_conPot2,f
  2093     026A  3000               	movlw	0
  2094     026B  1C03               	skipc
  2095     026C  03AD               	decf	_conPot2+1,f
  2096     026D  02AD               	subwf	_conPot2+1,f
  2097                           
  2098                           ;protest5.c: 320:                 if(conPot2 >= 256){
  2099     026E  3001               	movlw	1
  2100     026F  022D               	subwf	_conPot2+1,w
  2101     0270  3000               	movlw	0
  2102     0271  1903               	skipnz
  2103     0272  022C               	subwf	_conPot2,w
  2104     0273  1C03               	skipc
  2105     0274  2A76               	goto	u131_21
  2106     0275  2A77               	goto	u131_20
  2107     0276                     u131_21:
  2108     0276  2A79               	goto	i1l1698
  2109     0277                     u131_20:
  2110     0277                     i1l1696:
  2111                           
  2112                           ;protest5.c: 321:                     conPot2 = 0;
  2113     0277  01AC               	clrf	_conPot2
  2114     0278  01AD               	clrf	_conPot2+1
  2115     0279                     i1l1698:
  2116                           
  2117                           ;protest5.c: 323:                 pot2 = mapear(conPot2, 0, 18, 230, 800);
  2118     0279  082D               	movf	_conPot2+1,w
  2119     027A  00BD               	movwf	mapear@valor+1
  2120     027B  082C               	movf	_conPot2,w
  2121     027C  00BC               	movwf	mapear@valor
  2122     027D  3000               	movlw	0
  2123     027E  00BE               	movwf	mapear@rango_min
  2124     027F  00BF               	movwf	mapear@rango_min+1
  2125     0280  3012               	movlw	18
  2126     0281  00C0               	movwf	mapear@rango_max
  2127     0282  3000               	movlw	0
  2128     0283  00C1               	movwf	mapear@rango_max+1
  2129     0284  30E6               	movlw	230
  2130     0285  00C2               	movwf	mapear@nuevo_min
  2131     0286  3000               	movlw	0
  2132     0287  00C3               	movwf	mapear@nuevo_min+1
  2133     0288  3020               	movlw	32
  2134     0289  00C4               	movwf	mapear@nuevo_max
  2135     028A  3003               	movlw	3
  2136     028B  00C5               	movwf	mapear@nuevo_max+1
  2137     028C  120A  118A  2650  120A  118A  	fcall	_mapear
  2138     0291  1283               	bcf	3,5	;RP0=0, select bank0
  2139     0292  1303               	bcf	3,6	;RP1=0, select bank0
  2140     0293  083D               	movf	?_mapear+1,w
  2141     0294  00B5               	movwf	_pot2+1
  2142     0295  083C               	movf	?_mapear,w
  2143     0296  00B4               	movwf	_pot2
  2144     0297                     i1l1700:
  2145                           
  2146                           ;protest5.c: 325:             if(RCREG == 100){
  2147     0297  3064               	movlw	100
  2148     0298  061A               	xorwf	26,w	;volatile
  2149     0299  1D03               	btfss	3,2
  2150     029A  2A9C               	goto	u132_21
  2151     029B  2A9D               	goto	u132_20
  2152     029C                     u132_21:
  2153     029C  2ACC               	goto	i1l1710
  2154     029D                     u132_20:
  2155     029D                     i1l1702:
  2156                           
  2157                           ;protest5.c: 326:                 conPot3++;
  2158     029D  3001               	movlw	1
  2159     029E  07AA               	addwf	_conPot3,f
  2160     029F  1803               	skipnc
  2161     02A0  0AAB               	incf	_conPot3+1,f
  2162     02A1  3000               	movlw	0
  2163     02A2  07AB               	addwf	_conPot3+1,f
  2164     02A3                     i1l1704:
  2165                           
  2166                           ;protest5.c: 328:                 if(conPot3 == 19){
  2167     02A3  3013               	movlw	19
  2168     02A4  062A               	xorwf	_conPot3,w
  2169     02A5  042B               	iorwf	_conPot3+1,w
  2170     02A6  1D03               	btfss	3,2
  2171     02A7  2AA9               	goto	u133_21
  2172     02A8  2AAA               	goto	u133_20
  2173     02A9                     u133_21:
  2174     02A9  2AAE               	goto	i1l1708
  2175     02AA                     u133_20:
  2176     02AA                     i1l1706:
  2177                           
  2178                           ;protest5.c: 329:                     conPot3 = 18;
  2179     02AA  3012               	movlw	18
  2180     02AB  00AA               	movwf	_conPot3
  2181     02AC  3000               	movlw	0
  2182     02AD  00AB               	movwf	_conPot3+1
  2183     02AE                     i1l1708:
  2184                           
  2185                           ;protest5.c: 331:                 pot3 = mapear(conPot3, 0, 18, 230, 800);
  2186     02AE  082B               	movf	_conPot3+1,w
  2187     02AF  00BD               	movwf	mapear@valor+1
  2188     02B0  082A               	movf	_conPot3,w
  2189     02B1  00BC               	movwf	mapear@valor
  2190     02B2  3000               	movlw	0
  2191     02B3  00BE               	movwf	mapear@rango_min
  2192     02B4  00BF               	movwf	mapear@rango_min+1
  2193     02B5  3012               	movlw	18
  2194     02B6  00C0               	movwf	mapear@rango_max
  2195     02B7  3000               	movlw	0
  2196     02B8  00C1               	movwf	mapear@rango_max+1
  2197     02B9  30E6               	movlw	230
  2198     02BA  00C2               	movwf	mapear@nuevo_min
  2199     02BB  3000               	movlw	0
  2200     02BC  00C3               	movwf	mapear@nuevo_min+1
  2201     02BD  3020               	movlw	32
  2202     02BE  00C4               	movwf	mapear@nuevo_max
  2203     02BF  3003               	movlw	3
  2204     02C0  00C5               	movwf	mapear@nuevo_max+1
  2205     02C1  120A  118A  2650  120A  118A  	fcall	_mapear
  2206     02C6  1283               	bcf	3,5	;RP0=0, select bank0
  2207     02C7  1303               	bcf	3,6	;RP1=0, select bank0
  2208     02C8  083D               	movf	?_mapear+1,w
  2209     02C9  00B3               	movwf	_pot3+1
  2210     02CA  083C               	movf	?_mapear,w
  2211     02CB  00B2               	movwf	_pot3
  2212     02CC                     i1l1710:
  2213                           
  2214                           ;protest5.c: 333:             if(RCREG == 102){
  2215     02CC  3066               	movlw	102
  2216     02CD  061A               	xorwf	26,w	;volatile
  2217     02CE  1D03               	btfss	3,2
  2218     02CF  2AD1               	goto	u134_21
  2219     02D0  2AD2               	goto	u134_20
  2220     02D1                     u134_21:
  2221     02D1  2B01               	goto	i1l1718
  2222     02D2                     u134_20:
  2223     02D2                     i1l1712:
  2224                           
  2225                           ;protest5.c: 334:                 conPot3--;
  2226     02D2  3001               	movlw	1
  2227     02D3  02AA               	subwf	_conPot3,f
  2228     02D4  3000               	movlw	0
  2229     02D5  1C03               	skipc
  2230     02D6  03AB               	decf	_conPot3+1,f
  2231     02D7  02AB               	subwf	_conPot3+1,f
  2232                           
  2233                           ;protest5.c: 335:                 if(conPot3 >= 256){
  2234     02D8  3001               	movlw	1
  2235     02D9  022B               	subwf	_conPot3+1,w
  2236     02DA  3000               	movlw	0
  2237     02DB  1903               	skipnz
  2238     02DC  022A               	subwf	_conPot3,w
  2239     02DD  1C03               	skipc
  2240     02DE  2AE0               	goto	u135_21
  2241     02DF  2AE1               	goto	u135_20
  2242     02E0                     u135_21:
  2243     02E0  2AE3               	goto	i1l1716
  2244     02E1                     u135_20:
  2245     02E1                     i1l1714:
  2246                           
  2247                           ;protest5.c: 336:                     conPot3 = 0;
  2248     02E1  01AA               	clrf	_conPot3
  2249     02E2  01AB               	clrf	_conPot3+1
  2250     02E3                     i1l1716:
  2251                           
  2252                           ;protest5.c: 338:                 pot3 = mapear(conPot3, 0, 18, 230, 800);
  2253     02E3  082B               	movf	_conPot3+1,w
  2254     02E4  00BD               	movwf	mapear@valor+1
  2255     02E5  082A               	movf	_conPot3,w
  2256     02E6  00BC               	movwf	mapear@valor
  2257     02E7  3000               	movlw	0
  2258     02E8  00BE               	movwf	mapear@rango_min
  2259     02E9  00BF               	movwf	mapear@rango_min+1
  2260     02EA  3012               	movlw	18
  2261     02EB  00C0               	movwf	mapear@rango_max
  2262     02EC  3000               	movlw	0
  2263     02ED  00C1               	movwf	mapear@rango_max+1
  2264     02EE  30E6               	movlw	230
  2265     02EF  00C2               	movwf	mapear@nuevo_min
  2266     02F0  3000               	movlw	0
  2267     02F1  00C3               	movwf	mapear@nuevo_min+1
  2268     02F2  3020               	movlw	32
  2269     02F3  00C4               	movwf	mapear@nuevo_max
  2270     02F4  3003               	movlw	3
  2271     02F5  00C5               	movwf	mapear@nuevo_max+1
  2272     02F6  120A  118A  2650  120A  118A  	fcall	_mapear
  2273     02FB  1283               	bcf	3,5	;RP0=0, select bank0
  2274     02FC  1303               	bcf	3,6	;RP1=0, select bank0
  2275     02FD  083D               	movf	?_mapear+1,w
  2276     02FE  00B3               	movwf	_pot3+1
  2277     02FF  083C               	movf	?_mapear,w
  2278     0300  00B2               	movwf	_pot3
  2279     0301                     i1l1718:
  2280                           
  2281                           ;protest5.c: 342:         if(RA6 == 1 && RA7 == 0){
  2282     0301  1F05               	btfss	5,6	;volatile
  2283     0302  2B04               	goto	u136_21
  2284     0303  2B05               	goto	u136_20
  2285     0304                     u136_21:
  2286     0304  2CB1               	goto	i1l1794
  2287     0305                     u136_20:
  2288     0305                     i1l1720:
  2289     0305  1B85               	btfsc	5,7	;volatile
  2290     0306  2B08               	goto	u137_21
  2291     0307  2B09               	goto	u137_20
  2292     0308                     u137_21:
  2293     0308  2CB1               	goto	i1l1794
  2294     0309                     u137_20:
  2295     0309                     i1l1722:
  2296                           
  2297                           ;protest5.c: 343:             if(RCREG == 116){
  2298     0309  3074               	movlw	116
  2299     030A  061A               	xorwf	26,w	;volatile
  2300     030B  1D03               	btfss	3,2
  2301     030C  2B0E               	goto	u138_21
  2302     030D  2B0F               	goto	u138_20
  2303     030E                     u138_21:
  2304     030E  2B3E               	goto	i1l1732
  2305     030F                     u138_20:
  2306     030F                     i1l1724:
  2307                           
  2308                           ;protest5.c: 344:                 conPot1++;
  2309     030F  3001               	movlw	1
  2310     0310  07AE               	addwf	_conPot1,f
  2311     0311  1803               	skipnc
  2312     0312  0AAF               	incf	_conPot1+1,f
  2313     0313  3000               	movlw	0
  2314     0314  07AF               	addwf	_conPot1+1,f
  2315     0315                     i1l1726:
  2316                           
  2317                           ;protest5.c: 346:                 if(conPot1 == 19){
  2318     0315  3013               	movlw	19
  2319     0316  062E               	xorwf	_conPot1,w
  2320     0317  042F               	iorwf	_conPot1+1,w
  2321     0318  1D03               	btfss	3,2
  2322     0319  2B1B               	goto	u139_21
  2323     031A  2B1C               	goto	u139_20
  2324     031B                     u139_21:
  2325     031B  2B20               	goto	i1l1730
  2326     031C                     u139_20:
  2327     031C                     i1l1728:
  2328                           
  2329                           ;protest5.c: 347:                     conPot1 = 18;
  2330     031C  3012               	movlw	18
  2331     031D  00AE               	movwf	_conPot1
  2332     031E  3000               	movlw	0
  2333     031F  00AF               	movwf	_conPot1+1
  2334     0320                     i1l1730:
  2335                           
  2336                           ;protest5.c: 349:                 pot1 = mapear(conPot1, 0, 18, 230, 800);
  2337     0320  082F               	movf	_conPot1+1,w
  2338     0321  00BD               	movwf	mapear@valor+1
  2339     0322  082E               	movf	_conPot1,w
  2340     0323  00BC               	movwf	mapear@valor
  2341     0324  3000               	movlw	0
  2342     0325  00BE               	movwf	mapear@rango_min
  2343     0326  00BF               	movwf	mapear@rango_min+1
  2344     0327  3012               	movlw	18
  2345     0328  00C0               	movwf	mapear@rango_max
  2346     0329  3000               	movlw	0
  2347     032A  00C1               	movwf	mapear@rango_max+1
  2348     032B  30E6               	movlw	230
  2349     032C  00C2               	movwf	mapear@nuevo_min
  2350     032D  3000               	movlw	0
  2351     032E  00C3               	movwf	mapear@nuevo_min+1
  2352     032F  3020               	movlw	32
  2353     0330  00C4               	movwf	mapear@nuevo_max
  2354     0331  3003               	movlw	3
  2355     0332  00C5               	movwf	mapear@nuevo_max+1
  2356     0333  120A  118A  2650  120A  118A  	fcall	_mapear
  2357     0338  1283               	bcf	3,5	;RP0=0, select bank0
  2358     0339  1303               	bcf	3,6	;RP1=0, select bank0
  2359     033A  083D               	movf	?_mapear+1,w
  2360     033B  00B7               	movwf	_pot1+1
  2361     033C  083C               	movf	?_mapear,w
  2362     033D  00B6               	movwf	_pot1
  2363     033E                     i1l1732:
  2364                           
  2365                           ;protest5.c: 351:             if(RCREG == 121){
  2366     033E  3079               	movlw	121
  2367     033F  061A               	xorwf	26,w	;volatile
  2368     0340  1D03               	btfss	3,2
  2369     0341  2B43               	goto	u140_21
  2370     0342  2B44               	goto	u140_20
  2371     0343                     u140_21:
  2372     0343  2B73               	goto	i1l1740
  2373     0344                     u140_20:
  2374     0344                     i1l1734:
  2375                           
  2376                           ;protest5.c: 352:                 conPot1--;
  2377     0344  3001               	movlw	1
  2378     0345  02AE               	subwf	_conPot1,f
  2379     0346  3000               	movlw	0
  2380     0347  1C03               	skipc
  2381     0348  03AF               	decf	_conPot1+1,f
  2382     0349  02AF               	subwf	_conPot1+1,f
  2383                           
  2384                           ;protest5.c: 353:                 if(conPot1 >= 256){
  2385     034A  3001               	movlw	1
  2386     034B  022F               	subwf	_conPot1+1,w
  2387     034C  3000               	movlw	0
  2388     034D  1903               	skipnz
  2389     034E  022E               	subwf	_conPot1,w
  2390     034F  1C03               	skipc
  2391     0350  2B52               	goto	u141_21
  2392     0351  2B53               	goto	u141_20
  2393     0352                     u141_21:
  2394     0352  2B55               	goto	i1l1738
  2395     0353                     u141_20:
  2396     0353                     i1l1736:
  2397                           
  2398                           ;protest5.c: 354:                     conPot1 = 0;
  2399     0353  01AE               	clrf	_conPot1
  2400     0354  01AF               	clrf	_conPot1+1
  2401     0355                     i1l1738:
  2402                           
  2403                           ;protest5.c: 356:                 pot1 = mapear(conPot1, 0, 18, 230, 800);
  2404     0355  082F               	movf	_conPot1+1,w
  2405     0356  00BD               	movwf	mapear@valor+1
  2406     0357  082E               	movf	_conPot1,w
  2407     0358  00BC               	movwf	mapear@valor
  2408     0359  3000               	movlw	0
  2409     035A  00BE               	movwf	mapear@rango_min
  2410     035B  00BF               	movwf	mapear@rango_min+1
  2411     035C  3012               	movlw	18
  2412     035D  00C0               	movwf	mapear@rango_max
  2413     035E  3000               	movlw	0
  2414     035F  00C1               	movwf	mapear@rango_max+1
  2415     0360  30E6               	movlw	230
  2416     0361  00C2               	movwf	mapear@nuevo_min
  2417     0362  3000               	movlw	0
  2418     0363  00C3               	movwf	mapear@nuevo_min+1
  2419     0364  3020               	movlw	32
  2420     0365  00C4               	movwf	mapear@nuevo_max
  2421     0366  3003               	movlw	3
  2422     0367  00C5               	movwf	mapear@nuevo_max+1
  2423     0368  120A  118A  2650  120A  118A  	fcall	_mapear
  2424     036D  1283               	bcf	3,5	;RP0=0, select bank0
  2425     036E  1303               	bcf	3,6	;RP1=0, select bank0
  2426     036F  083D               	movf	?_mapear+1,w
  2427     0370  00B7               	movwf	_pot1+1
  2428     0371  083C               	movf	?_mapear,w
  2429     0372  00B6               	movwf	_pot1
  2430     0373                     i1l1740:
  2431                           
  2432                           ;protest5.c: 358:             if(RCREG == 122){
  2433     0373  307A               	movlw	122
  2434     0374  061A               	xorwf	26,w	;volatile
  2435     0375  1D03               	btfss	3,2
  2436     0376  2B78               	goto	u142_21
  2437     0377  2B79               	goto	u142_20
  2438     0378                     u142_21:
  2439     0378  2BA8               	goto	i1l1750
  2440     0379                     u142_20:
  2441     0379                     i1l1742:
  2442                           
  2443                           ;protest5.c: 359:                 conPot0++;
  2444     0379  3001               	movlw	1
  2445     037A  07B0               	addwf	_conPot0,f
  2446     037B  1803               	skipnc
  2447     037C  0AB1               	incf	_conPot0+1,f
  2448     037D  3000               	movlw	0
  2449     037E  07B1               	addwf	_conPot0+1,f
  2450     037F                     i1l1744:
  2451                           
  2452                           ;protest5.c: 361:                 if(conPot0 == 19){
  2453     037F  3013               	movlw	19
  2454     0380  0630               	xorwf	_conPot0,w
  2455     0381  0431               	iorwf	_conPot0+1,w
  2456     0382  1D03               	btfss	3,2
  2457     0383  2B85               	goto	u143_21
  2458     0384  2B86               	goto	u143_20
  2459     0385                     u143_21:
  2460     0385  2B8A               	goto	i1l1748
  2461     0386                     u143_20:
  2462     0386                     i1l1746:
  2463                           
  2464                           ;protest5.c: 362:                     conPot0 = 18;
  2465     0386  3012               	movlw	18
  2466     0387  00B0               	movwf	_conPot0
  2467     0388  3000               	movlw	0
  2468     0389  00B1               	movwf	_conPot0+1
  2469     038A                     i1l1748:
  2470                           
  2471                           ;protest5.c: 364:                 pot0 = mapear(conPot0, 0, 18, 230, 800);
  2472     038A  0831               	movf	_conPot0+1,w
  2473     038B  00BD               	movwf	mapear@valor+1
  2474     038C  0830               	movf	_conPot0,w
  2475     038D  00BC               	movwf	mapear@valor
  2476     038E  3000               	movlw	0
  2477     038F  00BE               	movwf	mapear@rango_min
  2478     0390  00BF               	movwf	mapear@rango_min+1
  2479     0391  3012               	movlw	18
  2480     0392  00C0               	movwf	mapear@rango_max
  2481     0393  3000               	movlw	0
  2482     0394  00C1               	movwf	mapear@rango_max+1
  2483     0395  30E6               	movlw	230
  2484     0396  00C2               	movwf	mapear@nuevo_min
  2485     0397  3000               	movlw	0
  2486     0398  00C3               	movwf	mapear@nuevo_min+1
  2487     0399  3020               	movlw	32
  2488     039A  00C4               	movwf	mapear@nuevo_max
  2489     039B  3003               	movlw	3
  2490     039C  00C5               	movwf	mapear@nuevo_max+1
  2491     039D  120A  118A  2650  120A  118A  	fcall	_mapear
  2492     03A2  1283               	bcf	3,5	;RP0=0, select bank0
  2493     03A3  1303               	bcf	3,6	;RP1=0, select bank0
  2494     03A4  083D               	movf	?_mapear+1,w
  2495     03A5  00B9               	movwf	_pot0+1
  2496     03A6  083C               	movf	?_mapear,w
  2497     03A7  00B8               	movwf	_pot0
  2498     03A8                     i1l1750:
  2499                           
  2500                           ;protest5.c: 366:             if(RCREG == 117){
  2501     03A8  3075               	movlw	117
  2502     03A9  061A               	xorwf	26,w	;volatile
  2503     03AA  1D03               	btfss	3,2
  2504     03AB  2BAD               	goto	u144_21
  2505     03AC  2BAE               	goto	u144_20
  2506     03AD                     u144_21:
  2507     03AD  2BDD               	goto	i1l1758
  2508     03AE                     u144_20:
  2509     03AE                     i1l1752:
  2510                           
  2511                           ;protest5.c: 367:                 conPot0--;
  2512     03AE  3001               	movlw	1
  2513     03AF  02B0               	subwf	_conPot0,f
  2514     03B0  3000               	movlw	0
  2515     03B1  1C03               	skipc
  2516     03B2  03B1               	decf	_conPot0+1,f
  2517     03B3  02B1               	subwf	_conPot0+1,f
  2518                           
  2519                           ;protest5.c: 368:                 if(conPot0 >= 256){
  2520     03B4  3001               	movlw	1
  2521     03B5  0231               	subwf	_conPot0+1,w
  2522     03B6  3000               	movlw	0
  2523     03B7  1903               	skipnz
  2524     03B8  0230               	subwf	_conPot0,w
  2525     03B9  1C03               	skipc
  2526     03BA  2BBC               	goto	u145_21
  2527     03BB  2BBD               	goto	u145_20
  2528     03BC                     u145_21:
  2529     03BC  2BBF               	goto	i1l1756
  2530     03BD                     u145_20:
  2531     03BD                     i1l1754:
  2532                           
  2533                           ;protest5.c: 369:                     conPot0 = 0;
  2534     03BD  01B0               	clrf	_conPot0
  2535     03BE  01B1               	clrf	_conPot0+1
  2536     03BF                     i1l1756:
  2537                           
  2538                           ;protest5.c: 371:                 pot0 = mapear(conPot0, 0, 18, 230, 800);
  2539     03BF  0831               	movf	_conPot0+1,w
  2540     03C0  00BD               	movwf	mapear@valor+1
  2541     03C1  0830               	movf	_conPot0,w
  2542     03C2  00BC               	movwf	mapear@valor
  2543     03C3  3000               	movlw	0
  2544     03C4  00BE               	movwf	mapear@rango_min
  2545     03C5  00BF               	movwf	mapear@rango_min+1
  2546     03C6  3012               	movlw	18
  2547     03C7  00C0               	movwf	mapear@rango_max
  2548     03C8  3000               	movlw	0
  2549     03C9  00C1               	movwf	mapear@rango_max+1
  2550     03CA  30E6               	movlw	230
  2551     03CB  00C2               	movwf	mapear@nuevo_min
  2552     03CC  3000               	movlw	0
  2553     03CD  00C3               	movwf	mapear@nuevo_min+1
  2554     03CE  3020               	movlw	32
  2555     03CF  00C4               	movwf	mapear@nuevo_max
  2556     03D0  3003               	movlw	3
  2557     03D1  00C5               	movwf	mapear@nuevo_max+1
  2558     03D2  120A  118A  2650  120A  118A  	fcall	_mapear
  2559     03D7  1283               	bcf	3,5	;RP0=0, select bank0
  2560     03D8  1303               	bcf	3,6	;RP1=0, select bank0
  2561     03D9  083D               	movf	?_mapear+1,w
  2562     03DA  00B9               	movwf	_pot0+1
  2563     03DB  083C               	movf	?_mapear,w
  2564     03DC  00B8               	movwf	_pot0
  2565     03DD                     i1l1758:
  2566                           
  2567                           ;protest5.c: 373:             if(RCREG == 112){
  2568     03DD  3070               	movlw	112
  2569     03DE  061A               	xorwf	26,w	;volatile
  2570     03DF  1D03               	btfss	3,2
  2571     03E0  2BE2               	goto	u146_21
  2572     03E1  2BE3               	goto	u146_20
  2573     03E2                     u146_21:
  2574     03E2  2C12               	goto	i1l1768
  2575     03E3                     u146_20:
  2576     03E3                     i1l1760:
  2577                           
  2578                           ;protest5.c: 374:                 conPot2++;
  2579     03E3  3001               	movlw	1
  2580     03E4  07AC               	addwf	_conPot2,f
  2581     03E5  1803               	skipnc
  2582     03E6  0AAD               	incf	_conPot2+1,f
  2583     03E7  3000               	movlw	0
  2584     03E8  07AD               	addwf	_conPot2+1,f
  2585     03E9                     i1l1762:
  2586                           
  2587                           ;protest5.c: 376:                 if(conPot2 == 19){
  2588     03E9  3013               	movlw	19
  2589     03EA  062C               	xorwf	_conPot2,w
  2590     03EB  042D               	iorwf	_conPot2+1,w
  2591     03EC  1D03               	btfss	3,2
  2592     03ED  2BEF               	goto	u147_21
  2593     03EE  2BF0               	goto	u147_20
  2594     03EF                     u147_21:
  2595     03EF  2BF4               	goto	i1l1766
  2596     03F0                     u147_20:
  2597     03F0                     i1l1764:
  2598                           
  2599                           ;protest5.c: 377:                     conPot2 = 18;
  2600     03F0  3012               	movlw	18
  2601     03F1  00AC               	movwf	_conPot2
  2602     03F2  3000               	movlw	0
  2603     03F3  00AD               	movwf	_conPot2+1
  2604     03F4                     i1l1766:
  2605                           
  2606                           ;protest5.c: 379:                 pot2 = mapear(conPot2, 0, 18, 230, 800);
  2607     03F4  082D               	movf	_conPot2+1,w
  2608     03F5  00BD               	movwf	mapear@valor+1
  2609     03F6  082C               	movf	_conPot2,w
  2610     03F7  00BC               	movwf	mapear@valor
  2611     03F8  3000               	movlw	0
  2612     03F9  00BE               	movwf	mapear@rango_min
  2613     03FA  00BF               	movwf	mapear@rango_min+1
  2614     03FB  3012               	movlw	18
  2615     03FC  00C0               	movwf	mapear@rango_max
  2616     03FD  3000               	movlw	0
  2617     03FE  00C1               	movwf	mapear@rango_max+1
  2618     03FF  30E6               	movlw	230
  2619     0400  00C2               	movwf	mapear@nuevo_min
  2620     0401  3000               	movlw	0
  2621     0402  00C3               	movwf	mapear@nuevo_min+1
  2622     0403  3020               	movlw	32
  2623     0404  00C4               	movwf	mapear@nuevo_max
  2624     0405  3003               	movlw	3
  2625     0406  00C5               	movwf	mapear@nuevo_max+1
  2626     0407  120A  118A  2650  120A  118A  	fcall	_mapear
  2627     040C  1283               	bcf	3,5	;RP0=0, select bank0
  2628     040D  1303               	bcf	3,6	;RP1=0, select bank0
  2629     040E  083D               	movf	?_mapear+1,w
  2630     040F  00B5               	movwf	_pot2+1
  2631     0410  083C               	movf	?_mapear,w
  2632     0411  00B4               	movwf	_pot2
  2633     0412                     i1l1768:
  2634                           
  2635                           ;protest5.c: 381:             if(RCREG == 103){
  2636     0412  3067               	movlw	103
  2637     0413  061A               	xorwf	26,w	;volatile
  2638     0414  1D03               	btfss	3,2
  2639     0415  2C17               	goto	u148_21
  2640     0416  2C18               	goto	u148_20
  2641     0417                     u148_21:
  2642     0417  2C47               	goto	i1l1776
  2643     0418                     u148_20:
  2644     0418                     i1l1770:
  2645                           
  2646                           ;protest5.c: 382:                 conPot2--;
  2647     0418  3001               	movlw	1
  2648     0419  02AC               	subwf	_conPot2,f
  2649     041A  3000               	movlw	0
  2650     041B  1C03               	skipc
  2651     041C  03AD               	decf	_conPot2+1,f
  2652     041D  02AD               	subwf	_conPot2+1,f
  2653                           
  2654                           ;protest5.c: 383:                 if(conPot2 >= 256){
  2655     041E  3001               	movlw	1
  2656     041F  022D               	subwf	_conPot2+1,w
  2657     0420  3000               	movlw	0
  2658     0421  1903               	skipnz
  2659     0422  022C               	subwf	_conPot2,w
  2660     0423  1C03               	skipc
  2661     0424  2C26               	goto	u149_21
  2662     0425  2C27               	goto	u149_20
  2663     0426                     u149_21:
  2664     0426  2C29               	goto	i1l1774
  2665     0427                     u149_20:
  2666     0427                     i1l1772:
  2667                           
  2668                           ;protest5.c: 384:                     conPot2 = 0;
  2669     0427  01AC               	clrf	_conPot2
  2670     0428  01AD               	clrf	_conPot2+1
  2671     0429                     i1l1774:
  2672                           
  2673                           ;protest5.c: 386:                 pot2 = mapear(conPot2, 0, 18, 230, 800);
  2674     0429  082D               	movf	_conPot2+1,w
  2675     042A  00BD               	movwf	mapear@valor+1
  2676     042B  082C               	movf	_conPot2,w
  2677     042C  00BC               	movwf	mapear@valor
  2678     042D  3000               	movlw	0
  2679     042E  00BE               	movwf	mapear@rango_min
  2680     042F  00BF               	movwf	mapear@rango_min+1
  2681     0430  3012               	movlw	18
  2682     0431  00C0               	movwf	mapear@rango_max
  2683     0432  3000               	movlw	0
  2684     0433  00C1               	movwf	mapear@rango_max+1
  2685     0434  30E6               	movlw	230
  2686     0435  00C2               	movwf	mapear@nuevo_min
  2687     0436  3000               	movlw	0
  2688     0437  00C3               	movwf	mapear@nuevo_min+1
  2689     0438  3020               	movlw	32
  2690     0439  00C4               	movwf	mapear@nuevo_max
  2691     043A  3003               	movlw	3
  2692     043B  00C5               	movwf	mapear@nuevo_max+1
  2693     043C  120A  118A  2650  120A  118A  	fcall	_mapear
  2694     0441  1283               	bcf	3,5	;RP0=0, select bank0
  2695     0442  1303               	bcf	3,6	;RP1=0, select bank0
  2696     0443  083D               	movf	?_mapear+1,w
  2697     0444  00B5               	movwf	_pot2+1
  2698     0445  083C               	movf	?_mapear,w
  2699     0446  00B4               	movwf	_pot2
  2700     0447                     i1l1776:
  2701                           
  2702                           ;protest5.c: 388:             if(RCREG == 114){
  2703     0447  3072               	movlw	114
  2704     0448  061A               	xorwf	26,w	;volatile
  2705     0449  1D03               	btfss	3,2
  2706     044A  2C4C               	goto	u150_21
  2707     044B  2C4D               	goto	u150_20
  2708     044C                     u150_21:
  2709     044C  2C7C               	goto	i1l1786
  2710     044D                     u150_20:
  2711     044D                     i1l1778:
  2712                           
  2713                           ;protest5.c: 389:                 conPot3++;
  2714     044D  3001               	movlw	1
  2715     044E  07AA               	addwf	_conPot3,f
  2716     044F  1803               	skipnc
  2717     0450  0AAB               	incf	_conPot3+1,f
  2718     0451  3000               	movlw	0
  2719     0452  07AB               	addwf	_conPot3+1,f
  2720     0453                     i1l1780:
  2721                           
  2722                           ;protest5.c: 391:                 if(conPot3 == 19){
  2723     0453  3013               	movlw	19
  2724     0454  062A               	xorwf	_conPot3,w
  2725     0455  042B               	iorwf	_conPot3+1,w
  2726     0456  1D03               	btfss	3,2
  2727     0457  2C59               	goto	u151_21
  2728     0458  2C5A               	goto	u151_20
  2729     0459                     u151_21:
  2730     0459  2C5E               	goto	i1l1784
  2731     045A                     u151_20:
  2732     045A                     i1l1782:
  2733                           
  2734                           ;protest5.c: 392:                     conPot3 = 18;
  2735     045A  3012               	movlw	18
  2736     045B  00AA               	movwf	_conPot3
  2737     045C  3000               	movlw	0
  2738     045D  00AB               	movwf	_conPot3+1
  2739     045E                     i1l1784:
  2740                           
  2741                           ;protest5.c: 394:                 pot3 = mapear(conPot3, 0, 18, 230, 800);
  2742     045E  082B               	movf	_conPot3+1,w
  2743     045F  00BD               	movwf	mapear@valor+1
  2744     0460  082A               	movf	_conPot3,w
  2745     0461  00BC               	movwf	mapear@valor
  2746     0462  3000               	movlw	0
  2747     0463  00BE               	movwf	mapear@rango_min
  2748     0464  00BF               	movwf	mapear@rango_min+1
  2749     0465  3012               	movlw	18
  2750     0466  00C0               	movwf	mapear@rango_max
  2751     0467  3000               	movlw	0
  2752     0468  00C1               	movwf	mapear@rango_max+1
  2753     0469  30E6               	movlw	230
  2754     046A  00C2               	movwf	mapear@nuevo_min
  2755     046B  3000               	movlw	0
  2756     046C  00C3               	movwf	mapear@nuevo_min+1
  2757     046D  3020               	movlw	32
  2758     046E  00C4               	movwf	mapear@nuevo_max
  2759     046F  3003               	movlw	3
  2760     0470  00C5               	movwf	mapear@nuevo_max+1
  2761     0471  120A  118A  2650  120A  118A  	fcall	_mapear
  2762     0476  1283               	bcf	3,5	;RP0=0, select bank0
  2763     0477  1303               	bcf	3,6	;RP1=0, select bank0
  2764     0478  083D               	movf	?_mapear+1,w
  2765     0479  00B3               	movwf	_pot3+1
  2766     047A  083C               	movf	?_mapear,w
  2767     047B  00B2               	movwf	_pot3
  2768     047C                     i1l1786:
  2769                           
  2770                           ;protest5.c: 396:             if(RCREG == 110){
  2771     047C  306E               	movlw	110
  2772     047D  061A               	xorwf	26,w	;volatile
  2773     047E  1D03               	btfss	3,2
  2774     047F  2C81               	goto	u152_21
  2775     0480  2C82               	goto	u152_20
  2776     0481                     u152_21:
  2777     0481  2CB1               	goto	i1l1794
  2778     0482                     u152_20:
  2779     0482                     i1l1788:
  2780                           
  2781                           ;protest5.c: 397:                 conPot3--;
  2782     0482  3001               	movlw	1
  2783     0483  02AA               	subwf	_conPot3,f
  2784     0484  3000               	movlw	0
  2785     0485  1C03               	skipc
  2786     0486  03AB               	decf	_conPot3+1,f
  2787     0487  02AB               	subwf	_conPot3+1,f
  2788                           
  2789                           ;protest5.c: 398:                 if(conPot3 >= 256){
  2790     0488  3001               	movlw	1
  2791     0489  022B               	subwf	_conPot3+1,w
  2792     048A  3000               	movlw	0
  2793     048B  1903               	skipnz
  2794     048C  022A               	subwf	_conPot3,w
  2795     048D  1C03               	skipc
  2796     048E  2C90               	goto	u153_21
  2797     048F  2C91               	goto	u153_20
  2798     0490                     u153_21:
  2799     0490  2C93               	goto	i1l1792
  2800     0491                     u153_20:
  2801     0491                     i1l1790:
  2802                           
  2803                           ;protest5.c: 399:                     conPot3 = 0;
  2804     0491  01AA               	clrf	_conPot3
  2805     0492  01AB               	clrf	_conPot3+1
  2806     0493                     i1l1792:
  2807                           
  2808                           ;protest5.c: 401:                 pot3 = mapear(conPot3, 0, 18, 230, 800);
  2809     0493  082B               	movf	_conPot3+1,w
  2810     0494  00BD               	movwf	mapear@valor+1
  2811     0495  082A               	movf	_conPot3,w
  2812     0496  00BC               	movwf	mapear@valor
  2813     0497  3000               	movlw	0
  2814     0498  00BE               	movwf	mapear@rango_min
  2815     0499  00BF               	movwf	mapear@rango_min+1
  2816     049A  3012               	movlw	18
  2817     049B  00C0               	movwf	mapear@rango_max
  2818     049C  3000               	movlw	0
  2819     049D  00C1               	movwf	mapear@rango_max+1
  2820     049E  30E6               	movlw	230
  2821     049F  00C2               	movwf	mapear@nuevo_min
  2822     04A0  3000               	movlw	0
  2823     04A1  00C3               	movwf	mapear@nuevo_min+1
  2824     04A2  3020               	movlw	32
  2825     04A3  00C4               	movwf	mapear@nuevo_max
  2826     04A4  3003               	movlw	3
  2827     04A5  00C5               	movwf	mapear@nuevo_max+1
  2828     04A6  120A  118A  2650  120A  118A  	fcall	_mapear
  2829     04AB  1283               	bcf	3,5	;RP0=0, select bank0
  2830     04AC  1303               	bcf	3,6	;RP1=0, select bank0
  2831     04AD  083D               	movf	?_mapear+1,w
  2832     04AE  00B3               	movwf	_pot3+1
  2833     04AF  083C               	movf	?_mapear,w
  2834     04B0  00B2               	movwf	_pot3
  2835     04B1                     i1l1794:
  2836                           
  2837                           ;protest5.c: 405:         PIR1bits.RCIF = 0;
  2838     04B1  128C               	bcf	12,5	;volatile
  2839     04B2                     i1l1796:
  2840                           
  2841                           ;protest5.c: 409:     if((INTCONbits.RBIF)){
  2842     04B2  1C0B               	btfss	11,0	;volatile
  2843     04B3  2CB5               	goto	u154_21
  2844     04B4  2CB6               	goto	u154_20
  2845     04B5                     u154_21:
  2846     04B5  2CF0               	goto	i1l262
  2847     04B6                     u154_20:
  2848     04B6                     i1l1798:
  2849                           
  2850                           ;protest5.c: 410:         if(RB0 == 0){
  2851     04B6  1806               	btfsc	6,0	;volatile
  2852     04B7  2CB9               	goto	u155_21
  2853     04B8  2CBA               	goto	u155_20
  2854     04B9                     u155_21:
  2855     04B9  2CEF               	goto	i1l253
  2856     04BA                     u155_20:
  2857     04BA                     i1l1800:
  2858                           
  2859                           ;protest5.c: 411:             cont++;
  2860     04BA  3001               	movlw	1
  2861     04BB  07A0               	addwf	_cont,f
  2862     04BC  1803               	skipnc
  2863     04BD  0AA1               	incf	_cont+1,f
  2864     04BE  3000               	movlw	0
  2865     04BF  07A1               	addwf	_cont+1,f
  2866     04C0                     i1l1802:
  2867                           
  2868                           ;protest5.c: 412:             if(cont == 4){
  2869     04C0  3004               	movlw	4
  2870     04C1  0620               	xorwf	_cont,w
  2871     04C2  0421               	iorwf	_cont+1,w
  2872     04C3  1D03               	btfss	3,2
  2873     04C4  2CC6               	goto	u156_21
  2874     04C5  2CC7               	goto	u156_20
  2875     04C6                     u156_21:
  2876     04C6  2CC9               	goto	i1l1806
  2877     04C7                     u156_20:
  2878     04C7                     i1l1804:
  2879                           
  2880                           ;protest5.c: 413:                 cont = 0;
  2881     04C7  01A0               	clrf	_cont
  2882     04C8  01A1               	clrf	_cont+1
  2883     04C9                     i1l1806:
  2884                           
  2885                           ;protest5.c: 415:             if(cont == 0){
  2886     04C9  0820               	movf	_cont,w
  2887     04CA  0421               	iorwf	_cont+1,w
  2888     04CB  1D03               	btfss	3,2
  2889     04CC  2CCE               	goto	u157_21
  2890     04CD  2CCF               	goto	u157_20
  2891     04CE                     u157_21:
  2892     04CE  2CD2               	goto	i1l1810
  2893     04CF                     u157_20:
  2894     04CF                     i1l1808:
  2895                           
  2896                           ;protest5.c: 416:                 RA6 = 0;
  2897     04CF  1305               	bcf	5,6	;volatile
  2898                           
  2899                           ;protest5.c: 417:                 RA7 = 0;
  2900     04D0  1385               	bcf	5,7	;volatile
  2901                           
  2902                           ;protest5.c: 418:             }else if(cont == 1){
  2903     04D1  2CEF               	goto	i1l253
  2904     04D2                     i1l1810:
  2905     04D2  0320               	decf	_cont,w
  2906     04D3  0421               	iorwf	_cont+1,w
  2907     04D4  1D03               	btfss	3,2
  2908     04D5  2CD7               	goto	u158_21
  2909     04D6  2CD8               	goto	u158_20
  2910     04D7                     u158_21:
  2911     04D7  2CDB               	goto	i1l1814
  2912     04D8                     u158_20:
  2913     04D8                     i1l1812:
  2914                           
  2915                           ;protest5.c: 419:                 RA6 = 0;
  2916     04D8  1305               	bcf	5,6	;volatile
  2917                           
  2918                           ;protest5.c: 420:                 RA7 = 1;
  2919     04D9  1785               	bsf	5,7	;volatile
  2920                           
  2921                           ;protest5.c: 421:             }else if(cont == 2){
  2922     04DA  2CEF               	goto	i1l253
  2923     04DB                     i1l1814:
  2924     04DB  3002               	movlw	2
  2925     04DC  0620               	xorwf	_cont,w
  2926     04DD  0421               	iorwf	_cont+1,w
  2927     04DE  1D03               	btfss	3,2
  2928     04DF  2CE1               	goto	u159_21
  2929     04E0  2CE2               	goto	u159_20
  2930     04E1                     u159_21:
  2931     04E1  2CE5               	goto	i1l1818
  2932     04E2                     u159_20:
  2933     04E2                     i1l1816:
  2934                           
  2935                           ;protest5.c: 422:                 RA6 = 1;
  2936     04E2  1705               	bsf	5,6	;volatile
  2937                           
  2938                           ;protest5.c: 423:                 RA7 = 0;
  2939     04E3  1385               	bcf	5,7	;volatile
  2940                           
  2941                           ;protest5.c: 424:             }else if(cont == 3){
  2942     04E4  2CEF               	goto	i1l253
  2943     04E5                     i1l1818:
  2944     04E5  3003               	movlw	3
  2945     04E6  0620               	xorwf	_cont,w
  2946     04E7  0421               	iorwf	_cont+1,w
  2947     04E8  1D03               	btfss	3,2
  2948     04E9  2CEB               	goto	u160_21
  2949     04EA  2CEC               	goto	u160_20
  2950     04EB                     u160_21:
  2951     04EB  2CEF               	goto	i1l258
  2952     04EC                     u160_20:
  2953     04EC                     i1l1820:
  2954                           
  2955                           ;protest5.c: 425:                 RA6 = 1;
  2956     04EC  1705               	bsf	5,6	;volatile
  2957                           
  2958                           ;protest5.c: 426:                 RA7 = 1;
  2959     04ED  1785               	bsf	5,7	;volatile
  2960     04EE  2CEF               	goto	i1l253
  2961     04EF                     i1l258:
  2962     04EF                     i1l253:	
  2963                           ;protest5.c: 428:         }
  2964                           
  2965                           
  2966                           ;protest5.c: 429:         INTCONbits.RBIF = 0;
  2967     04EF  100B               	bcf	11,0	;volatile
  2968     04F0                     i1l262:
  2969     04F0  084D               	movf	??_isr+5,w
  2970     04F1  008A               	movwf	10
  2971     04F2  0E4C               	swapf	??_isr+4,w
  2972     04F3  0083               	movwf	3
  2973     04F4  0EFE               	swapf	btemp,f
  2974     04F5  0E7E               	swapf	btemp,w
  2975     04F6  0009               	retfie
  2976     04F7                     __end_of_isr:
  2977                           
  2978                           	psect	intentry
  2979     0004                     __pintentry:	
  2980                           ;incstack = 0
  2981                           ; Regs used in _isr: [wreg+status,2+status,0+pclath+cstack]
  2982                           
  2983     0004                     interrupt_function:
  2984     007E                     saved_w	set	btemp
  2985     0004  00FE               	movwf	btemp
  2986     0005  0E03               	swapf	3,w
  2987     0006  1283               	bcf	3,5	;RP0=0, select bank0
  2988     0007  1303               	bcf	3,6	;RP1=0, select bank0
  2989     0008  00CC               	movwf	??_isr+4
  2990     0009  080A               	movf	10,w
  2991     000A  00CD               	movwf	??_isr+5
  2992     000B  120A  118A  281E   	ljmp	_isr
  2993                           
  2994                           	psect	text5
  2995     0650                     __ptext5:	
  2996 ;; *************** function _mapear *****************
  2997 ;; Defined at:
  2998 ;;		line 105 in file "protest5.c"
  2999 ;; Parameters:    Size  Location     Type
  3000 ;;  valor           2    0[BANK0 ] unsigned int 
  3001 ;;  rango_min       2    2[BANK0 ] unsigned int 
  3002 ;;  rango_max       2    4[BANK0 ] unsigned int 
  3003 ;;  nuevo_min       2    6[BANK0 ] unsigned int 
  3004 ;;  nuevo_max       2    8[BANK0 ] unsigned int 
  3005 ;; Auto vars:     Size  Location     Type
  3006 ;;  nuevo_valor     2   10[BANK0 ] unsigned int 
  3007 ;; Return value:  Size  Location     Type
  3008 ;;                  2    0[BANK0 ] unsigned int 
  3009 ;; Registers used:
  3010 ;;		wreg, status,2, status,0, pclath, cstack
  3011 ;; Tracked objects:
  3012 ;;		On entry : 0/0
  3013 ;;		On exit  : 0/0
  3014 ;;		Unchanged: 0/0
  3015 ;; Data sizes:     COMMON   BANK0   BANK1   BANK3   BANK2
  3016 ;;      Params:         0      10       0       0       0
  3017 ;;      Locals:         0       2       0       0       0
  3018 ;;      Temps:          0       0       0       0       0
  3019 ;;      Totals:         0      12       0       0       0
  3020 ;;Total ram usage:       12 bytes
  3021 ;; Hardware stack levels used: 1
  3022 ;; Hardware stack levels required when called: 1
  3023 ;; This function calls:
  3024 ;;		___lwdiv
  3025 ;;		___wmul
  3026 ;; This function is called by:
  3027 ;;		_isr
  3028 ;; This function uses a non-reentrant model
  3029 ;;
  3030                           
  3031     0650                     _mapear:	
  3032                           ;psect for function _mapear
  3033                           
  3034     0650                     i1l1504:	
  3035                           ;incstack = 0
  3036                           ; Regs used in _mapear: [wreg+status,2+status,0+pclath+cstack]
  3037                           
  3038                           
  3039                           ;protest5.c: 106:     uint16_t nuevo_valor = nuevo_min + (((valor - rango_min)*(nuevo_ma
      +                          x - nuevo_min))/(rango_max - rango_min));
  3040     0650  1283               	bcf	3,5	;RP0=0, select bank0
  3041     0651  1303               	bcf	3,6	;RP1=0, select bank0
  3042     0652  083E               	movf	mapear@rango_min,w
  3043     0653  0240               	subwf	mapear@rango_max,w
  3044     0654  00F6               	movwf	___lwdiv@divisor
  3045     0655  083F               	movf	mapear@rango_min+1,w
  3046     0656  1C03               	skipc
  3047     0657  0A3F               	incf	mapear@rango_min+1,w
  3048     0658  0241               	subwf	mapear@rango_max+1,w
  3049     0659  00F7               	movwf	___lwdiv@divisor+1
  3050     065A  083E               	movf	mapear@rango_min,w
  3051     065B  023C               	subwf	mapear@valor,w
  3052     065C  00F0               	movwf	___wmul@multiplier
  3053     065D  083F               	movf	mapear@rango_min+1,w
  3054     065E  1C03               	skipc
  3055     065F  0A3F               	incf	mapear@rango_min+1,w
  3056     0660  023D               	subwf	mapear@valor+1,w
  3057     0661  00F1               	movwf	___wmul@multiplier+1
  3058     0662  0842               	movf	mapear@nuevo_min,w
  3059     0663  0244               	subwf	mapear@nuevo_max,w
  3060     0664  00F2               	movwf	___wmul@multiplicand
  3061     0665  0843               	movf	mapear@nuevo_min+1,w
  3062     0666  1C03               	skipc
  3063     0667  0A43               	incf	mapear@nuevo_min+1,w
  3064     0668  0245               	subwf	mapear@nuevo_max+1,w
  3065     0669  00F3               	movwf	___wmul@multiplicand+1
  3066     066A  120A  118A  26AD  120A  118A  	fcall	___wmul
  3067     066F  0871               	movf	?___wmul+1,w
  3068     0670  00F9               	movwf	___lwdiv@dividend+1
  3069     0671  0870               	movf	?___wmul,w
  3070     0672  00F8               	movwf	___lwdiv@dividend
  3071     0673  120A  118A  260C  120A  118A  	fcall	___lwdiv
  3072     0678  1283               	bcf	3,5	;RP0=0, select bank0
  3073     0679  1303               	bcf	3,6	;RP1=0, select bank0
  3074     067A  0842               	movf	mapear@nuevo_min,w
  3075     067B  0776               	addwf	?___lwdiv,w
  3076     067C  00C6               	movwf	mapear@nuevo_valor
  3077     067D  0843               	movf	mapear@nuevo_min+1,w
  3078     067E  1803               	skipnc
  3079     067F  0A43               	incf	mapear@nuevo_min+1,w
  3080     0680  0777               	addwf	?___lwdiv+1,w
  3081     0681  00C7               	movwf	mapear@nuevo_valor+1
  3082     0682                     i1l1506:
  3083                           
  3084                           ;protest5.c: 107:     return nuevo_valor;
  3085     0682  0847               	movf	mapear@nuevo_valor+1,w
  3086     0683  00BD               	movwf	?_mapear+1
  3087     0684  0846               	movf	mapear@nuevo_valor,w
  3088     0685  00BC               	movwf	?_mapear
  3089     0686                     i1l178:
  3090     0686  0008               	return
  3091     0687                     __end_of_mapear:
  3092                           
  3093                           	psect	text6
  3094     06AD                     __ptext6:	
  3095 ;; *************** function ___wmul *****************
  3096 ;; Defined at:
  3097 ;;		line 15 in file "C:\Program Files\Microchip\xc8\v2.40\pic\sources\c90\common\Umul16.c"
  3098 ;; Parameters:    Size  Location     Type
  3099 ;;  multiplier      2    0[COMMON] unsigned int 
  3100 ;;  multiplicand    2    2[COMMON] unsigned int 
  3101 ;; Auto vars:     Size  Location     Type
  3102 ;;  product         2    4[COMMON] unsigned int 
  3103 ;; Return value:  Size  Location     Type
  3104 ;;                  2    0[COMMON] unsigned int 
  3105 ;; Registers used:
  3106 ;;		wreg, status,2, status,0
  3107 ;; Tracked objects:
  3108 ;;		On entry : 0/0
  3109 ;;		On exit  : 0/0
  3110 ;;		Unchanged: 0/0
  3111 ;; Data sizes:     COMMON   BANK0   BANK1   BANK3   BANK2
  3112 ;;      Params:         4       0       0       0       0
  3113 ;;      Locals:         2       0       0       0       0
  3114 ;;      Temps:          0       0       0       0       0
  3115 ;;      Totals:         6       0       0       0       0
  3116 ;;Total ram usage:        6 bytes
  3117 ;; Hardware stack levels used: 1
  3118 ;; This function calls:
  3119 ;;		Nothing
  3120 ;; This function is called by:
  3121 ;;		_mapear
  3122 ;; This function uses a non-reentrant model
  3123 ;;
  3124                           
  3125     06AD                     ___wmul:	
  3126                           ;psect for function ___wmul
  3127                           
  3128     06AD                     i1l1338:	
  3129                           ;incstack = 0
  3130                           ; Regs used in ___wmul: [wreg+status,2+status,0]
  3131                           
  3132     06AD  01F4               	clrf	___wmul@product
  3133     06AE  01F5               	clrf	___wmul@product+1
  3134     06AF                     i1l1340:
  3135     06AF  1C70               	btfss	___wmul@multiplier,0
  3136     06B0  2EB2               	goto	u81_21
  3137     06B1  2EB3               	goto	u81_20
  3138     06B2                     u81_21:
  3139     06B2  2EB9               	goto	i1l348
  3140     06B3                     u81_20:
  3141     06B3                     i1l1342:
  3142     06B3  0872               	movf	___wmul@multiplicand,w
  3143     06B4  07F4               	addwf	___wmul@product,f
  3144     06B5  1803               	skipnc
  3145     06B6  0AF5               	incf	___wmul@product+1,f
  3146     06B7  0873               	movf	___wmul@multiplicand+1,w
  3147     06B8  07F5               	addwf	___wmul@product+1,f
  3148     06B9                     i1l348:
  3149     06B9  3001               	movlw	1
  3150     06BA                     u82_25:
  3151     06BA  1003               	clrc
  3152     06BB  0DF2               	rlf	___wmul@multiplicand,f
  3153     06BC  0DF3               	rlf	___wmul@multiplicand+1,f
  3154     06BD  3EFF               	addlw	-1
  3155     06BE  1D03               	skipz
  3156     06BF  2EBA               	goto	u82_25
  3157     06C0                     i1l1344:
  3158     06C0  3001               	movlw	1
  3159     06C1                     u83_25:
  3160     06C1  1003               	clrc
  3161     06C2  0CF1               	rrf	___wmul@multiplier+1,f
  3162     06C3  0CF0               	rrf	___wmul@multiplier,f
  3163     06C4  3EFF               	addlw	-1
  3164     06C5  1D03               	skipz
  3165     06C6  2EC1               	goto	u83_25
  3166     06C7                     i1l1346:
  3167     06C7  0870               	movf	___wmul@multiplier,w
  3168     06C8  0471               	iorwf	___wmul@multiplier+1,w
  3169     06C9  1D03               	btfss	3,2
  3170     06CA  2ECC               	goto	u84_21
  3171     06CB  2ECD               	goto	u84_20
  3172     06CC                     u84_21:
  3173     06CC  2EAF               	goto	i1l1340
  3174     06CD                     u84_20:
  3175     06CD                     i1l1348:
  3176     06CD  0875               	movf	___wmul@product+1,w
  3177     06CE  00F1               	movwf	?___wmul+1
  3178     06CF  0874               	movf	___wmul@product,w
  3179     06D0  00F0               	movwf	?___wmul
  3180     06D1                     i1l350:
  3181     06D1  0008               	return
  3182     06D2                     __end_of___wmul:
  3183                           
  3184                           	psect	text7
  3185     060C                     __ptext7:	
  3186 ;; *************** function ___lwdiv *****************
  3187 ;; Defined at:
  3188 ;;		line 5 in file "C:\Program Files\Microchip\xc8\v2.40\pic\sources\c90\common\lwdiv.c"
  3189 ;; Parameters:    Size  Location     Type
  3190 ;;  divisor         2    6[COMMON] unsigned int 
  3191 ;;  dividend        2    8[COMMON] unsigned int 
  3192 ;; Auto vars:     Size  Location     Type
  3193 ;;  quotient        2   11[COMMON] unsigned int 
  3194 ;;  counter         1   13[COMMON] unsigned char 
  3195 ;; Return value:  Size  Location     Type
  3196 ;;                  2    6[COMMON] unsigned int 
  3197 ;; Registers used:
  3198 ;;		wreg, status,2, status,0
  3199 ;; Tracked objects:
  3200 ;;		On entry : 0/0
  3201 ;;		On exit  : 0/0
  3202 ;;		Unchanged: 0/0
  3203 ;; Data sizes:     COMMON   BANK0   BANK1   BANK3   BANK2
  3204 ;;      Params:         4       0       0       0       0
  3205 ;;      Locals:         3       0       0       0       0
  3206 ;;      Temps:          1       0       0       0       0
  3207 ;;      Totals:         8       0       0       0       0
  3208 ;;Total ram usage:        8 bytes
  3209 ;; Hardware stack levels used: 1
  3210 ;; This function calls:
  3211 ;;		Nothing
  3212 ;; This function is called by:
  3213 ;;		_mapear
  3214 ;; This function uses a non-reentrant model
  3215 ;;
  3216                           
  3217     060C                     ___lwdiv:	
  3218                           ;psect for function ___lwdiv
  3219                           
  3220     060C                     i1l1352:	
  3221                           ;incstack = 0
  3222                           ; Regs used in ___lwdiv: [wreg+status,2+status,0]
  3223                           
  3224     060C  01FB               	clrf	___lwdiv@quotient
  3225     060D  01FC               	clrf	___lwdiv@quotient+1
  3226     060E                     i1l1354:
  3227     060E  0876               	movf	___lwdiv@divisor,w
  3228     060F  0477               	iorwf	___lwdiv@divisor+1,w
  3229     0610  1903               	btfsc	3,2
  3230     0611  2E13               	goto	u85_21
  3231     0612  2E14               	goto	u85_20
  3232     0613                     u85_21:
  3233     0613  2E4B               	goto	i1l1374
  3234     0614                     u85_20:
  3235     0614                     i1l1356:
  3236     0614  01FD               	clrf	___lwdiv@counter
  3237     0615  0AFD               	incf	___lwdiv@counter,f
  3238     0616  2E22               	goto	i1l1362
  3239     0617                     i1l1358:
  3240     0617  3001               	movlw	1
  3241     0618                     u86_25:
  3242     0618  1003               	clrc
  3243     0619  0DF6               	rlf	___lwdiv@divisor,f
  3244     061A  0DF7               	rlf	___lwdiv@divisor+1,f
  3245     061B  3EFF               	addlw	-1
  3246     061C  1D03               	skipz
  3247     061D  2E18               	goto	u86_25
  3248     061E                     i1l1360:
  3249     061E  3001               	movlw	1
  3250     061F  00FA               	movwf	??___lwdiv
  3251     0620  087A               	movf	??___lwdiv,w
  3252     0621  07FD               	addwf	___lwdiv@counter,f
  3253     0622                     i1l1362:
  3254     0622  1FF7               	btfss	___lwdiv@divisor+1,7
  3255     0623  2E25               	goto	u87_21
  3256     0624  2E26               	goto	u87_20
  3257     0625                     u87_21:
  3258     0625  2E17               	goto	i1l1358
  3259     0626                     u87_20:
  3260     0626                     i1l1364:
  3261     0626  3001               	movlw	1
  3262     0627                     u88_25:
  3263     0627  1003               	clrc
  3264     0628  0DFB               	rlf	___lwdiv@quotient,f
  3265     0629  0DFC               	rlf	___lwdiv@quotient+1,f
  3266     062A  3EFF               	addlw	-1
  3267     062B  1D03               	skipz
  3268     062C  2E27               	goto	u88_25
  3269     062D  0877               	movf	___lwdiv@divisor+1,w
  3270     062E  0279               	subwf	___lwdiv@dividend+1,w
  3271     062F  1D03               	skipz
  3272     0630  2E33               	goto	u89_25
  3273     0631  0876               	movf	___lwdiv@divisor,w
  3274     0632  0278               	subwf	___lwdiv@dividend,w
  3275     0633                     u89_25:
  3276     0633  1C03               	skipc
  3277     0634  2E36               	goto	u89_21
  3278     0635  2E37               	goto	u89_20
  3279     0636                     u89_21:
  3280     0636  2E3E               	goto	i1l1370
  3281     0637                     u89_20:
  3282     0637                     i1l1366:
  3283     0637  0876               	movf	___lwdiv@divisor,w
  3284     0638  02F8               	subwf	___lwdiv@dividend,f
  3285     0639  0877               	movf	___lwdiv@divisor+1,w
  3286     063A  1C03               	skipc
  3287     063B  03F9               	decf	___lwdiv@dividend+1,f
  3288     063C  02F9               	subwf	___lwdiv@dividend+1,f
  3289     063D                     i1l1368:
  3290     063D  147B               	bsf	___lwdiv@quotient,0
  3291     063E                     i1l1370:
  3292     063E  3001               	movlw	1
  3293     063F                     u90_25:
  3294     063F  1003               	clrc
  3295     0640  0CF7               	rrf	___lwdiv@divisor+1,f
  3296     0641  0CF6               	rrf	___lwdiv@divisor,f
  3297     0642  3EFF               	addlw	-1
  3298     0643  1D03               	skipz
  3299     0644  2E3F               	goto	u90_25
  3300     0645                     i1l1372:
  3301     0645  3001               	movlw	1
  3302     0646  02FD               	subwf	___lwdiv@counter,f
  3303     0647  1D03               	btfss	3,2
  3304     0648  2E4A               	goto	u91_21
  3305     0649  2E4B               	goto	u91_20
  3306     064A                     u91_21:
  3307     064A  2E26               	goto	i1l1364
  3308     064B                     u91_20:
  3309     064B                     i1l1374:
  3310     064B  087C               	movf	___lwdiv@quotient+1,w
  3311     064C  00F7               	movwf	?___lwdiv+1
  3312     064D  087B               	movf	___lwdiv@quotient,w
  3313     064E  00F6               	movwf	?___lwdiv
  3314     064F                     i1l620:
  3315     064F  0008               	return
  3316     0650                     __end_of___lwdiv:
  3317                           
  3318                           	psect	text8
  3319     0708                     __ptext8:	
  3320 ;; *************** function _delay_pulse *****************
  3321 ;; Defined at:
  3322 ;;		line 222 in file "protest5.c"
  3323 ;; Parameters:    Size  Location     Type
  3324 ;;  time            2    0[COMMON] unsigned int 
  3325 ;; Auto vars:     Size  Location     Type
  3326 ;;		None
  3327 ;; Return value:  Size  Location     Type
  3328 ;;                  1    wreg      void 
  3329 ;; Registers used:
  3330 ;;		wreg, status,2, status,0
  3331 ;; Tracked objects:
  3332 ;;		On entry : 0/0
  3333 ;;		On exit  : 0/0
  3334 ;;		Unchanged: 0/0
  3335 ;; Data sizes:     COMMON   BANK0   BANK1   BANK3   BANK2
  3336 ;;      Params:         2       0       0       0       0
  3337 ;;      Locals:         0       0       0       0       0
  3338 ;;      Temps:          0       0       0       0       0
  3339 ;;      Totals:         2       0       0       0       0
  3340 ;;Total ram usage:        2 bytes
  3341 ;; Hardware stack levels used: 1
  3342 ;; This function calls:
  3343 ;;		Nothing
  3344 ;; This function is called by:
  3345 ;;		_isr
  3346 ;; This function uses a non-reentrant model
  3347 ;;
  3348                           
  3349     0708                     _delay_pulse:	
  3350                           ;psect for function _delay_pulse
  3351                           
  3352     0708                     i1l1518:	
  3353                           ;incstack = 0
  3354                           ; Regs used in _delay_pulse: [wreg+status,2+status,0]
  3355                           
  3356                           
  3357                           ;protest5.c: 223:     while(time>0){
  3358     0708  2F10               	goto	i1l1524
  3359     0709                     i1l1520:
  3360                           
  3361                           ;protest5.c: 224:         time--;
  3362     0709  3001               	movlw	1
  3363     070A  02F0               	subwf	delay_pulse@time,f
  3364     070B  3000               	movlw	0
  3365     070C  1C03               	skipc
  3366     070D  03F1               	decf	delay_pulse@time+1,f
  3367     070E  02F1               	subwf	delay_pulse@time+1,f
  3368     070F                     i1l1522:
  3369                           
  3370                           ;protest5.c: 225:         _delay((unsigned long)((1)*(4000000/4000000.0)));
  3371     070F  0000               	nop
  3372     0710                     i1l1524:
  3373                           
  3374                           ;protest5.c: 223:     while(time>0){
  3375     0710  0870               	movf	delay_pulse@time,w
  3376     0711  0471               	iorwf	delay_pulse@time+1,w
  3377     0712  1D03               	btfss	3,2
  3378     0713  2F15               	goto	u94_21
  3379     0714  2F16               	goto	u94_20
  3380     0715                     u94_21:
  3381     0715  2F09               	goto	i1l1520
  3382     0716                     u94_20:
  3383     0716                     i1l199:
  3384     0716  0008               	return
  3385     0717                     __end_of_delay_pulse:
  3386                           
  3387                           	psect	text9
  3388     06D2                     __ptext9:	
  3389 ;; *************** function _concat_bits *****************
  3390 ;; Defined at:
  3391 ;;		line 216 in file "protest5.c"
  3392 ;; Parameters:    Size  Location     Type
  3393 ;;  x               2    0[COMMON] unsigned int 
  3394 ;;  y               2    2[COMMON] unsigned int 
  3395 ;; Auto vars:     Size  Location     Type
  3396 ;;  z               2    8[COMMON] unsigned int 
  3397 ;; Return value:  Size  Location     Type
  3398 ;;                  2    0[COMMON] unsigned int 
  3399 ;; Registers used:
  3400 ;;		wreg, status,2, status,0
  3401 ;; Tracked objects:
  3402 ;;		On entry : 0/0
  3403 ;;		On exit  : 0/0
  3404 ;;		Unchanged: 0/0
  3405 ;; Data sizes:     COMMON   BANK0   BANK1   BANK3   BANK2
  3406 ;;      Params:         4       0       0       0       0
  3407 ;;      Locals:         2       0       0       0       0
  3408 ;;      Temps:          4       0       0       0       0
  3409 ;;      Totals:        10       0       0       0       0
  3410 ;;Total ram usage:       10 bytes
  3411 ;; Hardware stack levels used: 1
  3412 ;; This function calls:
  3413 ;;		Nothing
  3414 ;; This function is called by:
  3415 ;;		_isr
  3416 ;; This function uses a non-reentrant model
  3417 ;;
  3418                           
  3419     06D2                     _concat_bits:	
  3420                           ;psect for function _concat_bits
  3421                           
  3422     06D2                     i1l1510:	
  3423                           ;incstack = 0
  3424                           ; Regs used in _concat_bits: [wreg+status,2+status,0]
  3425                           
  3426     06D2                     i1l1512:
  3427                           
  3428                           ;protest5.c: 218:     z = (x << 2)|(y>>6);
  3429     06D2  0873               	movf	concat_bits@y+1,w
  3430     06D3  00F5               	movwf	??_concat_bits+1
  3431     06D4  0872               	movf	concat_bits@y,w
  3432     06D5  00F4               	movwf	??_concat_bits
  3433     06D6  3006               	movlw	6
  3434     06D7                     u93_25:
  3435     06D7  1003               	clrc
  3436     06D8  0CF5               	rrf	??_concat_bits+1,f
  3437     06D9  0CF4               	rrf	??_concat_bits,f
  3438     06DA  3EFF               	addlw	-1
  3439     06DB  1D03               	skipz
  3440     06DC  2ED7               	goto	u93_25
  3441     06DD  0871               	movf	concat_bits@x+1,w
  3442     06DE  00F7               	movwf	??_concat_bits+3
  3443     06DF  0870               	movf	concat_bits@x,w
  3444     06E0  00F6               	movwf	??_concat_bits+2
  3445     06E1  1003               	clrc
  3446     06E2  0DF6               	rlf	??_concat_bits+2,f
  3447     06E3  0DF7               	rlf	??_concat_bits+3,f
  3448     06E4  1003               	clrc
  3449     06E5  0DF6               	rlf	??_concat_bits+2,f
  3450     06E6  0DF7               	rlf	??_concat_bits+3,f
  3451     06E7  0874               	movf	??_concat_bits,w
  3452     06E8  0476               	iorwf	??_concat_bits+2,w
  3453     06E9  00F8               	movwf	concat_bits@z
  3454     06EA  0875               	movf	??_concat_bits+1,w
  3455     06EB  0477               	iorwf	??_concat_bits+3,w
  3456     06EC  00F9               	movwf	concat_bits@z+1
  3457     06ED                     i1l1514:
  3458                           
  3459                           ;protest5.c: 219:     return z;
  3460     06ED  0879               	movf	concat_bits@z+1,w
  3461     06EE  00F1               	movwf	?_concat_bits+1
  3462     06EF  0878               	movf	concat_bits@z,w
  3463     06F0  00F0               	movwf	?_concat_bits
  3464     06F1                     i1l193:
  3465     06F1  0008               	return
  3466     06F2                     __end_of_concat_bits:
  3467     007E                     btemp	set	126	;btemp
  3468     007E                     wtemp0	set	126
  3469                           
  3470                           	psect	idloc
  3471                           
  3472                           ;Config register IDLOC0 @ 0x2000
  3473                           ;	unspecified, using default values
  3474     2000                     	org	8192
  3475     2000  3FFF               	dw	16383
  3476                           
  3477                           ;Config register IDLOC1 @ 0x2001
  3478                           ;	unspecified, using default values
  3479     2001                     	org	8193
  3480     2001  3FFF               	dw	16383
  3481                           
  3482                           ;Config register IDLOC2 @ 0x2002
  3483                           ;	unspecified, using default values
  3484     2002                     	org	8194
  3485     2002  3FFF               	dw	16383
  3486                           
  3487                           ;Config register IDLOC3 @ 0x2003
  3488                           ;	unspecified, using default values
  3489     2003                     	org	8195
  3490     2003  3FFF               	dw	16383
  3491                           
  3492                           	psect	config
  3493                           
  3494                           ;Config register CONFIG1 @ 0x2007
  3495                           ;	Oscillator Selection bits
  3496                           ;	FOSC = INTRC_NOCLKOUT, INTOSCIO oscillator: I/O function on RA6/OSC2/CLKOUT pin, I/O f
      +                          unction on RA7/OSC1/CLKIN
  3497                           ;	Watchdog Timer Enable bit
  3498                           ;	WDTE = OFF, WDT disabled and can be enabled by SWDTEN bit of the WDTCON register
  3499                           ;	Power-up Timer Enable bit
  3500                           ;	PWRTE = OFF, PWRT disabled
  3501                           ;	RE3/MCLR pin function select bit
  3502                           ;	MCLRE = OFF, RE3/MCLR pin function is digital input, MCLR internally tied to VDD
  3503                           ;	Code Protection bit
  3504                           ;	CP = OFF, Program memory code protection is disabled
  3505                           ;	Data Code Protection bit
  3506                           ;	CPD = OFF, Data memory code protection is disabled
  3507                           ;	Brown Out Reset Selection bits
  3508                           ;	BOREN = OFF, BOR disabled
  3509                           ;	Internal External Switchover bit
  3510                           ;	IESO = OFF, Internal/External Switchover mode is disabled
  3511                           ;	Fail-Safe Clock Monitor Enabled bit
  3512                           ;	FCMEN = OFF, Fail-Safe Clock Monitor is disabled
  3513                           ;	Low Voltage Programming Enable bit
  3514                           ;	LVP = OFF, RB3 pin has digital I/O, HV on MCLR must be used for programming
  3515                           ;	In-Circuit Debugger Mode bit
  3516                           ;	DEBUG = 0x1, unprogramme  3517     2007                     	org	8199
  3518     2007  20D4               	dw	8404
  3519                           
  3520                           ;Config register CONFIG2 @ 0x2008
  3521                           ;	Brown-out Reset Selection bit
  3522                           ;	BOR4V = BOR40V, Brown-out Reset set to 4.0V
  3523                           ;	Flash Program Memory Self Write Enable bits
  3524                           ;	WRT = OFF, Write protection off
  3525     2008                     	org	8200
  3526     2008  3FFF               	dw	16383

Data Sizes:
    Strings     0
    Constant    0
    Data        0
    BSS         28
    Persistent  0
    Stack       0

Auto Spaces:
    Space          Size  Autos    Used
    COMMON           14     14      14
    BANK0            80     26      54
    BANK1            80      0       0
    BANK3            96      0       0
    BANK2            96      0       0

Pointer List with Targets:

    None.

Critical Paths under _main in COMMON

    None.

Critical Paths under _isr in COMMON

    _mapear->___lwdiv
    ___lwdiv->___wmul

Critical Paths under _main in BANK0

    _main->_writeEEPROM

Critical Paths under _isr in BANK0

    _isr->_mapear

Critical Paths under _main in BANK1

    None.

Critical Paths under _isr in BANK1

    None.

Critical Paths under _main in BANK3

    None.

Critical Paths under _isr in BANK3

    None.

Critical Paths under _main in BANK2

    None.

Critical Paths under _isr in BANK2

    None.

Call Graph Tables:

 ---------------------------------------------------------------------------------
 (Depth) Function   	        Calls       Base Space   Used Autos Params    Refs
 ---------------------------------------------------------------------------------
 (0) _main                                                 2     2      0     522
                                             24 BANK0      2     2      0
                         _readEEPROM
                              _setup
                        _writeEEPROM
 ---------------------------------------------------------------------------------
 (1) _writeEEPROM                                          6     2      4     196
                                             18 BANK0      6     2      4
 ---------------------------------------------------------------------------------
 (1) _setup                                                1     1      0       0
                                             18 BANK0      1     1      0
 ---------------------------------------------------------------------------------
 (1) _readEEPROM                                           4     2      2     326
                                             18 BANK0      4     2      2
 ---------------------------------------------------------------------------------
 Estimated maximum stack depth 1
 ---------------------------------------------------------------------------------
 (Depth) Function   	        Calls       Base Space   Used Autos Params    Refs
 ---------------------------------------------------------------------------------
 (2) _isr                                                  6     6      0    7742
                                             12 BANK0      6     6      0
                        _concat_bits
                        _delay_pulse
                             _mapear
 ---------------------------------------------------------------------------------
 (3) _mapear                                              12     2     10    6815
                                              0 BANK0     12     2     10
                            ___lwdiv
                             ___wmul
 ---------------------------------------------------------------------------------
 (4) ___wmul                                               6     2      4     244
                                              0 COMMON     6     2      4
 ---------------------------------------------------------------------------------
 (4) ___lwdiv                                              8     4      4     314
                                              6 COMMON     8     4      4
                             ___wmul (ARG)
 ---------------------------------------------------------------------------------
 (3) _delay_pulse                                          2     0      2     251
                                              0 COMMON     2     0      2
 ---------------------------------------------------------------------------------
 (3) _concat_bits                                         10     6      4     676
                                              0 COMMON    10     6      4
 ---------------------------------------------------------------------------------
 Estimated maximum stack depth 4
 ---------------------------------------------------------------------------------

 Call Graph Graphs:

 _main (ROOT)
   _readEEPROM
   _setup
   _writeEEPROM

 _isr (ROOT)
   _concat_bits
   _delay_pulse
   _mapear
     ___lwdiv
       ___wmul (ARG)
     ___wmul

 Address spaces:
Name               Size   Autos  Total    Cost      Usage
BITCOMMON            E      0       0       0        0.0%
EEDATA             100      0       0       0        0.0%
NULL                 0      0       0       0        0.0%
CODE                 0      0       0       0        0.0%
COMMON               E      E       E       1      100.0%
BITSFR0              0      0       0       1        0.0%
SFR0                 0      0       0       1        0.0%
BITSFR1              0      0       0       2        0.0%
SFR1                 0      0       0       2        0.0%
STACK                0      0       0       2        0.0%
ABS                  0      0      44       3        0.0%
BITBANK0            50      0       0       4        0.0%
BITSFR3              0      0       0       4        0.0%
SFR3                 0      0       0       4        0.0%
BANK0               50     1A      36       5       67.5%
BITSFR2              0      0       0       5        0.0%
SFR2                 0      0       0       5        0.0%
BITBANK1            50      0       0       6        0.0%
BANK1               50      0       0       7        0.0%
BITBANK3            60      0       0       8        0.0%
BANK3               60      0       0       9        0.0%
BITBANK2            60      0       0      10        0.0%
BANK2               60      0       0      11        0.0%
DATA                 0      0      44      12        0.0%


Microchip Technology PIC Macro Assembler V2.40 build 20220703182018 
Symbol Table                                                                                   Wed May 31 18:04:22 2023

                     _GO 00F9                       fsr 0004      ___wmul@multiplicand 0072  
        mapear@nuevo_max 0044          mapear@nuevo_min 0042                      l170 0504  
                    l181 05C8                      l190 0707                      l184 060B  
                    l187 06AC                      _GIE 005F                      _RB0 0030  
                    _RB1 0031                      _RA6 002E                      _RD0 0040  
                    _RA7 002F                      _RD1 0041                      _RD2 0042  
                    _PR2 0092                      _PSA 040B                      u920 05CC  
                    u921 05CB                      u950 0502                      u951 0501  
                    u960 0508                      u961 0507                      u970 050D  
                    u971 050C                      u980 055E                      u981 055D  
                    u990 0562                      u991 0561             concat_bits@x 0070  
           concat_bits@y 0072             concat_bits@z 0078                      _isr 001E  
                    indf 0000                     l1400 05BA                     l1410 05C2  
                   l1402 05BB                     l1500 06FB                     l1420 05CC  
                   l1412 05C3                     l1404 05BC                     l1430 05D4  
                   l1422 05D0                     l1414 05C4                     l1406 05BD  
                   l1440 05EC                     l1432 05D7                     l1424 05D1  
                   l1416 05C5                     l1408 05BF                     l1450 05F5  
                   l1442 05ED                     l1434 05E1                     l1426 05D2  
                   l1418 05C7                     l1530 0502                     l1460 05FA  
                   l1452 05F6                     l1444 05F0                     l1436 05E4  
                   l1428 05D3                     l1380 059F                     l1540 052D  
                   l1532 0508                     l1470 0603                     l1462 05FB  
                   l1454 05F7                     l1446 05F1                     l1438 05E5  
                   l1390 05AC                     l1382 05A0                     l1550 0562  
                   l1542 053C                     l1534 050D                     l1526 04F7  
                   l1480 060A                     l1472 0604                     l1464 05FC  
                   l1456 05F8                     l1448 05F2                     l1392 05AD  
                   l1384 05A4                     l1552 0572                     l1544 054B  
                   l1536 051A                     l1528 04FC                     l1474 0607  
                   l1466 05FF                     l1458 05F9                     l1394 05B1  
                   l1386 05A6                     l1378 059B                     l1490 06A9  
                   l1482 0687                     l1554 057E                     l1546 055A  
                   l1538 051E                     l1476 0608                     l1468 0602  
                   l1396 05B3                     l1388 05AA                     l1492 06AA  
                   l1484 0693                     l1556 0581                     l1548 055E  
                   l1478 0609                     l1398 05B9                     l1494 06AB  
                   l1486 0696                     l1558 058B                     l1496 06F2  
                   l1488 06A2                     l1498 06F8                     _ADIE 0466  
                   _ADIF 0066                     ?_isr 0070                     _CHS0 00FA  
                   _CHS1 00FB        writeEEPROM@adress 0050                     u1000 0588  
                   u1001 0584                     _T0CS 040D                     u1014 058B  
                   u1617 0579                     u1627 069D                     u1637 05DE  
                   _PEIE 005E                     _TMR0 0001                     _cont 0020  
                   _main 04F7                     _pot0 0038                     _pot1 0036  
                   _pot2 0034                     _pot3 0032           _botonPrevState 003A  
                   btemp 007E                     start 000E        mapear@nuevo_valor 0046  
            _writeEEPROM 0687                    ??_isr 0048                    _DC1B0 00BC  
                  _DC1B1 00BD                    ?_main 0070                    _EEADR 010D  
                  _EEDAT 010C                    _ANSEL 0188                    _T2CON 0012  
        __end_of___lwdiv 0650                    i1l210 00D4                    i1l211 014A  
                  i1l212 00FC                    i1l214 0122                    i1l253 04EF  
                  i1l350 06D1                    i1l262 04F0                    i1l193 06F1  
                  i1l178 0686                    i1l258 04EF                    i1l620 064F  
                  i1l348 06B9                    i1l199 0716                    _RCREG 001A  
                  _SPBRG 0099                    _PORTA 0005                    _PORTB 0006  
                  _PORTC 0007                    _PORTD 0008                    _PORTE 0009  
                  u81_20 06B3                    u81_21 06B2                    _TRISA 0085  
                  _TRISB 0086                    _TRISC 0087                    _TRISD 0088  
                  _TRISE 0089                    u90_25 063F                    u82_25 06BA  
                  u91_20 064B                    u91_21 064A                    u83_25 06C1  
                  u84_20 06CD                    u84_21 06CC                    u85_20 0614  
                  u85_21 0613                    u93_25 06D7                    u94_20 0716  
                  u94_21 0715                    u86_25 0618                    u87_20 0626  
                  u87_21 0625                    u88_25 0627                    u89_20 0637  
                  u89_21 0636                    _TXREG 0019                    u89_25 0633  
                  _temp0 0028                    _temp1 0026                    _temp2 0024  
                  _temp3 0022                    _servo 003B                    _setup 059B  
                  pclath 000A                    status 0003                    wtemp0 007E  
            mapear@valor 003C          __initialization 0011             __end_of_main 059B  
                 ??_main 0054                   _ADCON0 001F                   _CCP1M2 00BA  
                 _CCP1M3 00BB                   _ADRESH 001E                   _ADRESL 009E  
                 _CCPR1L 0015                   _EECON2 018D                   ?_setup 0070  
                 _ANSELH 0189                   u110_20 00B5                   u102_20 0022  
                 u110_21 00B4                   u102_21 0021                   u111_20 00D8  
                 u103_20 0032                   u111_21 00D7                   u103_21 0031  
                 i1l1340 06AF                   i1l1510 06D2                   i1l1342 06B3  
                 i1l1512 06D2                   i1l1520 0709                   i1l1360 061E  
                 i1l1352 060C                   i1l1344 06C0                   i1l1504 0650  
                 u120_20 015F                   u112_20 00DC                   u104_20 0059  
                 i1l1600 00A1                   u120_21 015E                   u112_21 00DB  
                 u104_21 0058                   i1l1514 06ED                   i1l1522 070F  
                 i1l1370 063E                   i1l1362 0622                   i1l1354 060E  
                 i1l1346 06C7                   i1l1338 06AD                   i1l1506 0682  
                 i1l1610 00B5                   i1l1602 00A5                   i1l1524 0710  
                 i1l1372 0645                   i1l1364 0626                   i1l1356 0614  
                 i1l1348 06CD                   i1l1700 0297                   i1l1620 00FA  
                 i1l1612 00D2                   i1l1604 00A9                   i1l1518 0708  
                 i1l1366 0637                   i1l1358 0617                   i1l1374 064B  
                 i1l1702 029D                   i1l1710 02CC                   i1l1630 012A  
                 i1l1622 0100                   i1l1614 00D8                   i1l1606 00AD  
                 i1l1368 063D                   i1l1800 04BA                   i1l1720 0305  
                 i1l1712 02D2                   i1l1704 02A3                   u121_20 016C  
                 i1l1640 014F                   i1l1632 0147                   i1l1624 0104  
                 u113_20 0100                   i1l1616 00DC                   i1l1608 00B1  
                 u105_20 0081                   i1l1560 001E                   u121_21 016B  
                 u113_21 00FF                   u105_21 0080                   i1l1810 04D2  
                 i1l1802 04C0                   i1l1730 0320                   i1l1722 0309  
                 i1l1714 02E1                   i1l1706 02AA                   i1l1650 0165  
                 i1l1642 0151                   i1l1634 0148                   i1l1618 00F9  
                 i1l1570 0032                   i1l1562 0022                   i1l1820 04EC  
                 i1l1812 04D8                   i1l1804 04C7                   i1l1740 0373  
                 i1l1724 030F                   i1l1732 033E                   i1l1716 02E3  
                 i1l1708 02AE                   i1l1660 01A3                   i1l1652 016C  
                 i1l1644 0155                   i1l1628 0126                   i1l1636 014A  
                 i1l1580 0059                   i1l1572 0033                   i1l1564 0024  
                 i1l1814 04DB                   i1l1806 04C9                   i1l1742 0379  
                 i1l1750 03A8                   i1l1734 0344                   i1l1726 0315  
                 i1l1670 01D6                   i1l1662 01A5                   i1l1654 0170  
                 i1l1646 0159                   i1l1718 0301                   i1l1638 014B  
                 i1l1590 0081                   i1l1582 005A                   i1l1574 004D  
                 i1l1566 002A                   i1l1816 04E2                   i1l1808 04CF  
                 i1l1760 03E3                   i1l1752 03AE                   i1l1744 037F  
                 i1l1736 0353                   i1l1728 031C                   u130_20 0268  
                 i1l1680 020F                   i1l1672 01DA                   i1l1664 01C3  
                 u122_20 0194                   i1l1648 015F                   i1l1656 018E  
                 u114_20 0104                   u106_20 00A5                   i1l1592 0082  
                 i1l1584 0074                   i1l1576 0050                   i1l1568 002B  
                 u130_21 0267                   u122_21 0193                   u114_21 0103  
                 u106_21 00A4                   i1l1818 04E5                   i1l1770 0418  
                 i1l1762 03E9                   i1l1754 03BD                   i1l1746 0386  
                 i1l1738 0355                   i1l1690 0244                   i1l1682 022D  
                 i1l1666 01C9                   i1l1674 01F8                   i1l1658 0194  
                 i1l1594 009C                   i1l1586 0077                   i1l1578 0054  
                 i1l1780 0453                   i1l1772 0427                   i1l1764 03F0  
                 i1l1756 03BF                   i1l1748 038A                   i1l1684 0233  
                 i1l1692 0262                   i1l1676 01FE                   i1l1668 01CF  
                 i1l1596 009F                   i1l1588 007B                   i1l1790 0491  
                 i1l1782 045A                   i1l1774 0429                   i1l1766 03F4  
                 i1l1758 03DD                   i1l1694 0268                   i1l1686 0239  
                 i1l1678 020D                   i1l1598 00A0                   i1l1792 0493  
                 i1l1784 045E                   i1l1776 0447                   i1l1768 0412  
                 i1l1696 0277                   u131_20 0277                   i1l1688 0240  
                 u123_20 01A3                   u115_20 0126                   u107_20 00A9  
                 u131_21 0276                   u123_21 01A2                   u115_21 0125  
                 u107_21 00A8                   i1l1778 044D                   i1l1786 047C  
                 i1l1794 04B1                   i1l1698 0279                   i1l1788 0482  
                 i1l1796 04B2                   i1l1798 04B6                   u140_20 0344  
                 u132_20 029D                   u124_20 01C9                   u116_20 012A  
                 u108_20 00AD                   u140_21 0343                   u132_21 029C  
                 u124_21 01C8                   u116_21 0129                   u108_21 00AC  
                 u141_20 0353                   u133_20 02AA                   u125_20 01D6  
                 u117_20 014F                   u109_20 00B1                   u141_21 0352  
                 u133_21 02A9                   u125_21 01D5                   u117_21 014E  
                 u109_21 00B0                   u150_20 044D                   u142_20 0379  
                 u134_20 02D2                   u126_20 01FE                   u118_20 0155  
                 u150_21 044C                   u142_21 0378                   u134_21 02D1  
                 u126_21 01FD                   u118_21 0154                   u151_20 045A  
                 u143_20 0386                   u135_20 02E1                   u127_20 020D  
                 u119_20 0159                   u151_21 0459                   u143_21 0385  
                 u135_21 02E0                   u127_21 020C                   u119_21 0158  
                 u160_20 04EC                   u152_20 0482                   u144_20 03AE  
                 u136_20 0305                   u128_20 0233                   u160_21 04EB  
                 u152_21 0481                   u144_21 03AD                   u136_21 0304  
                 u128_21 0232                   u153_20 0491                   u145_20 03BD  
                 u137_20 0309                   u129_20 0240                   u153_21 0490  
                 u145_21 03BC                   u137_21 0308                   u129_21 023F  
                 u154_20 04B6                   u146_20 03E3                   u138_20 030F  
                 u154_21 04B5                   u146_21 03E2                   u138_21 030E  
                 u155_20 04BA                   u147_20 03F0                   u139_20 031C  
                 u155_21 04B9                   u147_21 03EF                   u139_21 031B  
                 u156_20 04C7                   u148_20 0418                   u156_21 04C6  
                 u148_21 0417                   u157_20 04CF                   u149_20 0427  
                 u157_21 04CE                   u149_21 0426                   u158_20 04D8  
                 u158_21 04D7                   u159_20 04E2                   u159_21 04E1  
                 _OSCCON 008F                   _TMR0IE 005D                   _TMR0IF 005A  
                 _TMR2IF 0061                   _SPBRGH 009A                   ___wmul 06AD  
              ??___lwdiv 007A                   _mapear 0650                   saved_w 007E  
__end_of__initialization 001A          writeEEPROM@data 004E           __pcstackCOMMON 0070  
          __end_of_setup 060C           _OPTION_REGbits 0081                  ??_setup 004E  
             __pbssBANK0 0020          delay_pulse@time 0070               __pmaintext 04F7  
           ?_writeEEPROM 004E                  ?___wmul 0070               __pintentry 0004  
                ?_mapear 003C               _readEEPROM 06F2                  ___lwdiv 060C  
                _conPot0 0030                  _conPot1 002E                  _conPot2 002C  
                _conPot3 002A                  __ptext1 0687                  __ptext2 059B  
                __ptext3 06F2                  __ptext4 001E                  __ptext5 0650  
                __ptext6 06AD                  __ptext7 060C                  __ptext8 0708  
                __ptext9 06D2                _T2CONbits 0012                  clrloop0 0718  
   end_of_initialization 001A            ??_delay_pulse 0072                _RCSTAbits 0018  
              _TRISCbits 0087            ??_concat_bits 0074              ?_readEEPROM 004E  
              _TXSTAbits 0098      __end_of_delay_pulse 0717           __end_of___wmul 06D2  
            _BAUDCTLbits 0187           __end_of_mapear 0687      start_initialization 0011  
            __end_of_isr 04F7      __end_of_concat_bits 06F2                 ??___wmul 0074  
               ??_mapear 007E                ___latbits 0002            __pcstackBANK0 003C  
            _delay_pulse 0708         ___lwdiv@dividend 0078                 ?___lwdiv 0076  
       ___lwdiv@quotient 007B        interrupt_function 0004           ___wmul@product 0074  
               _IOCBbits 0096              _concat_bits 06D2                clear_ram0 0717  
               _PIE1bits 008C                 _PIR1bits 000C               _ADCON1bits 009F  
      ___wmul@multiplier 0070         readEEPROM@adress 004E                 _WPUBbits 0095  
           ??_readEEPROM 0050               _EECON1bits 018C       __end_of_readEEPROM 0708  
        ___lwdiv@divisor 0076          ___lwdiv@counter 007D            ??_writeEEPROM 0052  
             _INTCONbits 000B                 intlevel1 0000             ?_delay_pulse 0070  
    __end_of_writeEEPROM 06AD             ?_concat_bits 0070          mapear@rango_max 0040  
        mapear@rango_min 003E  
